

Microchip MPLAB XC8 Assembler V2.32 build 20210201212658 
                                                                                               Sun Jun 13 16:14:20 2021

Microchip MPLAB XC8 C Compiler v2.32 (Free license) build 20210201212658 Og1 
     1                           	processor	16F877A
     2                           	pagewidth 120
     3                           	opt	flic
     4                           	psect	idataBANK1,global,class=CODE,delta=2,noexec
     5                           	psect	strings,global,class=STRING,delta=2,noexec
     6                           	psect	cinit,global,class=CODE,merge=1,delta=2
     7                           	psect	bssBANK1,global,class=BANK1,space=1,delta=1,noexec
     8                           	psect	dataBANK1,global,class=BANK1,space=1,delta=1,noexec
     9                           	psect	bssBANK3,global,class=BANK3,space=1,delta=1,noexec
    10                           	psect	clrtext,global,class=CODE,delta=2
    11                           	psect	cstackBANK1,global,class=BANK1,space=1,delta=1,noexec
    12                           	psect	cstackCOMMON,global,class=COMMON,space=1,delta=1,noexec
    13                           	psect	cstackBANK0,global,class=BANK0,space=1,delta=1,noexec
    14                           	psect	maintext,global,class=CODE,split=1,delta=2
    15                           	psect	text1,local,class=CODE,merge=1,delta=2
    16                           	psect	text2,local,class=CODE,merge=1,delta=2
    17                           	psect	text3,local,class=CODE,merge=1,delta=2
    18                           	psect	text4,local,class=CODE,merge=1,delta=2
    19                           	psect	text5,local,class=CODE,merge=1,delta=2,group=1
    20                           	psect	text6,local,class=CODE,merge=1,delta=2,group=2
    21                           	psect	text7,local,class=CODE,merge=1,delta=2,group=2
    22                           	psect	text8,local,class=CODE,merge=1,delta=2
    23                           	psect	text9,local,class=CODE,merge=1,delta=2
    24                           	psect	text10,local,class=CODE,merge=1,delta=2
    25                           	psect	text11,local,class=CODE,merge=1,delta=2
    26                           	psect	text12,local,class=CODE,merge=1,delta=2
    27                           	psect	text13,local,class=CODE,merge=1,delta=2
    28                           	psect	text14,local,class=CODE,merge=1,delta=2,group=2
    29                           	psect	text15,local,class=CODE,merge=1,delta=2,group=2
    30                           	psect	text16,local,class=CODE,merge=1,delta=2
    31                           	psect	text17,local,class=CODE,merge=1,delta=2
    32                           	psect	text18,local,class=CODE,merge=1,delta=2
    33                           	psect	text19,local,class=CODE,merge=1,delta=2
    34                           	psect	text20,local,class=CODE,merge=1,delta=2,group=2
    35                           	psect	text21,local,class=CODE,merge=1,delta=2,group=2
    36                           	psect	text22,local,class=CODE,merge=1,delta=2,group=2
    37                           	psect	text23,local,class=CODE,merge=1,delta=2,group=2
    38                           	psect	text24,local,class=CODE,merge=1,delta=2,group=2
    39                           	psect	text25,local,class=CODE,merge=1,delta=2
    40                           	psect	text26,local,class=CODE,merge=1,delta=2,group=2
    41                           	psect	text27,local,class=CODE,merge=1,delta=2
    42                           	psect	text28,local,class=CODE,merge=1,delta=2
    43                           	psect	config,global,abs,ovrld,class=CONFIG,space=4,delta=2,noexec
    44                           	dabs	1,0x7E,2
    45  0000                     
    46                           ; Version 2.20
    47                           ; Generated 12/02/2020 GMT
    48                           ; 
    49                           ; Copyright © 2020, Microchip Technology Inc. and its subsidiaries ("Microchip")
    50                           ; All rights reserved.
    51                           ; 
    52                           ; This software is developed by Microchip Technology Inc. and its subsidiaries ("Microch
      +                          ip").
    53                           ; 
    54                           ; Redistribution and use in source and binary forms, with or without modification, are
    55                           ; permitted provided that the following conditions are met:
    56                           ; 
    57                           ;     1. Redistributions of source code must retain the above copyright notice, this lis
      +                          t of
    58                           ;        conditions and the following disclaimer.
    59                           ; 
    60                           ;     2. Redistributions in binary form must reproduce the above copyright notice, this 
      +                          list
    61                           ;        of conditions and the following disclaimer in the documentation and/or other
    62                           ;        materials provided with the distribution.
    63                           ; 
    64                           ;     3. Microchip's name may not be used to endorse or promote products derived from th
      +                          is
    65                           ;        software without specific prior written permission.
    66                           ; 
    67                           ; THIS SOFTWARE IS PROVIDED BY MICROCHIP "AS IS" AND ANY EXPRESS OR IMPLIED WARRANTIES,
    68                           ; INCLUDING, BUT NOT LIMITED TO, THE IMPLIED WARRANTIES OF MERCHANTABILITY AND FITNESS F
      +                          OR
    69                           ; PURPOSE ARE DISCLAIMED.  IN NO EVENT SHALL MICROCHIP BE LIABLE FOR ANY DIRECT, INDIREC
      +                          T,
    70                           ; INCIDENTAL, SPECIAL, EXEMPLARY, OR CONSEQUENTIAL DAMAGES (INCLUDING BUT NOT LIMITED TO
    71                           ; PROCUREMENT OF SUBSTITUTE GOODS OR SERVICES; LOSS OF USE, DATA OR PROFITS; OR BUSINESS
    72                           ; INTERRUPTION) HOWSOEVER CAUSED AND ON ANY THEORY OF LIABILITY, WHETHER IN CONTRACT, ST
      +                          RICT
    73                           ; LIABILITY, OR TORT (INCLUDING NEGLIGENCE OR OTHERWISE) ARISING IN ANY WAY OUT OF THE U
      +                          SE OF
    74                           ; THIS SOFTWARE, EVEN IF ADVISED OF THE POSSIBILITY OF SUCH DAMAGE.
    75                           ; 
    76                           ; 
    77                           ; Code-generator required, PIC16F877A Definitions
    78                           ; 
    79                           ; SFR Addresses
    80  0000                     	;# 
    81  0001                     	;# 
    82  0002                     	;# 
    83  0003                     	;# 
    84  0004                     	;# 
    85  0005                     	;# 
    86  0006                     	;# 
    87  0007                     	;# 
    88  0008                     	;# 
    89  0009                     	;# 
    90  000A                     	;# 
    91  000B                     	;# 
    92  000C                     	;# 
    93  000D                     	;# 
    94  000E                     	;# 
    95  000E                     	;# 
    96  000F                     	;# 
    97  0010                     	;# 
    98  0011                     	;# 
    99  0012                     	;# 
   100  0013                     	;# 
   101  0014                     	;# 
   102  0015                     	;# 
   103  0015                     	;# 
   104  0016                     	;# 
   105  0017                     	;# 
   106  0018                     	;# 
   107  0019                     	;# 
   108  001A                     	;# 
   109  001B                     	;# 
   110  001B                     	;# 
   111  001C                     	;# 
   112  001D                     	;# 
   113  001E                     	;# 
   114  001F                     	;# 
   115  0081                     	;# 
   116  0085                     	;# 
   117  0086                     	;# 
   118  0087                     	;# 
   119  0088                     	;# 
   120  0089                     	;# 
   121  008C                     	;# 
   122  008D                     	;# 
   123  008E                     	;# 
   124  0091                     	;# 
   125  0092                     	;# 
   126  0093                     	;# 
   127  0094                     	;# 
   128  0098                     	;# 
   129  0099                     	;# 
   130  009C                     	;# 
   131  009D                     	;# 
   132  009E                     	;# 
   133  009F                     	;# 
   134  010C                     	;# 
   135  010D                     	;# 
   136  010E                     	;# 
   137  010F                     	;# 
   138  018C                     	;# 
   139  018D                     	;# 
   140  0000                     	;# 
   141  0001                     	;# 
   142  0002                     	;# 
   143  0003                     	;# 
   144  0004                     	;# 
   145  0005                     	;# 
   146  0006                     	;# 
   147  0007                     	;# 
   148  0008                     	;# 
   149  0009                     	;# 
   150  000A                     	;# 
   151  000B                     	;# 
   152  000C                     	;# 
   153  000D                     	;# 
   154  000E                     	;# 
   155  000E                     	;# 
   156  000F                     	;# 
   157  0010                     	;# 
   158  0011                     	;# 
   159  0012                     	;# 
   160  0013                     	;# 
   161  0014                     	;# 
   162  0015                     	;# 
   163  0015                     	;# 
   164  0016                     	;# 
   165  0017                     	;# 
   166  0018                     	;# 
   167  0019                     	;# 
   168  001A                     	;# 
   169  001B                     	;# 
   170  001B                     	;# 
   171  001C                     	;# 
   172  001D                     	;# 
   173  001E                     	;# 
   174  001F                     	;# 
   175  0081                     	;# 
   176  0085                     	;# 
   177  0086                     	;# 
   178  0087                     	;# 
   179  0088                     	;# 
   180  0089                     	;# 
   181  008C                     	;# 
   182  008D                     	;# 
   183  008E                     	;# 
   184  0091                     	;# 
   185  0092                     	;# 
   186  0093                     	;# 
   187  0094                     	;# 
   188  0098                     	;# 
   189  0099                     	;# 
   190  009C                     	;# 
   191  009D                     	;# 
   192  009E                     	;# 
   193  009F                     	;# 
   194  010C                     	;# 
   195  010D                     	;# 
   196  010E                     	;# 
   197  010F                     	;# 
   198  018C                     	;# 
   199  018D                     	;# 
   200  0000                     	;# 
   201  0001                     	;# 
   202  0002                     	;# 
   203  0003                     	;# 
   204  0004                     	;# 
   205  0005                     	;# 
   206  0006                     	;# 
   207  0007                     	;# 
   208  0008                     	;# 
   209  0009                     	;# 
   210  000A                     	;# 
   211  000B                     	;# 
   212  000C                     	;# 
   213  000D                     	;# 
   214  000E                     	;# 
   215  000E                     	;# 
   216  000F                     	;# 
   217  0010                     	;# 
   218  0011                     	;# 
   219  0012                     	;# 
   220  0013                     	;# 
   221  0014                     	;# 
   222  0015                     	;# 
   223  0015                     	;# 
   224  0016                     	;# 
   225  0017                     	;# 
   226  0018                     	;# 
   227  0019                     	;# 
   228  001A                     	;# 
   229  001B                     	;# 
   230  001B                     	;# 
   231  001C                     	;# 
   232  001D                     	;# 
   233  001E                     	;# 
   234  001F                     	;# 
   235  0081                     	;# 
   236  0085                     	;# 
   237  0086                     	;# 
   238  0087                     	;# 
   239  0088                     	;# 
   240  0089                     	;# 
   241  008C                     	;# 
   242  008D                     	;# 
   243  008E                     	;# 
   244  0091                     	;# 
   245  0092                     	;# 
   246  0093                     	;# 
   247  0094                     	;# 
   248  0098                     	;# 
   249  0099                     	;# 
   250  009C                     	;# 
   251  009D                     	;# 
   252  009E                     	;# 
   253  009F                     	;# 
   254  010C                     	;# 
   255  010D                     	;# 
   256  010E                     	;# 
   257  010F                     	;# 
   258  018C                     	;# 
   259  018D                     	;# 
   260  0000                     	;# 
   261  0001                     	;# 
   262  0002                     	;# 
   263  0003                     	;# 
   264  0004                     	;# 
   265  0005                     	;# 
   266  0006                     	;# 
   267  0007                     	;# 
   268  0008                     	;# 
   269  0009                     	;# 
   270  000A                     	;# 
   271  000B                     	;# 
   272  000C                     	;# 
   273  000D                     	;# 
   274  000E                     	;# 
   275  000E                     	;# 
   276  000F                     	;# 
   277  0010                     	;# 
   278  0011                     	;# 
   279  0012                     	;# 
   280  0013                     	;# 
   281  0014                     	;# 
   282  0015                     	;# 
   283  0015                     	;# 
   284  0016                     	;# 
   285  0017                     	;# 
   286  0018                     	;# 
   287  0019                     	;# 
   288  001A                     	;# 
   289  001B                     	;# 
   290  001B                     	;# 
   291  001C                     	;# 
   292  001D                     	;# 
   293  001E                     	;# 
   294  001F                     	;# 
   295  0081                     	;# 
   296  0085                     	;# 
   297  0086                     	;# 
   298  0087                     	;# 
   299  0088                     	;# 
   300  0089                     	;# 
   301  008C                     	;# 
   302  008D                     	;# 
   303  008E                     	;# 
   304  0091                     	;# 
   305  0092                     	;# 
   306  0093                     	;# 
   307  0094                     	;# 
   308  0098                     	;# 
   309  0099                     	;# 
   310  009C                     	;# 
   311  009D                     	;# 
   312  009E                     	;# 
   313  009F                     	;# 
   314  010C                     	;# 
   315  010D                     	;# 
   316  010E                     	;# 
   317  010F                     	;# 
   318  018C                     	;# 
   319  018D                     	;# 
   320  0000                     	;# 
   321  0001                     	;# 
   322  0002                     	;# 
   323  0003                     	;# 
   324  0004                     	;# 
   325  0005                     	;# 
   326  0006                     	;# 
   327  0007                     	;# 
   328  0008                     	;# 
   329  0009                     	;# 
   330  000A                     	;# 
   331  000B                     	;# 
   332  000C                     	;# 
   333  000D                     	;# 
   334  000E                     	;# 
   335  000E                     	;# 
   336  000F                     	;# 
   337  0010                     	;# 
   338  0011                     	;# 
   339  0012                     	;# 
   340  0013                     	;# 
   341  0014                     	;# 
   342  0015                     	;# 
   343  0015                     	;# 
   344  0016                     	;# 
   345  0017                     	;# 
   346  0018                     	;# 
   347  0019                     	;# 
   348  001A                     	;# 
   349  001B                     	;# 
   350  001B                     	;# 
   351  001C                     	;# 
   352  001D                     	;# 
   353  001E                     	;# 
   354  001F                     	;# 
   355  0081                     	;# 
   356  0085                     	;# 
   357  0086                     	;# 
   358  0087                     	;# 
   359  0088                     	;# 
   360  0089                     	;# 
   361  008C                     	;# 
   362  008D                     	;# 
   363  008E                     	;# 
   364  0091                     	;# 
   365  0092                     	;# 
   366  0093                     	;# 
   367  0094                     	;# 
   368  0098                     	;# 
   369  0099                     	;# 
   370  009C                     	;# 
   371  009D                     	;# 
   372  009E                     	;# 
   373  009F                     	;# 
   374  010C                     	;# 
   375  010D                     	;# 
   376  010E                     	;# 
   377  010F                     	;# 
   378  018C                     	;# 
   379  018D                     	;# 
   380                           
   381                           	psect	idataBANK1
   382  0003                     __pidataBANK1:
   383                           
   384                           ;initializer for _kp
   385  0003  345A               	retlw	90
   386  0004  3400               	retlw	0
   387                           
   388                           ;initializer for _setPoint
   389  0005  3468               	retlw	104
   390  0006  3410               	retlw	16
   391                           
   392                           ;initializer for _menu
   393  0007  3401               	retlw	1
   394  0008  3400               	retlw	0
   395                           
   396                           	psect	strings
   397  0800                     __pstrings:
   398  0800                     stringtab:
   399  0800                     __stringtab:
   400                           
   401                           ;	String table - string pointers are 1 byte each
   402  0800  1BFF               	btfsc	btemp+1,7
   403  0801  280A               	ljmp	stringcode
   404  0802  1383               	bcf	3,7
   405  0803  187F               	btfsc	btemp+1,0
   406  0804  1783               	bsf	3,7
   407  0805  0800               	movf	0,w
   408  0806  0A84               	incf	4,f
   409  0807  1903               	skipnz
   410  0808  0AFF               	incf	btemp+1,f
   411  0809  0008               	return
   412  080A                     stringcode:
   413  080A                     stringdir:
   414  080A  3008               	movlw	high stringdir
   415  080B  008A               	movwf	10
   416  080C  0804               	movf	4,w
   417  080D  0A84               	incf	4,f
   418  080E  0782               	addwf	2,f
   419  080F                     __stringbase:
   420  080F  3400               	retlw	0
   421  0810                     __end_of__stringtab:
   422  0810                     _dpowers:
   423  0810  3401               	retlw	1
   424  0811  3400               	retlw	0
   425  0812  340A               	retlw	10
   426  0813  3400               	retlw	0
   427  0814  3464               	retlw	100
   428  0815  3400               	retlw	0
   429  0816  34E8               	retlw	232
   430  0817  3403               	retlw	3
   431  0818  3410               	retlw	16
   432  0819  3427               	retlw	39
   433  081A                     __end_of_dpowers:
   434  0009                     _PORTEbits	set	9
   435  0008                     _PORTD	set	8
   436  001E                     _ADRESH	set	30
   437  001F                     _ADCON0	set	31
   438  001B                     _CCPR2L	set	27
   439  0015                     _CCPR1L	set	21
   440  0033                     _RB3	set	51
   441  0032                     _RB2	set	50
   442  0031                     _RB1	set	49
   443  0030                     _RB0	set	48
   444  00FA                     _GO_nDONE	set	250
   445  0091                     _T2CKPS1	set	145
   446  0090                     _T2CKPS0	set	144
   447  00EA                     _CCP2M2	set	234
   448  00EB                     _CCP2M3	set	235
   449  0092                     _TMR2ON	set	146
   450  00BA                     _CCP1M2	set	186
   451  00BB                     _CCP1M3	set	187
   452  00EC                     _CCP2Y	set	236
   453  00ED                     _CCP2X	set	237
   454  00BC                     _CCP1Y	set	188
   455  00BD                     _CCP1X	set	189
   456  0089                     _TRISE	set	137
   457  0088                     _TRISD	set	136
   458  0087                     _TRISC	set	135
   459  0086                     _TRISB	set	134
   460  0085                     _TRISA	set	133
   461  009E                     _ADRESL	set	158
   462  009F                     _ADCON1	set	159
   463  0092                     _PR2	set	146
   464  0439                     _TRISC1	set	1081
   465  043A                     _TRISC2	set	1082
   466  081A                     STR_8:
   467  081A  3420               	retlw	32	;' '
   468  081B  3420               	retlw	32	;' '
   469  081C  344B               	retlw	75	;'K'
   470  081D  3450               	retlw	80	;'P'
   471  081E  343A               	retlw	58	;':'
   472  081F  3400               	retlw	0
   473  0820                     STR_7:
   474  0820  3454               	retlw	84	;'T'
   475  0821  3445               	retlw	69	;'E'
   476  0822  344D               	retlw	77	;'M'
   477  0823  3450               	retlw	80	;'P'
   478  0824  343A               	retlw	58	;':'
   479  0825  3400               	retlw	0
   480  0826                     STR_5:
   481  0826  3420               	retlw	32	;' '
   482  0827  3443               	retlw	67	;'C'
   483  0828  3400               	retlw	0
   484  0829                     STR_1:
   485  0829  3425               	retlw	37	;'%'
   486  082A  3464               	retlw	100	;'d'
   487  082B  3400               	retlw	0
   488  082C                     STR_3:
   489  082C  342E               	retlw	46	;'.'
   490  082D  3400               	retlw	0
   491  0829                     
   492                           	psect	cinit
   493  07C4                     start_initialization:	
   494                           ; #config settings
   495                           
   496  07C4                     __initialization:
   497                           
   498                           ; Initialize objects allocated to BANK1
   499  07C4  1683               	bsf	3,5	;RP0=1, select bank1
   500  07C5  1303               	bcf	3,6	;RP1=0, select bank1
   501  07C6  120A  118A  2003  120A  118A  	fcall	__pidataBANK1	;fetch initializer
   502  07CB  00E2               	movwf	__pdataBANK1& (0+127)
   503  07CC  120A  118A  2004  120A  118A  	fcall	__pidataBANK1+1	;fetch initializer
   504  07D1  00E3               	movwf	(__pdataBANK1+1)& (0+127)
   505  07D2  120A  118A  2005  120A  118A  	fcall	__pidataBANK1+2	;fetch initializer
   506  07D7  00E4               	movwf	(__pdataBANK1+2)& (0+127)
   507  07D8  120A  118A  2006  120A  118A  	fcall	__pidataBANK1+3	;fetch initializer
   508  07DD  00E5               	movwf	(__pdataBANK1+3)& (0+127)
   509  07DE  120A  118A  2007  120A  118A  	fcall	__pidataBANK1+4	;fetch initializer
   510  07E3  00E6               	movwf	(__pdataBANK1+4)& (0+127)
   511  07E4  120A  118A  2008  120A  118A  	fcall	__pidataBANK1+5	;fetch initializer
   512  07E9  00E7               	movwf	(__pdataBANK1+5)& (0+127)
   513                           
   514                           ; Clear objects allocated to BANK3
   515  07EA  1783               	bsf	3,7	;select IRP bank2
   516  07EB  3090               	movlw	low __pbssBANK3
   517  07EC  0084               	movwf	4
   518  07ED  30B0               	movlw	low (__pbssBANK3+32)
   519  07EE  160A  118A  27AF  120A  118A  	fcall	clear_ram0
   520                           
   521                           ; Clear objects allocated to BANK1
   522  07F3  1383               	bcf	3,7	;select IRP bank0
   523  07F4  30A0               	movlw	low __pbssBANK1
   524  07F5  0084               	movwf	4
   525  07F6  30CE               	movlw	low (__pbssBANK1+46)
   526  07F7  160A  118A  27AF  120A  118A  	fcall	clear_ram0
   527  07FC                     end_of_initialization:	
   528                           ;End of C runtime variable initialization code
   529                           
   530  07FC                     __end_of__initialization:
   531  07FC  0183               	clrf	3
   532  07FD  120A  118A  28C5   	ljmp	_main	;jump to C main() function
   533                           
   534                           	psect	bssBANK1
   535  00A0                     __pbssBANK1:
   536  00A0                     _kpReferencia:
   537  00A0                     	ds	2
   538  00A2                     _setPointReferencia:
   539  00A2                     	ds	2
   540  00A4                     _temperatura:
   541  00A4                     	ds	2
   542  00A6                     controlarValores@S4Atual:
   543  00A6                     	ds	1
   544  00A7                     controlarValores@S4Anterior:
   545  00A7                     	ds	1
   546  00A8                     controlarValores@S3Atual:
   547  00A8                     	ds	1
   548  00A9                     controlarValores@S3Anterior:
   549  00A9                     	ds	1
   550  00AA                     controlarValores@S2Atual:
   551  00AA                     	ds	1
   552  00AB                     controlarValores@S2Anterior:
   553  00AB                     	ds	1
   554  00AC                     controlarValores@S1Atual:
   555  00AC                     	ds	1
   556  00AD                     controlarValores@S1Anterior:
   557  00AD                     	ds	1
   558  00AE                     _setPoint_string:
   559  00AE                     	ds	32
   560                           
   561                           	psect	dataBANK1
   562  00E2                     __pdataBANK1:
   563  00E2                     _kp:
   564  00E2                     	ds	2
   565  00E4                     _setPoint:
   566  00E4                     	ds	2
   567  00E6                     _menu:
   568  00E6                     	ds	2
   569                           
   570                           	psect	bssBANK3
   571  0190                     __pbssBANK3:
   572  0190                     _kp_string:
   573  0190                     	ds	32
   574                           
   575                           	psect	clrtext
   576  17AF                     clear_ram0:	
   577                           ;	Called with FSR containing the base address, and
   578                           ;	W with the last address+1
   579                           
   580  17AF  0064               	clrwdt	;clear the watchdog before getting into this loop
   581  17B0                     clrloop0:
   582  17B0  0180               	clrf	0	;clear RAM location pointed to by FSR
   583  17B1  0A84               	incf	4,f	;increment pointer
   584  17B2  0604               	xorwf	4,w	;XOR with final address
   585  17B3  1903               	btfsc	3,2	;have we reached the end yet?
   586  17B4  3400               	retlw	0	;all done for this memory range, return
   587  17B5  0604               	xorwf	4,w	;XOR again to restore value
   588  17B6  2FB0               	goto	clrloop0	;do the next byte
   589                           
   590                           	psect	cstackBANK1
   591  00CE                     __pcstackBANK1:
   592  00CE                     ?_PWM1_Duty:
   593  00CE                     ?_PWM2_Duty:	
   594                           ; 1 bytes @ 0x0
   595                           
   596  00CE                     PWM1_Duty@duty:	
   597                           ; 1 bytes @ 0x0
   598                           
   599  00CE                     PWM2_Duty@duty:	
   600                           ; 2 bytes @ 0x0
   601                           
   602                           
   603                           ; 2 bytes @ 0x0
   604  00CE                     	ds	2
   605  00D0                     PWM1_Duty@freq:
   606  00D0                     PWM2_Duty@freq:	
   607                           ; 2 bytes @ 0x2
   608                           
   609                           
   610                           ; 2 bytes @ 0x2
   611  00D0                     	ds	2
   612  00D2                     ??_PWM1_Duty:
   613  00D2                     ??_PWM2_Duty:	
   614                           ; 1 bytes @ 0x4
   615                           
   616                           
   617                           ; 1 bytes @ 0x4
   618  00D2                     	ds	2
   619  00D4                     ??_main:
   620                           
   621                           ; 1 bytes @ 0x6
   622  00D4                     	ds	2
   623  00D6                     main@erro:
   624                           
   625                           ; 4 bytes @ 0x8
   626  00D6                     	ds	4
   627  00DA                     _main$841:
   628                           
   629                           ; 2 bytes @ 0xC
   630  00DA                     	ds	2
   631  00DC                     main@up:
   632                           
   633                           ; 4 bytes @ 0xE
   634  00DC                     	ds	4
   635  00E0                     main@cooler:
   636                           
   637                           ; 2 bytes @ 0x12
   638  00E0                     	ds	2
   639                           
   640                           	psect	cstackCOMMON
   641  0070                     __pcstackCOMMON:
   642  0070                     ?_lcd_cmd:
   643  0070                     ?_lcd_init:	
   644                           ; 1 bytes @ 0x0
   645                           
   646  0070                     ?_PWM1_Start:	
   647                           ; 1 bytes @ 0x0
   648                           
   649  0070                     ??_PWM1_Start:	
   650                           ; 1 bytes @ 0x0
   651                           
   652  0070                     ?_PWM2_Start:	
   653                           ; 1 bytes @ 0x0
   654                           
   655  0070                     ??_PWM2_Start:	
   656                           ; 1 bytes @ 0x0
   657                           
   658  0070                     ?_ADC_Init:	
   659                           ; 1 bytes @ 0x0
   660                           
   661  0070                     ??_ADC_Init:	
   662                           ; 1 bytes @ 0x0
   663                           
   664  0070                     ?_controlarValores:	
   665                           ; 1 bytes @ 0x0
   666                           
   667  0070                     ??_controlarValores:	
   668                           ; 1 bytes @ 0x0
   669                           
   670  0070                     ?_imprimirValoresLcd:	
   671                           ; 1 bytes @ 0x0
   672                           
   673  0070                     ?_iniciarLcd:	
   674                           ; 1 bytes @ 0x0
   675                           
   676  0070                     ?_main:	
   677                           ; 1 bytes @ 0x0
   678                           
   679  0070                     ?_lcd_wr:	
   680                           ; 1 bytes @ 0x0
   681                           
   682  0070                     ??_lcd_wr:	
   683                           ; 1 bytes @ 0x0
   684                           
   685  0070                     ?_lcd_dat:	
   686                           ; 1 bytes @ 0x0
   687                           
   688  0070                     ?__Umul8_16:	
   689                           ; 1 bytes @ 0x0
   690                           
   691  0070                     ?_ADC_Read:	
   692                           ; 2 bytes @ 0x0
   693                           
   694  0070                     ?___awdiv:	
   695                           ; 2 bytes @ 0x0
   696                           
   697  0070                     ?___lwmod:	
   698                           ; 2 bytes @ 0x0
   699                           
   700  0070                     ?___aldiv:	
   701                           ; 2 bytes @ 0x0
   702                           
   703  0070                     lcd_wr@val:	
   704                           ; 4 bytes @ 0x0
   705                           
   706  0070                     __Umul8_16@multiplicand:	
   707                           ; 1 bytes @ 0x0
   708                           
   709  0070                     ___awdiv@divisor:	
   710                           ; 1 bytes @ 0x0
   711                           
   712  0070                     ___lwmod@divisor:	
   713                           ; 2 bytes @ 0x0
   714                           
   715  0070                     ___aldiv@divisor:	
   716                           ; 2 bytes @ 0x0
   717                           
   718                           
   719                           ; 4 bytes @ 0x0
   720  0070                     	ds	1
   721  0071                     ??_lcd_cmd:
   722  0071                     ??_lcd_dat:	
   723                           ; 1 bytes @ 0x1
   724                           
   725  0071                     lcd_cmd@val:	
   726                           ; 1 bytes @ 0x1
   727                           
   728  0071                     lcd_dat@val:	
   729                           ; 1 bytes @ 0x1
   730                           
   731                           
   732                           ; 1 bytes @ 0x1
   733  0071                     	ds	1
   734  0072                     ?_lcd_str:
   735  0072                     ??_lcd_init:	
   736                           ; 1 bytes @ 0x2
   737                           
   738  0072                     ??__Umul8_16:	
   739                           ; 1 bytes @ 0x2
   740                           
   741  0072                     ??_ADC_Read:	
   742                           ; 1 bytes @ 0x2
   743                           
   744  0072                     lcd_str@str:	
   745                           ; 1 bytes @ 0x2
   746                           
   747  0072                     ___awdiv@dividend:	
   748                           ; 2 bytes @ 0x2
   749                           
   750  0072                     ___lwmod@dividend:	
   751                           ; 2 bytes @ 0x2
   752                           
   753                           
   754                           ; 2 bytes @ 0x2
   755  0072                     	ds	2
   756  0074                     ??_lcd_str:
   757  0074                     ??___awdiv:	
   758                           ; 1 bytes @ 0x4
   759                           
   760  0074                     ??___lwmod:	
   761                           ; 1 bytes @ 0x4
   762                           
   763  0074                     ADC_Read@channel:	
   764                           ; 1 bytes @ 0x4
   765                           
   766  0074                     __Umul8_16@product:	
   767                           ; 1 bytes @ 0x4
   768                           
   769  0074                     ___aldiv@dividend:	
   770                           ; 2 bytes @ 0x4
   771                           
   772                           
   773                           ; 4 bytes @ 0x4
   774  0074                     	ds	1
   775  0075                     ?___wmul:
   776  0075                     lcd_str@i:	
   777                           ; 2 bytes @ 0x5
   778                           
   779  0075                     ___awdiv@counter:	
   780                           ; 1 bytes @ 0x5
   781                           
   782  0075                     ___lwmod@counter:	
   783                           ; 1 bytes @ 0x5
   784                           
   785  0075                     ___wmul@multiplier:	
   786                           ; 1 bytes @ 0x5
   787                           
   788                           
   789                           ; 2 bytes @ 0x5
   790  0075                     	ds	1
   791  0076                     ?___lwdiv:
   792  0076                     ___awdiv@sign:	
   793                           ; 2 bytes @ 0x6
   794                           
   795  0076                     ___lwdiv@divisor:	
   796                           ; 1 bytes @ 0x6
   797                           
   798  0076                     __Umul8_16@word_mpld:	
   799                           ; 2 bytes @ 0x6
   800                           
   801                           
   802                           ; 2 bytes @ 0x6
   803  0076                     	ds	1
   804  0077                     ___wmul@multiplicand:
   805  0077                     ___awdiv@quotient:	
   806                           ; 2 bytes @ 0x7
   807                           
   808                           
   809                           ; 2 bytes @ 0x7
   810  0077                     	ds	1
   811  0078                     ??___aldiv:
   812  0078                     __Umul8_16@multiplier:	
   813                           ; 1 bytes @ 0x8
   814                           
   815  0078                     ___lwdiv@dividend:	
   816                           ; 1 bytes @ 0x8
   817                           
   818                           
   819                           ; 2 bytes @ 0x8
   820  0078                     	ds	1
   821  0079                     ??_PWM_Init:
   822  0079                     ??___wmul:	
   823                           ; 1 bytes @ 0x9
   824                           
   825  0079                     ??___fltol:	
   826                           ; 1 bytes @ 0x9
   827                           
   828  0079                     ___wmul@product:	
   829                           ; 1 bytes @ 0x9
   830                           
   831                           
   832                           ; 2 bytes @ 0x9
   833  0079                     	ds	1
   834  007A                     ??___lwdiv:
   835                           
   836                           ; 1 bytes @ 0xA
   837  007A                     	ds	1
   838  007B                     ___lwdiv@quotient:
   839                           
   840                           ; 2 bytes @ 0xB
   841  007B                     	ds	2
   842  007D                     ___lwdiv@counter:
   843                           
   844                           ; 1 bytes @ 0xD
   845  007D                     	ds	1
   846  007E                     ??_controleMaximoMinimo:
   847  007E                     ??_iniciarLcd:	
   848                           ; 1 bytes @ 0xE
   849                           
   850                           
   851                           	psect	cstackBANK0
   852  0020                     __pcstackBANK0:	
   853                           ; 1 bytes @ 0xE
   854                           
   855  0020                     ?_sprintf:
   856  0020                     ___aldiv@counter:	
   857                           ; 2 bytes @ 0x0
   858                           
   859  0020                     sprintf@sp:	
   860                           ; 1 bytes @ 0x0
   861                           
   862                           
   863                           ; 2 bytes @ 0x0
   864  0020                     	ds	1
   865  0021                     ___aldiv@sign:
   866                           
   867                           ; 1 bytes @ 0x1
   868  0021                     	ds	1
   869  0022                     sprintf@f:
   870  0022                     ___aldiv@quotient:	
   871                           ; 1 bytes @ 0x2
   872                           
   873                           
   874                           ; 4 bytes @ 0x2
   875  0022                     	ds	3
   876  0025                     ??_sprintf:
   877                           
   878                           ; 1 bytes @ 0x5
   879  0025                     	ds	1
   880  0026                     ?_PWM_Init:
   881  0026                     ?___fltol:	
   882                           ; 1 bytes @ 0x6
   883                           
   884  0026                     PWM_Init@freq:	
   885                           ; 4 bytes @ 0x6
   886                           
   887  0026                     ___fltol@f1:	
   888                           ; 4 bytes @ 0x6
   889                           
   890                           
   891                           ; 4 bytes @ 0x6
   892  0026                     	ds	2
   893  0028                     sprintf@ap:
   894                           
   895                           ; 1 bytes @ 0x8
   896  0028                     	ds	1
   897  0029                     sprintf@flag:
   898                           
   899                           ; 1 bytes @ 0x9
   900  0029                     	ds	1
   901  002A                     sprintf@prec:
   902  002A                     ___fltol@sign1:	
   903                           ; 1 bytes @ 0xA
   904                           
   905                           
   906                           ; 1 bytes @ 0xA
   907  002A                     	ds	1
   908  002B                     ___fltol@exp1:
   909  002B                     sprintf@val:	
   910                           ; 1 bytes @ 0xB
   911                           
   912                           
   913                           ; 2 bytes @ 0xB
   914  002B                     	ds	1
   915  002C                     ?_controleMaximoMinimo:
   916  002C                     controleMaximoMinimo@valor:	
   917                           ; 2 bytes @ 0xC
   918                           
   919                           
   920                           ; 2 bytes @ 0xC
   921  002C                     	ds	1
   922  002D                     sprintf@c:
   923                           
   924                           ; 1 bytes @ 0xD
   925  002D                     	ds	1
   926  002E                     ?_imprimirTemperatura:
   927  002E                     ?___xxtofl:	
   928                           ; 1 bytes @ 0xE
   929                           
   930  002E                     imprimirTemperatura@tempSet:	
   931                           ; 4 bytes @ 0xE
   932                           
   933  002E                     ___xxtofl@val:	
   934                           ; 2 bytes @ 0xE
   935                           
   936                           
   937                           ; 4 bytes @ 0xE
   938  002E                     	ds	2
   939  0030                     ??_imprimirTemperatura:
   940                           
   941                           ; 1 bytes @ 0x10
   942  0030                     	ds	1
   943  0031                     imprimirTemperatura@milhar:
   944                           
   945                           ; 2 bytes @ 0x11
   946  0031                     	ds	1
   947  0032                     ??___xxtofl:
   948                           
   949                           ; 1 bytes @ 0x12
   950  0032                     	ds	1
   951  0033                     imprimirTemperatura@centena:
   952                           
   953                           ; 2 bytes @ 0x13
   954  0033                     	ds	2
   955  0035                     imprimirTemperatura@dezena:
   956                           
   957                           ; 2 bytes @ 0x15
   958  0035                     	ds	1
   959  0036                     ___xxtofl@sign:
   960                           
   961                           ; 1 bytes @ 0x16
   962  0036                     	ds	1
   963  0037                     ___xxtofl@exp:
   964  0037                     _imprimirTemperatura$840:	
   965                           ; 1 bytes @ 0x17
   966                           
   967                           
   968                           ; 2 bytes @ 0x17
   969  0037                     	ds	1
   970  0038                     ___xxtofl@arg:
   971                           
   972                           ; 4 bytes @ 0x18
   973  0038                     	ds	1
   974  0039                     ??_imprimirValoresLcd:
   975                           
   976                           ; 1 bytes @ 0x19
   977  0039                     	ds	3
   978  003C                     ?___fldiv:
   979  003C                     ___fldiv@a:	
   980                           ; 4 bytes @ 0x1C
   981                           
   982                           
   983                           ; 4 bytes @ 0x1C
   984  003C                     	ds	4
   985  0040                     ___fldiv@b:
   986                           
   987                           ; 4 bytes @ 0x20
   988  0040                     	ds	4
   989  0044                     ??___fldiv:
   990                           
   991                           ; 1 bytes @ 0x24
   992  0044                     	ds	5
   993  0049                     ___fldiv@rem:
   994                           
   995                           ; 4 bytes @ 0x29
   996  0049                     	ds	4
   997  004D                     ___fldiv@sign:
   998                           
   999                           ; 1 bytes @ 0x2D
  1000  004D                     	ds	1
  1001  004E                     ___fldiv@new_exp:
  1002                           
  1003                           ; 2 bytes @ 0x2E
  1004  004E                     	ds	2
  1005  0050                     ___fldiv@grs:
  1006                           
  1007                           ; 4 bytes @ 0x30
  1008  0050                     	ds	4
  1009  0054                     ___fldiv@bexp:
  1010                           
  1011                           ; 1 bytes @ 0x34
  1012  0054                     	ds	1
  1013  0055                     ___fldiv@aexp:
  1014                           
  1015                           ; 1 bytes @ 0x35
  1016  0055                     	ds	1
  1017  0056                     ?___flmul:
  1018  0056                     ___flmul@b:	
  1019                           ; 4 bytes @ 0x36
  1020                           
  1021                           
  1022                           ; 4 bytes @ 0x36
  1023  0056                     	ds	4
  1024  005A                     ___flmul@a:
  1025                           
  1026                           ; 4 bytes @ 0x3A
  1027  005A                     	ds	4
  1028  005E                     ??___flmul:
  1029                           
  1030                           ; 1 bytes @ 0x3E
  1031  005E                     	ds	5
  1032  0063                     ___flmul@sign:
  1033                           
  1034                           ; 1 bytes @ 0x43
  1035  0063                     	ds	1
  1036  0064                     ___flmul@grs:
  1037                           
  1038                           ; 4 bytes @ 0x44
  1039  0064                     	ds	4
  1040  0068                     ___flmul@aexp:
  1041                           
  1042                           ; 1 bytes @ 0x48
  1043  0068                     	ds	1
  1044  0069                     ___flmul@bexp:
  1045                           
  1046                           ; 1 bytes @ 0x49
  1047  0069                     	ds	1
  1048  006A                     ___flmul@prod:
  1049                           
  1050                           ; 4 bytes @ 0x4A
  1051  006A                     	ds	4
  1052  006E                     ___flmul@temp:
  1053                           
  1054                           ; 2 bytes @ 0x4E
  1055  006E                     	ds	2
  1056                           
  1057                           	psect	maintext
  1058  00C5                     __pmaintext:	
  1059 ;;
  1060 ;;Main: autosize = 0, tempsize = 2, incstack = 0, save=0
  1061 ;;
  1062 ;; *************** function _main *****************
  1063 ;; Defined at:
  1064 ;;		line 152 in file "main.c"
  1065 ;; Parameters:    Size  Location     Type
  1066 ;;		None
  1067 ;; Auto vars:     Size  Location     Type
  1068 ;;  up              4   14[BANK1 ] float 
  1069 ;;  erro            4    8[BANK1 ] float 
  1070 ;;  cooler          2   18[BANK1 ] int 
  1071 ;; Return value:  Size  Location     Type
  1072 ;;                  1    wreg      void 
  1073 ;; Registers used:
  1074 ;;		wreg, fsr0l, fsr0h, status,2, status,0, btemp+1, pclath, cstack
  1075 ;; Tracked objects:
  1076 ;;		On entry : B00/0
  1077 ;;		On exit  : 0/0
  1078 ;;		Unchanged: 0/0
  1079 ;; Data sizes:     COMMON   BANK0   BANK1   BANK3   BANK2
  1080 ;;      Params:         0       0       0       0       0
  1081 ;;      Locals:         0       0      12       0       0
  1082 ;;      Temps:          0       0       2       0       0
  1083 ;;      Totals:         0       0      14       0       0
  1084 ;;Total ram usage:       14 bytes
  1085 ;; Hardware stack levels required when called: 6
  1086 ;; This function calls:
  1087 ;;		_ADC_Init
  1088 ;;		_ADC_Read
  1089 ;;		_PWM1_Duty
  1090 ;;		_PWM1_Start
  1091 ;;		_PWM2_Duty
  1092 ;;		_PWM2_Start
  1093 ;;		___awdiv
  1094 ;;		___flmul
  1095 ;;		___fltol
  1096 ;;		___wmul
  1097 ;;		___xxtofl
  1098 ;;		_controlarValores
  1099 ;;		_controleMaximoMinimo
  1100 ;;		_imprimirValoresLcd
  1101 ;;		_iniciarLcd
  1102 ;; This function is called by:
  1103 ;;		Startup code after reset
  1104 ;; This function uses a non-reentrant model
  1105 ;;
  1106                           
  1107                           
  1108                           ;psect for function _main
  1109  00C5                     _main:
  1110  00C5                     l2458:	
  1111                           ;incstack = 0
  1112                           ; Regs used in _main: [wreg-fsr0h+status,2+status,0+btemp+1+pclath+cstack]
  1113                           
  1114                           
  1115                           ;main.c: 153:     TRISA = 0xFF;
  1116  00C5  30FF               	movlw	255
  1117  00C6  1683               	bsf	3,5	;RP0=1, select bank1
  1118  00C7  1303               	bcf	3,6	;RP1=0, select bank1
  1119  00C8  0085               	movwf	5	;volatile
  1120                           
  1121                           ;main.c: 154:     TRISB = 0x0F;
  1122  00C9  300F               	movlw	15
  1123  00CA  0086               	movwf	6	;volatile
  1124  00CB                     l2460:
  1125                           
  1126                           ;main.c: 155:     TRISC = 0x00;
  1127  00CB  0187               	clrf	7	;volatile
  1128  00CC                     l2462:
  1129                           
  1130                           ;main.c: 156:     TRISD = 0x00;
  1131  00CC  0188               	clrf	8	;volatile
  1132  00CD                     l2464:
  1133                           
  1134                           ;main.c: 157:     TRISE = 0x00;
  1135  00CD  0189               	clrf	9	;volatile
  1136  00CE                     l2466:
  1137                           
  1138                           ;main.c: 158:     int cooler;;main.c: 159:     float erro;;main.c: 160:     float up;;ma
      +                          in.c: 162:     ADC_Init();
  1139  00CE  160A  118A  27B7  120A  118A  	fcall	_ADC_Init
  1140  00D3                     l2468:
  1141                           
  1142                           ;main.c: 163:     PWM1_Start();
  1143  00D3  160A  118A  27C0  120A  118A  	fcall	_PWM1_Start
  1144  00D8                     l2470:
  1145                           
  1146                           ;main.c: 164:     PWM2_Start();
  1147  00D8  160A  118A  27C9  120A  118A  	fcall	_PWM2_Start
  1148  00DD                     l2472:
  1149                           
  1150                           ;main.c: 165:     iniciarLcd();
  1151  00DD  120A  158A  2192  120A  118A  	fcall	_iniciarLcd
  1152  00E2                     l2474:
  1153                           
  1154                           ;main.c: 168:         controlarValores();
  1155  00E2  120A  158A  2405  120A  118A  	fcall	_controlarValores
  1156  00E7                     l2476:
  1157                           
  1158                           ;main.c: 169:         temperatura = (ADC_Read(0)*10/8 - 150);
  1159  00E7  3000               	movlw	0
  1160  00E8  120A  158A  20B7  120A  118A  	fcall	_ADC_Read
  1161  00ED  0871               	movf	?_ADC_Read+1,w
  1162  00EE  00F6               	movwf	___wmul@multiplier+1
  1163  00EF  0870               	movf	?_ADC_Read,w
  1164  00F0  00F5               	movwf	___wmul@multiplier
  1165  00F1  300A               	movlw	10
  1166  00F2  00F7               	movwf	___wmul@multiplicand
  1167  00F3  3000               	movlw	0
  1168  00F4  00F8               	movwf	___wmul@multiplicand+1
  1169  00F5  120A  158A  2040  120A  118A  	fcall	___wmul
  1170  00FA  0875               	movf	?___wmul,w
  1171  00FB  1683               	bsf	3,5	;RP0=1, select bank1
  1172  00FC  1303               	bcf	3,6	;RP1=0, select bank1
  1173  00FD  00D4               	movwf	??_main^(0+128)
  1174  00FE  0876               	movf	?___wmul+1,w
  1175  00FF  00D5               	movwf	(??_main^(0+128)+1)
  1176  0100  1003               	clrc
  1177  0101  0CD5               	rrf	(??_main^(0+128)+1),f
  1178  0102  0CD4               	rrf	??_main^(0+128),f
  1179  0103  1003               	clrc
  1180  0104  0CD5               	rrf	(??_main^(0+128)+1),f
  1181  0105  0CD4               	rrf	??_main^(0+128),f
  1182  0106  1003               	clrc
  1183  0107  0CD5               	rrf	(??_main^(0+128)+1),f
  1184  0108  0CD4               	rrf	??_main^(0+128),f
  1185  0109  0854               	movf	??_main^(0+128),w
  1186  010A  3E6A               	addlw	106
  1187  010B  00A4               	movwf	_temperatura^(0+128)
  1188  010C  0855               	movf	(??_main+1)^(0+128),w
  1189  010D  1803               	skipnc
  1190  010E  3E01               	addlw	1
  1191  010F  3EFF               	addlw	255
  1192  0110  00A5               	movwf	(_temperatura+1)^(0+128)
  1193  0111                     l2478:
  1194                           
  1195                           ;main.c: 170:         cooler = (unsigned int)ADC_Read(1);
  1196  0111  3001               	movlw	1
  1197  0112  120A  158A  20B7  120A  118A  	fcall	_ADC_Read
  1198  0117  0871               	movf	?_ADC_Read+1,w
  1199  0118  1683               	bsf	3,5	;RP0=1, select bank1
  1200  0119  1303               	bcf	3,6	;RP1=0, select bank1
  1201  011A  00E1               	movwf	(main@cooler+1)^(0+128)
  1202  011B  0870               	movf	?_ADC_Read,w
  1203  011C  00E0               	movwf	main@cooler^(0+128)
  1204  011D                     l2480:
  1205                           
  1206                           ;main.c: 171:         erro = (setPoint/10) - temperatura;
  1207  011D  0865               	movf	(_setPoint+1)^(0+128),w
  1208  011E  00F3               	movwf	___awdiv@dividend+1
  1209  011F  0864               	movf	_setPoint^(0+128),w
  1210  0120  00F2               	movwf	___awdiv@dividend
  1211  0121  300A               	movlw	10
  1212  0122  00F0               	movwf	___awdiv@divisor
  1213  0123  3000               	movlw	0
  1214  0124  00F1               	movwf	___awdiv@divisor+1
  1215  0125  120A  158A  2216  120A  118A  	fcall	___awdiv
  1216  012A  1683               	bsf	3,5	;RP0=1, select bank1
  1217  012B  1303               	bcf	3,6	;RP1=0, select bank1
  1218  012C  0824               	movf	_temperatura^(0+128),w
  1219  012D  0270               	subwf	?___awdiv,w
  1220  012E  00D4               	movwf	??_main^(0+128)
  1221  012F  0825               	movf	(_temperatura+1)^(0+128),w
  1222  0130  1C03               	skipc
  1223  0131  0A25               	incf	(_temperatura+1)^(0+128),w
  1224  0132  0271               	subwf	?___awdiv+1,w
  1225  0133  00D5               	movwf	(??_main+1)^(0+128)
  1226  0134  0854               	movf	??_main^(0+128),w
  1227  0135  1283               	bcf	3,5	;RP0=0, select bank0
  1228  0136  1303               	bcf	3,6	;RP1=0, select bank0
  1229  0137  00AE               	movwf	___xxtofl@val
  1230  0138  1683               	bsf	3,5	;RP0=1, select bank1
  1231  0139  1303               	bcf	3,6	;RP1=0, select bank1
  1232  013A  0855               	movf	(??_main+1)^(0+128),w
  1233  013B  1283               	bcf	3,5	;RP0=0, select bank0
  1234  013C  1303               	bcf	3,6	;RP1=0, select bank0
  1235  013D  00AF               	movwf	___xxtofl@val+1
  1236  013E  3000               	movlw	0
  1237  013F  1BAF               	btfsc	___xxtofl@val+1,7
  1238  0140  30FF               	movlw	255
  1239  0141  00B0               	movwf	___xxtofl@val+2
  1240  0142  00B1               	movwf	___xxtofl@val+3
  1241  0143  3001               	movlw	1
  1242  0144  120A  118A  2009  120A  118A  	fcall	___xxtofl
  1243  0149  1283               	bcf	3,5	;RP0=0, select bank0
  1244  014A  1303               	bcf	3,6	;RP1=0, select bank0
  1245  014B  0831               	movf	?___xxtofl+3,w
  1246  014C  1683               	bsf	3,5	;RP0=1, select bank1
  1247  014D  1303               	bcf	3,6	;RP1=0, select bank1
  1248  014E  00D9               	movwf	(main@erro+3)^(0+128)
  1249  014F  1283               	bcf	3,5	;RP0=0, select bank0
  1250  0150  1303               	bcf	3,6	;RP1=0, select bank0
  1251  0151  0830               	movf	?___xxtofl+2,w
  1252  0152  1683               	bsf	3,5	;RP0=1, select bank1
  1253  0153  1303               	bcf	3,6	;RP1=0, select bank1
  1254  0154  00D8               	movwf	(main@erro+2)^(0+128)
  1255  0155  1283               	bcf	3,5	;RP0=0, select bank0
  1256  0156  1303               	bcf	3,6	;RP1=0, select bank0
  1257  0157  082F               	movf	?___xxtofl+1,w
  1258  0158  1683               	bsf	3,5	;RP0=1, select bank1
  1259  0159  1303               	bcf	3,6	;RP1=0, select bank1
  1260  015A  00D7               	movwf	(main@erro+1)^(0+128)
  1261  015B  1283               	bcf	3,5	;RP0=0, select bank0
  1262  015C  1303               	bcf	3,6	;RP1=0, select bank0
  1263  015D  082E               	movf	?___xxtofl,w
  1264  015E  1683               	bsf	3,5	;RP0=1, select bank1
  1265  015F  1303               	bcf	3,6	;RP1=0, select bank1
  1266  0160  00D6               	movwf	main@erro^(0+128)
  1267  0161                     l2482:
  1268                           
  1269                           ;main.c: 172:         up = kp * erro;
  1270  0161  0859               	movf	(main@erro+3)^(0+128),w
  1271  0162  1283               	bcf	3,5	;RP0=0, select bank0
  1272  0163  1303               	bcf	3,6	;RP1=0, select bank0
  1273  0164  00D9               	movwf	___flmul@b+3
  1274  0165  1683               	bsf	3,5	;RP0=1, select bank1
  1275  0166  1303               	bcf	3,6	;RP1=0, select bank1
  1276  0167  0858               	movf	(main@erro+2)^(0+128),w
  1277  0168  1283               	bcf	3,5	;RP0=0, select bank0
  1278  0169  1303               	bcf	3,6	;RP1=0, select bank0
  1279  016A  00D8               	movwf	___flmul@b+2
  1280  016B  1683               	bsf	3,5	;RP0=1, select bank1
  1281  016C  1303               	bcf	3,6	;RP1=0, select bank1
  1282  016D  0857               	movf	(main@erro+1)^(0+128),w
  1283  016E  1283               	bcf	3,5	;RP0=0, select bank0
  1284  016F  1303               	bcf	3,6	;RP1=0, select bank0
  1285  0170  00D7               	movwf	___flmul@b+1
  1286  0171  1683               	bsf	3,5	;RP0=1, select bank1
  1287  0172  1303               	bcf	3,6	;RP1=0, select bank1
  1288  0173  0856               	movf	main@erro^(0+128),w
  1289  0174  1283               	bcf	3,5	;RP0=0, select bank0
  1290  0175  1303               	bcf	3,6	;RP1=0, select bank0
  1291  0176  00D6               	movwf	___flmul@b
  1292  0177  1683               	bsf	3,5	;RP0=1, select bank1
  1293  0178  1303               	bcf	3,6	;RP1=0, select bank1
  1294  0179  0862               	movf	_kp^(0+128),w
  1295  017A  1283               	bcf	3,5	;RP0=0, select bank0
  1296  017B  1303               	bcf	3,6	;RP1=0, select bank0
  1297  017C  00AE               	movwf	___xxtofl@val
  1298  017D  1683               	bsf	3,5	;RP0=1, select bank1
  1299  017E  1303               	bcf	3,6	;RP1=0, select bank1
  1300  017F  0863               	movf	(_kp+1)^(0+128),w
  1301  0180  1283               	bcf	3,5	;RP0=0, select bank0
  1302  0181  1303               	bcf	3,6	;RP1=0, select bank0
  1303  0182  00AF               	movwf	___xxtofl@val+1
  1304  0183  3000               	movlw	0
  1305  0184  1BAF               	btfsc	___xxtofl@val+1,7
  1306  0185  30FF               	movlw	255
  1307  0186  00B0               	movwf	___xxtofl@val+2
  1308  0187  00B1               	movwf	___xxtofl@val+3
  1309  0188  3001               	movlw	1
  1310  0189  120A  118A  2009  120A  118A  	fcall	___xxtofl
  1311  018E  1283               	bcf	3,5	;RP0=0, select bank0
  1312  018F  1303               	bcf	3,6	;RP1=0, select bank0
  1313  0190  0831               	movf	?___xxtofl+3,w
  1314  0191  00DD               	movwf	___flmul@a+3
  1315  0192  0830               	movf	?___xxtofl+2,w
  1316  0193  00DC               	movwf	___flmul@a+2
  1317  0194  082F               	movf	?___xxtofl+1,w
  1318  0195  00DB               	movwf	___flmul@a+1
  1319  0196  082E               	movf	?___xxtofl,w
  1320  0197  00DA               	movwf	___flmul@a
  1321  0198  120A  118A  2463  120A  118A  	fcall	___flmul
  1322  019D  1283               	bcf	3,5	;RP0=0, select bank0
  1323  019E  1303               	bcf	3,6	;RP1=0, select bank0
  1324  019F  0859               	movf	?___flmul+3,w
  1325  01A0  1683               	bsf	3,5	;RP0=1, select bank1
  1326  01A1  1303               	bcf	3,6	;RP1=0, select bank1
  1327  01A2  00DF               	movwf	(main@up+3)^(0+128)
  1328  01A3  1283               	bcf	3,5	;RP0=0, select bank0
  1329  01A4  1303               	bcf	3,6	;RP1=0, select bank0
  1330  01A5  0858               	movf	?___flmul+2,w
  1331  01A6  1683               	bsf	3,5	;RP0=1, select bank1
  1332  01A7  1303               	bcf	3,6	;RP1=0, select bank1
  1333  01A8  00DE               	movwf	(main@up+2)^(0+128)
  1334  01A9  1283               	bcf	3,5	;RP0=0, select bank0
  1335  01AA  1303               	bcf	3,6	;RP1=0, select bank0
  1336  01AB  0857               	movf	?___flmul+1,w
  1337  01AC  1683               	bsf	3,5	;RP0=1, select bank1
  1338  01AD  1303               	bcf	3,6	;RP1=0, select bank1
  1339  01AE  00DD               	movwf	(main@up+1)^(0+128)
  1340  01AF  1283               	bcf	3,5	;RP0=0, select bank0
  1341  01B0  1303               	bcf	3,6	;RP1=0, select bank0
  1342  01B1  0856               	movf	?___flmul,w
  1343  01B2  1683               	bsf	3,5	;RP0=1, select bank1
  1344  01B3  1303               	bcf	3,6	;RP1=0, select bank1
  1345  01B4  00DC               	movwf	main@up^(0+128)
  1346  01B5                     l2484:
  1347                           
  1348                           ;main.c: 174:         cooler = controleMaximoMinimo(cooler);
  1349  01B5  0861               	movf	(main@cooler+1)^(0+128),w
  1350  01B6  1283               	bcf	3,5	;RP0=0, select bank0
  1351  01B7  1303               	bcf	3,6	;RP1=0, select bank0
  1352  01B8  00AD               	movwf	controleMaximoMinimo@valor+1
  1353  01B9  1683               	bsf	3,5	;RP0=1, select bank1
  1354  01BA  1303               	bcf	3,6	;RP1=0, select bank1
  1355  01BB  0860               	movf	main@cooler^(0+128),w
  1356  01BC  1283               	bcf	3,5	;RP0=0, select bank0
  1357  01BD  1303               	bcf	3,6	;RP1=0, select bank0
  1358  01BE  00AC               	movwf	controleMaximoMinimo@valor
  1359  01BF  160A  118A  27E4  120A  118A  	fcall	_controleMaximoMinimo
  1360  01C4  1283               	bcf	3,5	;RP0=0, select bank0
  1361  01C5  1303               	bcf	3,6	;RP1=0, select bank0
  1362  01C6  082D               	movf	?_controleMaximoMinimo+1,w
  1363  01C7  1683               	bsf	3,5	;RP0=1, select bank1
  1364  01C8  1303               	bcf	3,6	;RP1=0, select bank1
  1365  01C9  00E1               	movwf	(main@cooler+1)^(0+128)
  1366  01CA  1283               	bcf	3,5	;RP0=0, select bank0
  1367  01CB  1303               	bcf	3,6	;RP1=0, select bank0
  1368  01CC  082C               	movf	?_controleMaximoMinimo,w
  1369  01CD  1683               	bsf	3,5	;RP0=1, select bank1
  1370  01CE  1303               	bcf	3,6	;RP1=0, select bank1
  1371  01CF  00E0               	movwf	main@cooler^(0+128)
  1372  01D0                     l2486:
  1373                           
  1374                           ;main.c: 175:         temperatura = controleMaximoMinimo(temperatura);
  1375  01D0  0825               	movf	(_temperatura+1)^(0+128),w
  1376  01D1  1283               	bcf	3,5	;RP0=0, select bank0
  1377  01D2  1303               	bcf	3,6	;RP1=0, select bank0
  1378  01D3  00AD               	movwf	controleMaximoMinimo@valor+1
  1379  01D4  1683               	bsf	3,5	;RP0=1, select bank1
  1380  01D5  1303               	bcf	3,6	;RP1=0, select bank1
  1381  01D6  0824               	movf	_temperatura^(0+128),w
  1382  01D7  1283               	bcf	3,5	;RP0=0, select bank0
  1383  01D8  1303               	bcf	3,6	;RP1=0, select bank0
  1384  01D9  00AC               	movwf	controleMaximoMinimo@valor
  1385  01DA  160A  118A  27E4  120A  118A  	fcall	_controleMaximoMinimo
  1386  01DF  1283               	bcf	3,5	;RP0=0, select bank0
  1387  01E0  1303               	bcf	3,6	;RP1=0, select bank0
  1388  01E1  082D               	movf	?_controleMaximoMinimo+1,w
  1389  01E2  1683               	bsf	3,5	;RP0=1, select bank1
  1390  01E3  1303               	bcf	3,6	;RP1=0, select bank1
  1391  01E4  00A5               	movwf	(_temperatura+1)^(0+128)
  1392  01E5  1283               	bcf	3,5	;RP0=0, select bank0
  1393  01E6  1303               	bcf	3,6	;RP1=0, select bank0
  1394  01E7  082C               	movf	?_controleMaximoMinimo,w
  1395  01E8  1683               	bsf	3,5	;RP0=1, select bank1
  1396  01E9  1303               	bcf	3,6	;RP1=0, select bank1
  1397  01EA  00A4               	movwf	_temperatura^(0+128)
  1398  01EB                     l2488:
  1399                           
  1400                           ;main.c: 176:         up = controleMaximoMinimo(up);
  1401  01EB  085F               	movf	(main@up+3)^(0+128),w
  1402  01EC  1283               	bcf	3,5	;RP0=0, select bank0
  1403  01ED  1303               	bcf	3,6	;RP1=0, select bank0
  1404  01EE  00A9               	movwf	___fltol@f1+3
  1405  01EF  1683               	bsf	3,5	;RP0=1, select bank1
  1406  01F0  1303               	bcf	3,6	;RP1=0, select bank1
  1407  01F1  085E               	movf	(main@up+2)^(0+128),w
  1408  01F2  1283               	bcf	3,5	;RP0=0, select bank0
  1409  01F3  1303               	bcf	3,6	;RP1=0, select bank0
  1410  01F4  00A8               	movwf	___fltol@f1+2
  1411  01F5  1683               	bsf	3,5	;RP0=1, select bank1
  1412  01F6  1303               	bcf	3,6	;RP1=0, select bank1
  1413  01F7  085D               	movf	(main@up+1)^(0+128),w
  1414  01F8  1283               	bcf	3,5	;RP0=0, select bank0
  1415  01F9  1303               	bcf	3,6	;RP1=0, select bank0
  1416  01FA  00A7               	movwf	___fltol@f1+1
  1417  01FB  1683               	bsf	3,5	;RP0=1, select bank1
  1418  01FC  1303               	bcf	3,6	;RP1=0, select bank1
  1419  01FD  085C               	movf	main@up^(0+128),w
  1420  01FE  1283               	bcf	3,5	;RP0=0, select bank0
  1421  01FF  1303               	bcf	3,6	;RP1=0, select bank0
  1422  0200  00A6               	movwf	___fltol@f1
  1423  0201  120A  158A  22EC  120A  118A  	fcall	___fltol
  1424  0206  1283               	bcf	3,5	;RP0=0, select bank0
  1425  0207  1303               	bcf	3,6	;RP1=0, select bank0
  1426  0208  0827               	movf	?___fltol+1,w
  1427  0209  00AD               	movwf	controleMaximoMinimo@valor+1
  1428  020A  0826               	movf	?___fltol,w
  1429  020B  00AC               	movwf	controleMaximoMinimo@valor
  1430  020C  160A  118A  27E4  120A  118A  	fcall	_controleMaximoMinimo
  1431  0211  1283               	bcf	3,5	;RP0=0, select bank0
  1432  0212  1303               	bcf	3,6	;RP1=0, select bank0
  1433  0213  082C               	movf	?_controleMaximoMinimo,w
  1434  0214  00AE               	movwf	___xxtofl@val
  1435  0215  082D               	movf	?_controleMaximoMinimo+1,w
  1436  0216  00AF               	movwf	___xxtofl@val+1
  1437  0217  3000               	movlw	0
  1438  0218  1BAF               	btfsc	___xxtofl@val+1,7
  1439  0219  30FF               	movlw	255
  1440  021A  00B0               	movwf	___xxtofl@val+2
  1441  021B  00B1               	movwf	___xxtofl@val+3
  1442  021C  3001               	movlw	1
  1443  021D  120A  118A  2009  120A  118A  	fcall	___xxtofl
  1444  0222  1283               	bcf	3,5	;RP0=0, select bank0
  1445  0223  1303               	bcf	3,6	;RP1=0, select bank0
  1446  0224  0831               	movf	?___xxtofl+3,w
  1447  0225  1683               	bsf	3,5	;RP0=1, select bank1
  1448  0226  1303               	bcf	3,6	;RP1=0, select bank1
  1449  0227  00DF               	movwf	(main@up+3)^(0+128)
  1450  0228  1283               	bcf	3,5	;RP0=0, select bank0
  1451  0229  1303               	bcf	3,6	;RP1=0, select bank0
  1452  022A  0830               	movf	?___xxtofl+2,w
  1453  022B  1683               	bsf	3,5	;RP0=1, select bank1
  1454  022C  1303               	bcf	3,6	;RP1=0, select bank1
  1455  022D  00DE               	movwf	(main@up+2)^(0+128)
  1456  022E  1283               	bcf	3,5	;RP0=0, select bank0
  1457  022F  1303               	bcf	3,6	;RP1=0, select bank0
  1458  0230  082F               	movf	?___xxtofl+1,w
  1459  0231  1683               	bsf	3,5	;RP0=1, select bank1
  1460  0232  1303               	bcf	3,6	;RP1=0, select bank1
  1461  0233  00DD               	movwf	(main@up+1)^(0+128)
  1462  0234  1283               	bcf	3,5	;RP0=0, select bank0
  1463  0235  1303               	bcf	3,6	;RP1=0, select bank0
  1464  0236  082E               	movf	?___xxtofl,w
  1465  0237  1683               	bsf	3,5	;RP0=1, select bank1
  1466  0238  1303               	bcf	3,6	;RP1=0, select bank1
  1467  0239  00DC               	movwf	main@up^(0+128)
  1468  023A                     l2490:
  1469                           
  1470                           ;main.c: 178:         PWM1_Duty(up, 4000);
  1471  023A  085F               	movf	(main@up+3)^(0+128),w
  1472  023B  1283               	bcf	3,5	;RP0=0, select bank0
  1473  023C  1303               	bcf	3,6	;RP1=0, select bank0
  1474  023D  00A9               	movwf	___fltol@f1+3
  1475  023E  1683               	bsf	3,5	;RP0=1, select bank1
  1476  023F  1303               	bcf	3,6	;RP1=0, select bank1
  1477  0240  085E               	movf	(main@up+2)^(0+128),w
  1478  0241  1283               	bcf	3,5	;RP0=0, select bank0
  1479  0242  1303               	bcf	3,6	;RP1=0, select bank0
  1480  0243  00A8               	movwf	___fltol@f1+2
  1481  0244  1683               	bsf	3,5	;RP0=1, select bank1
  1482  0245  1303               	bcf	3,6	;RP1=0, select bank1
  1483  0246  085D               	movf	(main@up+1)^(0+128),w
  1484  0247  1283               	bcf	3,5	;RP0=0, select bank0
  1485  0248  1303               	bcf	3,6	;RP1=0, select bank0
  1486  0249  00A7               	movwf	___fltol@f1+1
  1487  024A  1683               	bsf	3,5	;RP0=1, select bank1
  1488  024B  1303               	bcf	3,6	;RP1=0, select bank1
  1489  024C  085C               	movf	main@up^(0+128),w
  1490  024D  1283               	bcf	3,5	;RP0=0, select bank0
  1491  024E  1303               	bcf	3,6	;RP1=0, select bank0
  1492  024F  00A6               	movwf	___fltol@f1
  1493  0250  120A  158A  22EC  120A  118A  	fcall	___fltol
  1494  0255  1283               	bcf	3,5	;RP0=0, select bank0
  1495  0256  1303               	bcf	3,6	;RP1=0, select bank0
  1496  0257  0827               	movf	?___fltol+1,w
  1497  0258  1683               	bsf	3,5	;RP0=1, select bank1
  1498  0259  1303               	bcf	3,6	;RP1=0, select bank1
  1499  025A  00DB               	movwf	(_main$841+1)^(0+128)
  1500  025B  1283               	bcf	3,5	;RP0=0, select bank0
  1501  025C  1303               	bcf	3,6	;RP1=0, select bank0
  1502  025D  0826               	movf	?___fltol,w
  1503  025E  1683               	bsf	3,5	;RP0=1, select bank1
  1504  025F  1303               	bcf	3,6	;RP1=0, select bank1
  1505  0260  00DA               	movwf	_main$841^(0+128)
  1506  0261                     l2492:
  1507                           
  1508                           ;main.c: 178:         PWM1_Duty(up, 4000);
  1509  0261  085B               	movf	(_main$841+1)^(0+128),w
  1510  0262  00CF               	movwf	(PWM1_Duty@duty+1)^(0+128)
  1511  0263  085A               	movf	_main$841^(0+128),w
  1512  0264  00CE               	movwf	PWM1_Duty@duty^(0+128)
  1513  0265  30A0               	movlw	160
  1514  0266  00D0               	movwf	PWM1_Duty@freq^(0+128)
  1515  0267  300F               	movlw	15
  1516  0268  00D1               	movwf	(PWM1_Duty@freq^(0+128)+1)
  1517  0269  120A  158A  24A6  120A  118A  	fcall	_PWM1_Duty
  1518  026E                     l2494:
  1519                           
  1520                           ;main.c: 179:         PWM2_Duty(cooler, 4000);
  1521  026E  1683               	bsf	3,5	;RP0=1, select bank1
  1522  026F  1303               	bcf	3,6	;RP1=0, select bank1
  1523  0270  0861               	movf	(main@cooler+1)^(0+128),w
  1524  0271  00CF               	movwf	(PWM2_Duty@duty+1)^(0+128)
  1525  0272  0860               	movf	main@cooler^(0+128),w
  1526  0273  00CE               	movwf	PWM2_Duty@duty^(0+128)
  1527  0274  30A0               	movlw	160
  1528  0275  00D0               	movwf	PWM2_Duty@freq^(0+128)
  1529  0276  300F               	movlw	15
  1530  0277  00D1               	movwf	(PWM2_Duty@freq^(0+128)+1)
  1531  0278  120A  158A  256E  120A  118A  	fcall	_PWM2_Duty
  1532  027D                     l2496:
  1533                           
  1534                           ;main.c: 180:         imprimirValoresLcd();
  1535  027D  120A  158A  227D  120A  118A  	fcall	_imprimirValoresLcd
  1536  0282  28E2               	goto	l2474
  1537  0283  120A  118A  2800   	ljmp	start
  1538  0286                     __end_of_main:
  1539                           
  1540                           	psect	text1
  1541  0992                     __ptext1:	
  1542 ;; *************** function _iniciarLcd *****************
  1543 ;; Defined at:
  1544 ;;		line 138 in file "main.c"
  1545 ;; Parameters:    Size  Location     Type
  1546 ;;		None
  1547 ;; Auto vars:     Size  Location     Type
  1548 ;;		None
  1549 ;; Return value:  Size  Location     Type
  1550 ;;                  1    wreg      void 
  1551 ;; Registers used:
  1552 ;;		wreg, fsr0l, fsr0h, status,2, status,0, btemp+1, pclath, cstack
  1553 ;; Tracked objects:
  1554 ;;		On entry : 0/0
  1555 ;;		On exit  : 0/0
  1556 ;;		Unchanged: 0/0
  1557 ;; Data sizes:     COMMON   BANK0   BANK1   BANK3   BANK2
  1558 ;;      Params:         0       0       0       0       0
  1559 ;;      Locals:         0       0       0       0       0
  1560 ;;      Temps:          0       0       0       0       0
  1561 ;;      Totals:         0       0       0       0       0
  1562 ;;Total ram usage:        0 bytes
  1563 ;; Hardware stack levels used: 1
  1564 ;; Hardware stack levels required when called: 5
  1565 ;; This function calls:
  1566 ;;		_imprimirValoresLcd
  1567 ;;		_lcd_cmd
  1568 ;;		_lcd_init
  1569 ;;		_lcd_str
  1570 ;; This function is called by:
  1571 ;;		_main
  1572 ;; This function uses a non-reentrant model
  1573 ;;
  1574                           
  1575                           
  1576                           ;psect for function _iniciarLcd
  1577  0992                     _iniciarLcd:
  1578  0992                     l2384:	
  1579                           ;incstack = 0
  1580                           ; Regs used in _iniciarLcd: [wreg-fsr0h+status,2+status,0+btemp+1+pclath+cstack]
  1581                           
  1582                           
  1583                           ;main.c: 139:     lcd_init();
  1584  0992  120A  158A  20EB  120A  158A  	fcall	_lcd_init
  1585                           
  1586                           ;main.c: 140:     lcd_cmd(0x80);
  1587  0997  3080               	movlw	128
  1588  0998  160A  118A  27D4  120A  158A  	fcall	_lcd_cmd
  1589  099D                     l2386:
  1590                           
  1591                           ;main.c: 141:     lcd_str("TEMP:");
  1592  099D  3011               	movlw	(low ((STR_7-__stringbase)| (0+32768)))& (0+255)
  1593  099E  00F2               	movwf	lcd_str@str
  1594  099F  3080               	movlw	128
  1595  09A0  00F3               	movwf	lcd_str@str+1
  1596  09A1  120A  158A  208C  120A  158A  	fcall	_lcd_str
  1597  09A6                     l2388:
  1598                           
  1599                           ;main.c: 142:     lcd_cmd(0xC0);
  1600  09A6  30C0               	movlw	192
  1601  09A7  160A  118A  27D4  120A  158A  	fcall	_lcd_cmd
  1602                           
  1603                           ;main.c: 143:     lcd_str("  KP:");
  1604  09AC  300B               	movlw	(low ((STR_8-__stringbase)| (0+32768)))& (0+255)
  1605  09AD  00F2               	movwf	lcd_str@str
  1606  09AE  3080               	movlw	128
  1607  09AF  00F3               	movwf	lcd_str@str+1
  1608  09B0  120A  158A  208C  120A  158A  	fcall	_lcd_str
  1609  09B5                     l2390:
  1610                           
  1611                           ;main.c: 144:     lcd_cmd(0x85);
  1612  09B5  3085               	movlw	133
  1613  09B6  160A  118A  27D4  120A  158A  	fcall	_lcd_cmd
  1614  09BB                     l2392:
  1615                           
  1616                           ;main.c: 146:     imprimirValoresLcd();
  1617  09BB  120A  158A  227D  120A  158A  	fcall	_imprimirValoresLcd
  1618  09C0                     l2394:
  1619                           
  1620                           ;main.c: 147:     menu = 2;
  1621  09C0  3002               	movlw	2
  1622  09C1  1683               	bsf	3,5	;RP0=1, select bank1
  1623  09C2  1303               	bcf	3,6	;RP1=0, select bank1
  1624  09C3  00E6               	movwf	_menu^(0+128)
  1625  09C4  3000               	movlw	0
  1626  09C5  00E7               	movwf	(_menu^(0+128)+1)
  1627  09C6                     l2396:
  1628                           
  1629                           ;main.c: 148:     imprimirValoresLcd();
  1630  09C6  120A  158A  227D  120A  158A  	fcall	_imprimirValoresLcd
  1631  09CB                     l2398:
  1632                           
  1633                           ;main.c: 149:     menu = 1;
  1634  09CB  3001               	movlw	1
  1635  09CC  1683               	bsf	3,5	;RP0=1, select bank1
  1636  09CD  1303               	bcf	3,6	;RP1=0, select bank1
  1637  09CE  00E6               	movwf	_menu^(0+128)
  1638  09CF  3000               	movlw	0
  1639  09D0  00E7               	movwf	(_menu^(0+128)+1)
  1640  09D1                     l180:
  1641  09D1  0008               	return
  1642  09D2                     __end_of_iniciarLcd:
  1643                           
  1644                           	psect	text2
  1645  08EB                     __ptext2:	
  1646 ;; *************** function _lcd_init *****************
  1647 ;; Defined at:
  1648 ;;		line 57 in file "lcd.c"
  1649 ;; Parameters:    Size  Location     Type
  1650 ;;		None
  1651 ;; Auto vars:     Size  Location     Type
  1652 ;;		None
  1653 ;; Return value:  Size  Location     Type
  1654 ;;                  1    wreg      void 
  1655 ;; Registers used:
  1656 ;;		wreg, status,2, status,0, pclath, cstack
  1657 ;; Tracked objects:
  1658 ;;		On entry : 0/0
  1659 ;;		On exit  : 0/0
  1660 ;;		Unchanged: 0/0
  1661 ;; Data sizes:     COMMON   BANK0   BANK1   BANK3   BANK2
  1662 ;;      Params:         0       0       0       0       0
  1663 ;;      Locals:         0       0       0       0       0
  1664 ;;      Temps:          0       0       0       0       0
  1665 ;;      Totals:         0       0       0       0       0
  1666 ;;Total ram usage:        0 bytes
  1667 ;; Hardware stack levels used: 1
  1668 ;; Hardware stack levels required when called: 2
  1669 ;; This function calls:
  1670 ;;		_lcd_cmd
  1671 ;; This function is called by:
  1672 ;;		_iniciarLcd
  1673 ;; This function uses a non-reentrant model
  1674 ;;
  1675                           
  1676                           
  1677                           ;psect for function _lcd_init
  1678  08EB                     _lcd_init:
  1679  08EB                     l1912:	
  1680                           ;incstack = 0
  1681                           ; Regs used in _lcd_init: [wreg+status,2+status,0+pclath+cstack]
  1682                           
  1683                           
  1684                           ;lcd.c: 59:  PORTEbits.RE1=0;
  1685  08EB  1283               	bcf	3,5	;RP0=0, select bank0
  1686  08EC  1303               	bcf	3,6	;RP1=0, select bank0
  1687  08ED  1089               	bcf	9,1	;volatile
  1688                           
  1689                           ;lcd.c: 60:  PORTEbits.RE0=0;
  1690  08EE  1009               	bcf	9,0	;volatile
  1691                           
  1692                           ;lcd.c: 62:  PORTEbits.RE1=1;
  1693  08EF  1489               	bsf	9,1	;volatile
  1694  08F0                     l1914:
  1695                           
  1696                           ;lcd.c: 64:  lcd_cmd(0x38);
  1697  08F0  3038               	movlw	56
  1698  08F1  160A  118A  27D4  120A  158A  	fcall	_lcd_cmd
  1699                           
  1700                           ;lcd.c: 66:  lcd_cmd(0x38);
  1701  08F6  3038               	movlw	56
  1702  08F7  160A  118A  27D4  120A  158A  	fcall	_lcd_cmd
  1703                           
  1704                           ;lcd.c: 68:  lcd_cmd(0x38);
  1705  08FC  3038               	movlw	56
  1706  08FD  160A  118A  27D4  120A  158A  	fcall	_lcd_cmd
  1707                           
  1708                           ;lcd.c: 69:  lcd_cmd(0x08);
  1709  0902  3008               	movlw	8
  1710  0903  160A  118A  27D4  120A  158A  	fcall	_lcd_cmd
  1711                           
  1712                           ;lcd.c: 70:  lcd_cmd(0x0F);
  1713  0908  300F               	movlw	15
  1714  0909  160A  118A  27D4  120A  158A  	fcall	_lcd_cmd
  1715                           
  1716                           ;lcd.c: 71:  lcd_cmd(0x01);
  1717  090E  3001               	movlw	1
  1718  090F  160A  118A  27D4  120A  158A  	fcall	_lcd_cmd
  1719                           
  1720                           ;lcd.c: 72:  lcd_cmd(0x38);
  1721  0914  3038               	movlw	56
  1722  0915  160A  118A  27D4  120A  158A  	fcall	_lcd_cmd
  1723                           
  1724                           ;lcd.c: 73:     lcd_cmd(0x80);
  1725  091A  3080               	movlw	128
  1726  091B  160A  118A  27D4  120A  158A  	fcall	_lcd_cmd
  1727  0920                     l204:
  1728  0920  0008               	return
  1729  0921                     __end_of_lcd_init:
  1730                           
  1731                           	psect	text3
  1732  0A7D                     __ptext3:	
  1733 ;; *************** function _imprimirValoresLcd *****************
  1734 ;; Defined at:
  1735 ;;		line 118 in file "main.c"
  1736 ;; Parameters:    Size  Location     Type
  1737 ;;		None
  1738 ;; Auto vars:     Size  Location     Type
  1739 ;;		None
  1740 ;; Return value:  Size  Location     Type
  1741 ;;                  1    wreg      void 
  1742 ;; Registers used:
  1743 ;;		wreg, fsr0l, fsr0h, status,2, status,0, btemp+1, pclath, cstack
  1744 ;; Tracked objects:
  1745 ;;		On entry : 0/0
  1746 ;;		On exit  : 0/0
  1747 ;;		Unchanged: 0/0
  1748 ;; Data sizes:     COMMON   BANK0   BANK1   BANK3   BANK2
  1749 ;;      Params:         0       0       0       0       0
  1750 ;;      Locals:         0       0       0       0       0
  1751 ;;      Temps:          0       1       0       0       0
  1752 ;;      Totals:         0       1       0       0       0
  1753 ;;Total ram usage:        1 bytes
  1754 ;; Hardware stack levels used: 1
  1755 ;; Hardware stack levels required when called: 4
  1756 ;; This function calls:
  1757 ;;		_imprimirTemperatura
  1758 ;;		_lcd_cmd
  1759 ;;		_lcd_str
  1760 ;;		_sprintf
  1761 ;; This function is called by:
  1762 ;;		_iniciarLcd
  1763 ;;		_main
  1764 ;; This function uses a non-reentrant model
  1765 ;;
  1766                           
  1767                           
  1768                           ;psect for function _imprimirValoresLcd
  1769  0A7D                     _imprimirValoresLcd:
  1770  0A7D                     l1890:	
  1771                           ;incstack = 0
  1772                           ; Regs used in _imprimirValoresLcd: [wreg-fsr0h+status,2+status,0+btemp+1+pclath+cstack]
  1773                           
  1774                           
  1775                           ;main.c: 119:     if (menu != 1){
  1776  0A7D  1683               	bsf	3,5	;RP0=1, select bank1
  1777  0A7E  1303               	bcf	3,6	;RP1=0, select bank1
  1778  0A7F  0366               	decf	_menu^(0+128),w
  1779  0A80  0467               	iorwf	(_menu+1)^(0+128),w
  1780  0A81  1903               	btfsc	3,2
  1781  0A82  2A84               	goto	u2051
  1782  0A83  2A85               	goto	u2050
  1783  0A84                     u2051:
  1784  0A84  2AAB               	goto	l1900
  1785  0A85                     u2050:
  1786  0A85                     l1892:
  1787                           
  1788                           ;main.c: 120:         if (setPoint != setPointReferencia){
  1789  0A85  0823               	movf	(_setPointReferencia+1)^(0+128),w
  1790  0A86  0665               	xorwf	(_setPoint+1)^(0+128),w
  1791  0A87  1D03               	skipz
  1792  0A88  2A8B               	goto	u2065
  1793  0A89  0822               	movf	_setPointReferencia^(0+128),w
  1794  0A8A  0664               	xorwf	_setPoint^(0+128),w
  1795  0A8B                     u2065:
  1796  0A8B  1903               	skipnz
  1797  0A8C  2A8E               	goto	u2061
  1798  0A8D  2A8F               	goto	u2060
  1799  0A8E                     u2061:
  1800  0A8E  2AA4               	goto	l1898
  1801  0A8F                     u2060:
  1802  0A8F                     l1894:
  1803                           
  1804                           ;main.c: 121:             imprimirTemperatura(setPoint);
  1805  0A8F  0865               	movf	(_setPoint+1)^(0+128),w
  1806  0A90  1283               	bcf	3,5	;RP0=0, select bank0
  1807  0A91  1303               	bcf	3,6	;RP1=0, select bank0
  1808  0A92  00AF               	movwf	imprimirTemperatura@tempSet+1
  1809  0A93  1683               	bsf	3,5	;RP0=1, select bank1
  1810  0A94  1303               	bcf	3,6	;RP1=0, select bank1
  1811  0A95  0864               	movf	_setPoint^(0+128),w
  1812  0A96  1283               	bcf	3,5	;RP0=0, select bank0
  1813  0A97  1303               	bcf	3,6	;RP1=0, select bank0
  1814  0A98  00AE               	movwf	imprimirTemperatura@tempSet
  1815  0A99  120A  158A  2636  120A  158A  	fcall	_imprimirTemperatura
  1816  0A9E                     l1896:
  1817                           
  1818                           ;main.c: 122:             setPointReferencia = setPoint;
  1819  0A9E  1683               	bsf	3,5	;RP0=1, select bank1
  1820  0A9F  1303               	bcf	3,6	;RP1=0, select bank1
  1821  0AA0  0865               	movf	(_setPoint+1)^(0+128),w
  1822  0AA1  00A3               	movwf	(_setPointReferencia+1)^(0+128)
  1823  0AA2  0864               	movf	_setPoint^(0+128),w
  1824  0AA3  00A2               	movwf	_setPointReferencia^(0+128)
  1825  0AA4                     l1898:
  1826                           
  1827                           ;main.c: 125:         lcd_cmd(0x89 +6);
  1828  0AA4  308F               	movlw	143
  1829  0AA5  160A  118A  27D4  120A  158A  	fcall	_lcd_cmd
  1830                           
  1831                           ;main.c: 126:     } else {
  1832  0AAA  2AEB               	goto	l177
  1833  0AAB                     l1900:
  1834                           
  1835                           ;main.c: 127:         if (kp != kpReferencia){
  1836  0AAB  0821               	movf	(_kpReferencia+1)^(0+128),w
  1837  0AAC  0663               	xorwf	(_kp+1)^(0+128),w
  1838  0AAD  1D03               	skipz
  1839  0AAE  2AB1               	goto	u2075
  1840  0AAF  0820               	movf	_kpReferencia^(0+128),w
  1841  0AB0  0662               	xorwf	_kp^(0+128),w
  1842  0AB1                     u2075:
  1843  0AB1  1903               	skipnz
  1844  0AB2  2AB4               	goto	u2071
  1845  0AB3  2AB5               	goto	u2070
  1846  0AB4                     u2071:
  1847  0AB4  2AE5               	goto	l1910
  1848  0AB5                     u2070:
  1849  0AB5                     l1902:
  1850                           
  1851                           ;main.c: 128:             lcd_cmd(0xC5);
  1852  0AB5  30C5               	movlw	197
  1853  0AB6  160A  118A  27D4  120A  158A  	fcall	_lcd_cmd
  1854  0ABB                     l1904:
  1855                           
  1856                           ;main.c: 129:             sprintf(kp_string, "%d", kp);
  1857  0ABB  3090               	movlw	(low (_kp_string| (0+256)))& (0+255)
  1858  0ABC  1283               	bcf	3,5	;RP0=0, select bank0
  1859  0ABD  1303               	bcf	3,6	;RP1=0, select bank0
  1860  0ABE  00A0               	movwf	sprintf@sp
  1861  0ABF  3001               	movlw	1
  1862  0AC0  00A1               	movwf	sprintf@sp+1
  1863  0AC1  301A               	movlw	(low ((STR_1-__stringbase)| (0+32768)))& (0+255)
  1864  0AC2  00B9               	movwf	??_imprimirValoresLcd
  1865  0AC3  0839               	movf	??_imprimirValoresLcd,w
  1866  0AC4  00A2               	movwf	sprintf@f
  1867  0AC5  1683               	bsf	3,5	;RP0=1, select bank1
  1868  0AC6  1303               	bcf	3,6	;RP1=0, select bank1
  1869  0AC7  0863               	movf	(_kp+1)^(0+128),w
  1870  0AC8  1283               	bcf	3,5	;RP0=0, select bank0
  1871  0AC9  1303               	bcf	3,6	;RP1=0, select bank0
  1872  0ACA  00A4               	movwf	?_sprintf+4
  1873  0ACB  1683               	bsf	3,5	;RP0=1, select bank1
  1874  0ACC  1303               	bcf	3,6	;RP1=0, select bank1
  1875  0ACD  0862               	movf	_kp^(0+128),w
  1876  0ACE  1283               	bcf	3,5	;RP0=0, select bank0
  1877  0ACF  1303               	bcf	3,6	;RP1=0, select bank0
  1878  0AD0  00A3               	movwf	?_sprintf+3
  1879  0AD1  120A  158A  270B  120A  158A  	fcall	_sprintf
  1880  0AD6                     l1906:
  1881                           
  1882                           ;main.c: 130:             lcd_str(kp_string);
  1883  0AD6  3090               	movlw	(low (_kp_string| (0+256)))& (0+255)
  1884  0AD7  00F2               	movwf	lcd_str@str
  1885  0AD8  3001               	movlw	1
  1886  0AD9  00F3               	movwf	lcd_str@str+1
  1887  0ADA  120A  158A  208C  120A  158A  	fcall	_lcd_str
  1888  0ADF                     l1908:
  1889                           
  1890                           ;main.c: 131:             kpReferencia = kp;
  1891  0ADF  1683               	bsf	3,5	;RP0=1, select bank1
  1892  0AE0  1303               	bcf	3,6	;RP1=0, select bank1
  1893  0AE1  0863               	movf	(_kp+1)^(0+128),w
  1894  0AE2  00A1               	movwf	(_kpReferencia+1)^(0+128)
  1895  0AE3  0862               	movf	_kp^(0+128),w
  1896  0AE4  00A0               	movwf	_kpReferencia^(0+128)
  1897  0AE5                     l1910:
  1898                           
  1899                           ;main.c: 134:         lcd_cmd(0xC9 +6);
  1900  0AE5  30CF               	movlw	207
  1901  0AE6  160A  118A  27D4  120A  158A  	fcall	_lcd_cmd
  1902  0AEB                     l177:
  1903  0AEB  0008               	return
  1904  0AEC                     __end_of_imprimirValoresLcd:
  1905                           
  1906                           	psect	text4
  1907  0E36                     __ptext4:	
  1908 ;; *************** function _imprimirTemperatura *****************
  1909 ;; Defined at:
  1910 ;;		line 34 in file "main.c"
  1911 ;; Parameters:    Size  Location     Type
  1912 ;;  tempSet         2   14[BANK0 ] unsigned int 
  1913 ;; Auto vars:     Size  Location     Type
  1914 ;;  dezena          2   21[BANK0 ] int 
  1915 ;;  centena         2   19[BANK0 ] int 
  1916 ;;  milhar          2   17[BANK0 ] int 
  1917 ;; Return value:  Size  Location     Type
  1918 ;;                  1    wreg      void 
  1919 ;; Registers used:
  1920 ;;		wreg, fsr0l, fsr0h, status,2, status,0, btemp+1, pclath, cstack
  1921 ;; Tracked objects:
  1922 ;;		On entry : 0/0
  1923 ;;		On exit  : 0/0
  1924 ;;		Unchanged: 0/0
  1925 ;; Data sizes:     COMMON   BANK0   BANK1   BANK3   BANK2
  1926 ;;      Params:         0       2       0       0       0
  1927 ;;      Locals:         0       8       0       0       0
  1928 ;;      Temps:          0       1       0       0       0
  1929 ;;      Totals:         0      11       0       0       0
  1930 ;;Total ram usage:       11 bytes
  1931 ;; Hardware stack levels used: 1
  1932 ;; Hardware stack levels required when called: 3
  1933 ;; This function calls:
  1934 ;;		___lwdiv
  1935 ;;		___lwmod
  1936 ;;		_lcd_cmd
  1937 ;;		_lcd_str
  1938 ;;		_sprintf
  1939 ;; This function is called by:
  1940 ;;		_imprimirValoresLcd
  1941 ;; This function uses a non-reentrant model
  1942 ;;
  1943                           
  1944                           
  1945                           ;psect for function _imprimirTemperatura
  1946  0E36                     _imprimirTemperatura:
  1947  0E36                     l1816:	
  1948                           ;incstack = 0
  1949                           ; Regs used in _imprimirTemperatura: [wreg-fsr0h+status,2+status,0+btemp+1+pclath+cstack
      +                          ]
  1950                           
  1951                           
  1952                           ;main.c: 35:     int milhar = tempSet/1000;
  1953  0E36  30E8               	movlw	232
  1954  0E37  00F6               	movwf	___lwdiv@divisor
  1955  0E38  3003               	movlw	3
  1956  0E39  00F7               	movwf	___lwdiv@divisor+1
  1957  0E3A  1283               	bcf	3,5	;RP0=0, select bank0
  1958  0E3B  1303               	bcf	3,6	;RP1=0, select bank0
  1959  0E3C  082F               	movf	imprimirTemperatura@tempSet+1,w
  1960  0E3D  00F9               	movwf	___lwdiv@dividend+1
  1961  0E3E  082E               	movf	imprimirTemperatura@tempSet,w
  1962  0E3F  00F8               	movwf	___lwdiv@dividend
  1963  0E40  120A  158A  21D2  120A  158A  	fcall	___lwdiv
  1964  0E45  0877               	movf	?___lwdiv+1,w
  1965  0E46  1283               	bcf	3,5	;RP0=0, select bank0
  1966  0E47  1303               	bcf	3,6	;RP1=0, select bank0
  1967  0E48  00B2               	movwf	imprimirTemperatura@milhar+1
  1968  0E49  0876               	movf	?___lwdiv,w
  1969  0E4A  00B1               	movwf	imprimirTemperatura@milhar
  1970                           
  1971                           ;main.c: 36:     int centena = (tempSet%1000)/100;
  1972  0E4B  3064               	movlw	100
  1973  0E4C  00F6               	movwf	___lwdiv@divisor
  1974  0E4D  3000               	movlw	0
  1975  0E4E  00F7               	movwf	___lwdiv@divisor+1
  1976  0E4F  082F               	movf	imprimirTemperatura@tempSet+1,w
  1977  0E50  00F3               	movwf	___lwmod@dividend+1
  1978  0E51  082E               	movf	imprimirTemperatura@tempSet,w
  1979  0E52  00F2               	movwf	___lwmod@dividend
  1980  0E53  30E8               	movlw	232
  1981  0E54  00F0               	movwf	___lwmod@divisor
  1982  0E55  3003               	movlw	3
  1983  0E56  00F1               	movwf	___lwmod@divisor+1
  1984  0E57  120A  158A  2158  120A  158A  	fcall	___lwmod
  1985  0E5C  0871               	movf	?___lwmod+1,w
  1986  0E5D  00F9               	movwf	___lwdiv@dividend+1
  1987  0E5E  0870               	movf	?___lwmod,w
  1988  0E5F  00F8               	movwf	___lwdiv@dividend
  1989  0E60  120A  158A  21D2  120A  158A  	fcall	___lwdiv
  1990  0E65  0877               	movf	?___lwdiv+1,w
  1991  0E66  1283               	bcf	3,5	;RP0=0, select bank0
  1992  0E67  1303               	bcf	3,6	;RP1=0, select bank0
  1993  0E68  00B4               	movwf	imprimirTemperatura@centena+1
  1994  0E69  0876               	movf	?___lwdiv,w
  1995  0E6A  00B3               	movwf	imprimirTemperatura@centena
  1996                           
  1997                           ;main.c: 37:     int dezena = ((tempSet%1000)%100)/10;
  1998  0E6B  082F               	movf	imprimirTemperatura@tempSet+1,w
  1999  0E6C  00F3               	movwf	___lwmod@dividend+1
  2000  0E6D  082E               	movf	imprimirTemperatura@tempSet,w
  2001  0E6E  00F2               	movwf	___lwmod@dividend
  2002  0E6F  30E8               	movlw	232
  2003  0E70  00F0               	movwf	___lwmod@divisor
  2004  0E71  3003               	movlw	3
  2005  0E72  00F1               	movwf	___lwmod@divisor+1
  2006  0E73  120A  158A  2158  120A  158A  	fcall	___lwmod
  2007  0E78  0871               	movf	?___lwmod+1,w
  2008  0E79  1283               	bcf	3,5	;RP0=0, select bank0
  2009  0E7A  1303               	bcf	3,6	;RP1=0, select bank0
  2010  0E7B  00B8               	movwf	_imprimirTemperatura$840+1
  2011  0E7C  0870               	movf	?___lwmod,w
  2012  0E7D  00B7               	movwf	_imprimirTemperatura$840
  2013                           
  2014                           ;main.c: 37:     int dezena = ((tempSet%1000)%100)/10;
  2015  0E7E  300A               	movlw	10
  2016  0E7F  00F6               	movwf	___lwdiv@divisor
  2017  0E80  3000               	movlw	0
  2018  0E81  00F7               	movwf	___lwdiv@divisor+1
  2019  0E82  0838               	movf	_imprimirTemperatura$840+1,w
  2020  0E83  00F3               	movwf	___lwmod@dividend+1
  2021  0E84  0837               	movf	_imprimirTemperatura$840,w
  2022  0E85  00F2               	movwf	___lwmod@dividend
  2023  0E86  3064               	movlw	100
  2024  0E87  00F0               	movwf	___lwmod@divisor
  2025  0E88  3000               	movlw	0
  2026  0E89  00F1               	movwf	___lwmod@divisor+1
  2027  0E8A  120A  158A  2158  120A  158A  	fcall	___lwmod
  2028  0E8F  0871               	movf	?___lwmod+1,w
  2029  0E90  00F9               	movwf	___lwdiv@dividend+1
  2030  0E91  0870               	movf	?___lwmod,w
  2031  0E92  00F8               	movwf	___lwdiv@dividend
  2032  0E93  120A  158A  21D2  120A  158A  	fcall	___lwdiv
  2033  0E98  0877               	movf	?___lwdiv+1,w
  2034  0E99  1283               	bcf	3,5	;RP0=0, select bank0
  2035  0E9A  1303               	bcf	3,6	;RP1=0, select bank0
  2036  0E9B  00B6               	movwf	imprimirTemperatura@dezena+1
  2037  0E9C  0876               	movf	?___lwdiv,w
  2038  0E9D  00B5               	movwf	imprimirTemperatura@dezena
  2039                           
  2040                           ;main.c: 39:     lcd_cmd(0x85);
  2041  0E9E  3085               	movlw	133
  2042  0E9F  160A  118A  27D4  120A  158A  	fcall	_lcd_cmd
  2043  0EA4                     l1818:
  2044                           
  2045                           ;main.c: 40:     sprintf(setPoint_string, "%d", milhar);
  2046  0EA4  30AE               	movlw	(low (_setPoint_string| 0))& (0+255)
  2047  0EA5  1283               	bcf	3,5	;RP0=0, select bank0
  2048  0EA6  1303               	bcf	3,6	;RP1=0, select bank0
  2049  0EA7  00A0               	movwf	sprintf@sp
  2050  0EA8  3000               	movlw	0
  2051  0EA9  00A1               	movwf	sprintf@sp+1
  2052  0EAA  301A               	movlw	(low ((STR_1-__stringbase)| (0+32768)))& (0+255)
  2053  0EAB  00B0               	movwf	??_imprimirTemperatura
  2054  0EAC  0830               	movf	??_imprimirTemperatura,w
  2055  0EAD  00A2               	movwf	sprintf@f
  2056  0EAE  0832               	movf	imprimirTemperatura@milhar+1,w
  2057  0EAF  00A4               	movwf	?_sprintf+4
  2058  0EB0  0831               	movf	imprimirTemperatura@milhar,w
  2059  0EB1  00A3               	movwf	?_sprintf+3
  2060  0EB2  120A  158A  270B  120A  158A  	fcall	_sprintf
  2061  0EB7                     l1820:
  2062                           
  2063                           ;main.c: 41:     lcd_str(setPoint_string);
  2064  0EB7  30AE               	movlw	(low (_setPoint_string| 0))& (0+255)
  2065  0EB8  00F2               	movwf	lcd_str@str
  2066  0EB9  3000               	movlw	0
  2067  0EBA  00F3               	movwf	lcd_str@str+1
  2068  0EBB  120A  158A  208C  120A  158A  	fcall	_lcd_str
  2069  0EC0                     l1822:
  2070                           
  2071                           ;main.c: 42:     sprintf(setPoint_string, "%d", centena);
  2072  0EC0  30AE               	movlw	(low (_setPoint_string| 0))& (0+255)
  2073  0EC1  1283               	bcf	3,5	;RP0=0, select bank0
  2074  0EC2  1303               	bcf	3,6	;RP1=0, select bank0
  2075  0EC3  00A0               	movwf	sprintf@sp
  2076  0EC4  3000               	movlw	0
  2077  0EC5  00A1               	movwf	sprintf@sp+1
  2078  0EC6  301A               	movlw	(low ((STR_1-__stringbase)| (0+32768)))& (0+255)
  2079  0EC7  00B0               	movwf	??_imprimirTemperatura
  2080  0EC8  0830               	movf	??_imprimirTemperatura,w
  2081  0EC9  00A2               	movwf	sprintf@f
  2082  0ECA  0834               	movf	imprimirTemperatura@centena+1,w
  2083  0ECB  00A4               	movwf	?_sprintf+4
  2084  0ECC  0833               	movf	imprimirTemperatura@centena,w
  2085  0ECD  00A3               	movwf	?_sprintf+3
  2086  0ECE  120A  158A  270B  120A  158A  	fcall	_sprintf
  2087  0ED3                     l1824:
  2088                           
  2089                           ;main.c: 43:     lcd_str(setPoint_string);
  2090  0ED3  30AE               	movlw	(low (_setPoint_string| 0))& (0+255)
  2091  0ED4  00F2               	movwf	lcd_str@str
  2092  0ED5  3000               	movlw	0
  2093  0ED6  00F3               	movwf	lcd_str@str+1
  2094  0ED7  120A  158A  208C  120A  158A  	fcall	_lcd_str
  2095  0EDC                     l1826:
  2096                           
  2097                           ;main.c: 44:     lcd_str(".");
  2098  0EDC  301D               	movlw	(low ((STR_3-__stringbase)| (0+32768)))& (0+255)
  2099  0EDD  00F2               	movwf	lcd_str@str
  2100  0EDE  3080               	movlw	128
  2101  0EDF  00F3               	movwf	lcd_str@str+1
  2102  0EE0  120A  158A  208C  120A  158A  	fcall	_lcd_str
  2103  0EE5                     l1828:
  2104                           
  2105                           ;main.c: 45:     sprintf(setPoint_string, "%d", dezena);
  2106  0EE5  30AE               	movlw	(low (_setPoint_string| 0))& (0+255)
  2107  0EE6  1283               	bcf	3,5	;RP0=0, select bank0
  2108  0EE7  1303               	bcf	3,6	;RP1=0, select bank0
  2109  0EE8  00A0               	movwf	sprintf@sp
  2110  0EE9  3000               	movlw	0
  2111  0EEA  00A1               	movwf	sprintf@sp+1
  2112  0EEB  301A               	movlw	(low ((STR_1-__stringbase)| (0+32768)))& (0+255)
  2113  0EEC  00B0               	movwf	??_imprimirTemperatura
  2114  0EED  0830               	movf	??_imprimirTemperatura,w
  2115  0EEE  00A2               	movwf	sprintf@f
  2116  0EEF  0836               	movf	imprimirTemperatura@dezena+1,w
  2117  0EF0  00A4               	movwf	?_sprintf+4
  2118  0EF1  0835               	movf	imprimirTemperatura@dezena,w
  2119  0EF2  00A3               	movwf	?_sprintf+3
  2120  0EF3  120A  158A  270B  120A  158A  	fcall	_sprintf
  2121  0EF8                     l1830:
  2122                           
  2123                           ;main.c: 46:     lcd_str(setPoint_string);
  2124  0EF8  30AE               	movlw	(low (_setPoint_string| 0))& (0+255)
  2125  0EF9  00F2               	movwf	lcd_str@str
  2126  0EFA  3000               	movlw	0
  2127  0EFB  00F3               	movwf	lcd_str@str+1
  2128  0EFC  120A  158A  208C  120A  158A  	fcall	_lcd_str
  2129  0F01                     l1832:
  2130                           
  2131                           ;main.c: 47:     lcd_str(" C");
  2132  0F01  3017               	movlw	(low ((STR_5-__stringbase)| (0+32768)))& (0+255)
  2133  0F02  00F2               	movwf	lcd_str@str
  2134  0F03  3080               	movlw	128
  2135  0F04  00F3               	movwf	lcd_str@str+1
  2136  0F05  120A  158A  208C  120A  158A  	fcall	_lcd_str
  2137  0F0A                     l134:
  2138  0F0A  0008               	return
  2139  0F0B                     __end_of_imprimirTemperatura:
  2140                           
  2141                           	psect	text5
  2142  0F0B                     __ptext5:	
  2143 ;; *************** function _sprintf *****************
  2144 ;; Defined at:
  2145 ;;		line 505 in file "C:\Program Files\Microchip\xc8\v2.32\pic\sources\c90\common\doprnt.c"
  2146 ;; Parameters:    Size  Location     Type
  2147 ;;  sp              2    0[BANK0 ] PTR unsigned char 
  2148 ;;		 -> kp_string(32), setPoint_string(32), 
  2149 ;;  f               1    2[BANK0 ] PTR const unsigned char 
  2150 ;;		 -> STR_6(3), STR_4(3), STR_2(3), STR_1(3), 
  2151 ;; Auto vars:     Size  Location     Type
  2152 ;;  tmpval          4    0        struct .
  2153 ;;  val             2   11[BANK0 ] unsigned int 
  2154 ;;  cp              2    0        PTR const unsigned char 
  2155 ;;  len             2    0        unsigned int 
  2156 ;;  c               1   13[BANK0 ] unsigned char 
  2157 ;;  prec            1   10[BANK0 ] char 
  2158 ;;  flag            1    9[BANK0 ] unsigned char 
  2159 ;;  ap              1    8[BANK0 ] PTR void [1]
  2160 ;;		 -> ?_sprintf(2), 
  2161 ;; Return value:  Size  Location     Type
  2162 ;;                  2    0[BANK0 ] int 
  2163 ;; Registers used:
  2164 ;;		wreg, fsr0l, fsr0h, status,2, status,0, btemp+1, pclath, cstack
  2165 ;; Tracked objects:
  2166 ;;		On entry : 0/0
  2167 ;;		On exit  : 0/0
  2168 ;;		Unchanged: 0/0
  2169 ;; Data sizes:     COMMON   BANK0   BANK1   BANK3   BANK2
  2170 ;;      Params:         0       5       0       0       0
  2171 ;;      Locals:         0       6       0       0       0
  2172 ;;      Temps:          0       3       0       0       0
  2173 ;;      Totals:         0      14       0       0       0
  2174 ;;Total ram usage:       14 bytes
  2175 ;; Hardware stack levels used: 1
  2176 ;; Hardware stack levels required when called: 1
  2177 ;; This function calls:
  2178 ;;		___lwdiv
  2179 ;;		___lwmod
  2180 ;; This function is called by:
  2181 ;;		_imprimirTemperatura
  2182 ;;		_imprimirValoresLcd
  2183 ;; This function uses a non-reentrant model
  2184 ;;
  2185                           
  2186                           
  2187                           ;psect for function _sprintf
  2188  0F0B                     _sprintf:
  2189  0F0B                     l1746:	
  2190                           ;incstack = 0
  2191                           ; Regs used in _sprintf: [wreg-fsr0h+status,2+status,0+btemp+1+pclath+cstack]
  2192                           
  2193                           
  2194                           ;C:\Program Files\Microchip\xc8\v2.32\pic\sources\c90\common\doprnt.c: 505: sprintf(char
      +                           * sp, const char * f, ...);C:\Program Files\Microchip\xc8\v2.32\pic\sources\c90\common\
      +                          doprnt.c: 506: {;C:\Program Files\Microchip\xc8\v2.32\pic\sources\c90\common\doprnt.c: 5
      +                          07:  va_list ap;;C:\Program Files\Microchip\xc8\v2.32\pic\sources\c90\common\doprnt.c: 5
      +                          12:  char c;;C:\Program Files\Microchip\xc8\v2.32\pic\sources\c90\common\doprnt.c: 521: 
      +                           signed char prec;;C:\Program Files\Microchip\xc8\v2.32\pic\sources\c90\common\doprnt.c:
      +                           525:  unsigned char flag;
  2195  0F0B  3023               	movlw	(low ((?_sprintf| 0+3)))& (0+255)
  2196  0F0C  1283               	bcf	3,5	;RP0=0, select bank0
  2197  0F0D  1303               	bcf	3,6	;RP1=0, select bank0
  2198  0F0E  00A5               	movwf	??_sprintf
  2199  0F0F  0825               	movf	??_sprintf,w
  2200  0F10  00A8               	movwf	sprintf@ap
  2201                           
  2202                           ;C:\Program Files\Microchip\xc8\v2.32\pic\sources\c90\common\doprnt.c: 553:  while((c = 
      +                          *f++)) {
  2203  0F11  2FE7               	goto	l1798
  2204  0F12                     l1748:
  2205                           
  2206                           ;C:\Program Files\Microchip\xc8\v2.32\pic\sources\c90\common\doprnt.c: 555:   if(c != '%
      +                          ')
  2207  0F12  3025               	movlw	37
  2208  0F13  062D               	xorwf	sprintf@c,w
  2209  0F14  1903               	btfsc	3,2
  2210  0F15  2F17               	goto	u1821
  2211  0F16  2F18               	goto	u1820
  2212  0F17                     u1821:
  2213  0F17  2F28               	goto	l1754
  2214  0F18                     u1820:
  2215  0F18                     l1750:
  2216                           
  2217                           ;C:\Program Files\Microchip\xc8\v2.32\pic\sources\c90\common\doprnt.c: 557:   {;C:\Progr
      +                          am Files\Microchip\xc8\v2.32\pic\sources\c90\common\doprnt.c: 558:    ((*sp++ = (c)));
  2218  0F18  082D               	movf	sprintf@c,w
  2219  0F19  00A5               	movwf	??_sprintf
  2220  0F1A  0820               	movf	sprintf@sp,w
  2221  0F1B  0084               	movwf	4
  2222  0F1C  1783               	bsf	3,7
  2223  0F1D  1C21               	btfss	sprintf@sp+1,0
  2224  0F1E  1383               	bcf	3,7
  2225  0F1F  0825               	movf	??_sprintf,w
  2226  0F20  0080               	movwf	0
  2227  0F21                     l1752:
  2228  0F21  3001               	movlw	1
  2229  0F22  07A0               	addwf	sprintf@sp,f
  2230  0F23  1803               	skipnc
  2231  0F24  0AA1               	incf	sprintf@sp+1,f
  2232  0F25  3000               	movlw	0
  2233  0F26  07A1               	addwf	sprintf@sp+1,f
  2234                           
  2235                           ;C:\Program Files\Microchip\xc8\v2.32\pic\sources\c90\common\doprnt.c: 559:    continue;
  2236  0F27  2FE7               	goto	l1798
  2237  0F28                     l1754:
  2238                           
  2239                           ;C:\Program Files\Microchip\xc8\v2.32\pic\sources\c90\common\doprnt.c: 565:   flag = 0;
  2240  0F28  01A9               	clrf	sprintf@flag
  2241  0F29                     l1758:	
  2242                           ;C:\Program Files\Microchip\xc8\v2.32\pic\sources\c90\common\doprnt.c: 661:   switch(c =
      +                           *f++) {
  2243                           
  2244  0F29  3001               	movlw	1
  2245  0F2A  07A2               	addwf	sprintf@f,f
  2246  0F2B  30FF               	movlw	-1
  2247  0F2C  0722               	addwf	sprintf@f,w
  2248  0F2D  0084               	movwf	4
  2249  0F2E  120A  158A  200A  120A  158A  	fcall	stringdir
  2250  0F33  00AD               	movwf	sprintf@c
  2251  0F34  00A5               	movwf	??_sprintf
  2252  0F35  01A6               	clrf	??_sprintf+1
  2253                           
  2254                           ; Switch on 2 bytes has been partitioned into a top level switch of size 1, and 1 sub-sw
      +                          itches
  2255                           ; Switch size 1, requested type "simple"
  2256                           ; Number of cases is 1, Range of values is 0 to 0
  2257                           ; switch strategies available:
  2258                           ; Name         Instructions Cycles
  2259                           ; simple_byte            4     3 (average)
  2260                           ; direct_byte           11     8 (fixed)
  2261                           ; jumptable            260     6 (fixed)
  2262                           ;	Chosen strategy is simple_byte
  2263  0F36  0826               	movf	??_sprintf+1,w
  2264  0F37  3A00               	xorlw	0	; case 0
  2265  0F38  1903               	skipnz
  2266  0F39  2F3B               	goto	l2518
  2267  0F3A  2FE7               	goto	l1798
  2268  0F3B                     l2518:
  2269                           
  2270                           ; Switch size 1, requested type "simple"
  2271                           ; Number of cases is 3, Range of values is 0 to 105
  2272                           ; switch strategies available:
  2273                           ; Name         Instructions Cycles
  2274                           ; simple_byte           10     6 (average)
  2275                           ; jumptable            260     6 (fixed)
  2276                           ;	Chosen strategy is simple_byte
  2277  0F3B  0825               	movf	??_sprintf,w
  2278  0F3C  3A00               	xorlw	0	; case 0
  2279  0F3D  1903               	skipnz
  2280  0F3E  2FF9               	goto	l1800
  2281  0F3F  3A64               	xorlw	100	; case 100
  2282  0F40  1903               	skipnz
  2283  0F41  2F46               	goto	l1760
  2284  0F42  3A0D               	xorlw	13	; case 105
  2285  0F43  1903               	skipnz
  2286  0F44  2F46               	goto	l1760
  2287  0F45  2FE7               	goto	l1798
  2288  0F46                     l1760:
  2289                           
  2290                           ;C:\Program Files\Microchip\xc8\v2.32\pic\sources\c90\common\doprnt.c: 1279:   {;C:\Prog
      +                          ram Files\Microchip\xc8\v2.32\pic\sources\c90\common\doprnt.c: 1285:     val = (unsigned
      +                           int)(*(int *)__va_arg((*(int **)ap), (int)0));
  2291  0F46  0828               	movf	sprintf@ap,w
  2292  0F47  0084               	movwf	4
  2293  0F48  1383               	bcf	3,7	;select IRP bank0
  2294  0F49  0800               	movf	0,w
  2295  0F4A  00AB               	movwf	sprintf@val
  2296  0F4B  0A84               	incf	4,f
  2297  0F4C  0800               	movf	0,w
  2298  0F4D  00AC               	movwf	sprintf@val+1
  2299  0F4E                     l1762:
  2300  0F4E  3002               	movlw	2
  2301  0F4F  00A5               	movwf	??_sprintf
  2302  0F50  0825               	movf	??_sprintf,w
  2303  0F51  07A8               	addwf	sprintf@ap,f
  2304  0F52                     l1764:
  2305                           
  2306                           ;C:\Program Files\Microchip\xc8\v2.32\pic\sources\c90\common\doprnt.c: 1287:    if((int)
      +                          val < 0) {
  2307  0F52  1FAC               	btfss	sprintf@val+1,7
  2308  0F53  2F55               	goto	u1831
  2309  0F54  2F56               	goto	u1830
  2310  0F55                     u1831:
  2311  0F55  2F5F               	goto	l1770
  2312  0F56                     u1830:
  2313  0F56                     l1766:
  2314                           
  2315                           ;C:\Program Files\Microchip\xc8\v2.32\pic\sources\c90\common\doprnt.c: 1288:     flag |=
      +                           0x03;
  2316  0F56  3003               	movlw	3
  2317  0F57  00A5               	movwf	??_sprintf
  2318  0F58  0825               	movf	??_sprintf,w
  2319  0F59  04A9               	iorwf	sprintf@flag,f
  2320  0F5A                     l1768:
  2321                           
  2322                           ;C:\Program Files\Microchip\xc8\v2.32\pic\sources\c90\common\doprnt.c: 1289:     val = -
      +                          val;
  2323  0F5A  09AB               	comf	sprintf@val,f
  2324  0F5B  09AC               	comf	sprintf@val+1,f
  2325  0F5C  0AAB               	incf	sprintf@val,f
  2326  0F5D  1903               	skipnz
  2327  0F5E  0AAC               	incf	sprintf@val+1,f
  2328  0F5F                     l1770:
  2329                           
  2330                           ;C:\Program Files\Microchip\xc8\v2.32\pic\sources\c90\common\doprnt.c: 1292:   };C:\Prog
      +                          ram Files\Microchip\xc8\v2.32\pic\sources\c90\common\doprnt.c: 1331:    for(c = 1 ; c !=
      +                           sizeof dpowers/sizeof dpowers[0] ; c++)
  2331  0F5F  01AD               	clrf	sprintf@c
  2332  0F60  0AAD               	incf	sprintf@c,f
  2333  0F61                     l1776:
  2334                           
  2335                           ;C:\Program Files\Microchip\xc8\v2.32\pic\sources\c90\common\doprnt.c: 1332:     if(val 
      +                          < dpowers[c])
  2336  0F61  082D               	movf	sprintf@c,w
  2337  0F62  00A5               	movwf	??_sprintf
  2338  0F63  0725               	addwf	??_sprintf,w
  2339  0F64  3E01               	addlw	low ((_dpowers-__stringbase)| (0+32768))
  2340  0F65  0084               	movwf	4
  2341  0F66  120A  158A  200A  120A  158A  	fcall	stringdir
  2342  0F6B  00A6               	movwf	??_sprintf+1
  2343  0F6C  120A  158A  200A  120A  158A  	fcall	stringdir
  2344  0F71  00A7               	movwf	??_sprintf+2
  2345  0F72  0827               	movf	??_sprintf+2,w
  2346  0F73  022C               	subwf	sprintf@val+1,w
  2347  0F74  1D03               	skipz
  2348  0F75  2F78               	goto	u1845
  2349  0F76  0826               	movf	??_sprintf+1,w
  2350  0F77  022B               	subwf	sprintf@val,w
  2351  0F78                     u1845:
  2352  0F78  1803               	skipnc
  2353  0F79  2F7B               	goto	u1841
  2354  0F7A  2F7C               	goto	u1840
  2355  0F7B                     u1841:
  2356  0F7B  2F7D               	goto	l1780
  2357  0F7C                     u1840:
  2358  0F7C  2F87               	goto	l1782
  2359  0F7D                     l1780:
  2360  0F7D  3001               	movlw	1
  2361  0F7E  00A5               	movwf	??_sprintf
  2362  0F7F  0825               	movf	??_sprintf,w
  2363  0F80  07AD               	addwf	sprintf@c,f
  2364  0F81  3005               	movlw	5
  2365  0F82  062D               	xorwf	sprintf@c,w
  2366  0F83  1D03               	btfss	3,2
  2367  0F84  2F86               	goto	u1851
  2368  0F85  2F87               	goto	u1850
  2369  0F86                     u1851:
  2370  0F86  2F61               	goto	l1776
  2371  0F87                     u1850:
  2372  0F87                     l1782:
  2373                           
  2374                           ;C:\Program Files\Microchip\xc8\v2.32\pic\sources\c90\common\doprnt.c: 1448:   {;C:\Prog
      +                          ram Files\Microchip\xc8\v2.32\pic\sources\c90\common\doprnt.c: 1464:    if(flag & 0x03)
  2375  0F87  0829               	movf	sprintf@flag,w
  2376  0F88  3903               	andlw	3
  2377  0F89  1903               	btfsc	3,2
  2378  0F8A  2F8C               	goto	u1861
  2379  0F8B  2F8D               	goto	u1860
  2380  0F8C                     u1861:
  2381  0F8C  2F9C               	goto	l1788
  2382  0F8D                     u1860:
  2383  0F8D                     l1784:
  2384                           
  2385                           ;C:\Program Files\Microchip\xc8\v2.32\pic\sources\c90\common\doprnt.c: 1465:     ((*sp++
      +                           = ('-')));
  2386  0F8D  302D               	movlw	45
  2387  0F8E  00A5               	movwf	??_sprintf
  2388  0F8F  0820               	movf	sprintf@sp,w
  2389  0F90  0084               	movwf	4
  2390  0F91  1783               	bsf	3,7
  2391  0F92  1C21               	btfss	sprintf@sp+1,0
  2392  0F93  1383               	bcf	3,7
  2393  0F94  0825               	movf	??_sprintf,w
  2394  0F95  0080               	movwf	0
  2395  0F96                     l1786:
  2396  0F96  3001               	movlw	1
  2397  0F97  07A0               	addwf	sprintf@sp,f
  2398  0F98  1803               	skipnc
  2399  0F99  0AA1               	incf	sprintf@sp+1,f
  2400  0F9A  3000               	movlw	0
  2401  0F9B  07A1               	addwf	sprintf@sp+1,f
  2402  0F9C                     l1788:
  2403                           
  2404                           ;C:\Program Files\Microchip\xc8\v2.32\pic\sources\c90\common\doprnt.c: 1495:   };C:\Prog
      +                          ram Files\Microchip\xc8\v2.32\pic\sources\c90\common\doprnt.c: 1498:   prec = c;
  2405  0F9C  082D               	movf	sprintf@c,w
  2406  0F9D  00A5               	movwf	??_sprintf
  2407  0F9E  0825               	movf	??_sprintf,w
  2408  0F9F  00AA               	movwf	sprintf@prec
  2409                           
  2410                           ;C:\Program Files\Microchip\xc8\v2.32\pic\sources\c90\common\doprnt.c: 1500:   while(pre
      +                          c--) {
  2411  0FA0  2FDE               	goto	l1796
  2412  0FA1                     l1790:
  2413                           
  2414                           ;C:\Program Files\Microchip\xc8\v2.32\pic\sources\c90\common\doprnt.c: 1504:    {;C:\Pro
      +                          gram Files\Microchip\xc8\v2.32\pic\sources\c90\common\doprnt.c: 1515:     c = (val / dpo
      +                          wers[(unsigned char)prec]) % 10 + '0';
  2415  0FA1  300A               	movlw	10
  2416  0FA2  00F0               	movwf	___lwmod@divisor
  2417  0FA3  3000               	movlw	0
  2418  0FA4  00F1               	movwf	___lwmod@divisor+1
  2419  0FA5  082A               	movf	sprintf@prec,w
  2420  0FA6  00A5               	movwf	??_sprintf
  2421  0FA7  0725               	addwf	??_sprintf,w
  2422  0FA8  3E01               	addlw	low ((_dpowers-__stringbase)| (0+32768))
  2423  0FA9  0084               	movwf	4
  2424  0FAA  120A  158A  200A  120A  158A  	fcall	stringdir
  2425  0FAF  00F6               	movwf	___lwdiv@divisor
  2426  0FB0  120A  158A  200A  120A  158A  	fcall	stringdir
  2427  0FB5  00F7               	movwf	___lwdiv@divisor+1
  2428  0FB6  082C               	movf	sprintf@val+1,w
  2429  0FB7  00F9               	movwf	___lwdiv@dividend+1
  2430  0FB8  082B               	movf	sprintf@val,w
  2431  0FB9  00F8               	movwf	___lwdiv@dividend
  2432  0FBA  120A  158A  21D2  120A  158A  	fcall	___lwdiv
  2433  0FBF  0877               	movf	?___lwdiv+1,w
  2434  0FC0  00F3               	movwf	___lwmod@dividend+1
  2435  0FC1  0876               	movf	?___lwdiv,w
  2436  0FC2  00F2               	movwf	___lwmod@dividend
  2437  0FC3  120A  158A  2158  120A  158A  	fcall	___lwmod
  2438  0FC8  0870               	movf	?___lwmod,w
  2439  0FC9  3E30               	addlw	48
  2440  0FCA  1283               	bcf	3,5	;RP0=0, select bank0
  2441  0FCB  1303               	bcf	3,6	;RP1=0, select bank0
  2442  0FCC  00A6               	movwf	??_sprintf+1
  2443  0FCD  0826               	movf	??_sprintf+1,w
  2444  0FCE  00AD               	movwf	sprintf@c
  2445  0FCF                     l1792:
  2446                           
  2447                           ;C:\Program Files\Microchip\xc8\v2.32\pic\sources\c90\common\doprnt.c: 1549:    };C:\Pro
      +                          gram Files\Microchip\xc8\v2.32\pic\sources\c90\common\doprnt.c: 1550:    ((*sp++ = (c)))
      +                          ;
  2448  0FCF  082D               	movf	sprintf@c,w
  2449  0FD0  00A5               	movwf	??_sprintf
  2450  0FD1  0820               	movf	sprintf@sp,w
  2451  0FD2  0084               	movwf	4
  2452  0FD3  1783               	bsf	3,7
  2453  0FD4  1C21               	btfss	sprintf@sp+1,0
  2454  0FD5  1383               	bcf	3,7
  2455  0FD6  0825               	movf	??_sprintf,w
  2456  0FD7  0080               	movwf	0
  2457  0FD8                     l1794:
  2458  0FD8  3001               	movlw	1
  2459  0FD9  07A0               	addwf	sprintf@sp,f
  2460  0FDA  1803               	skipnc
  2461  0FDB  0AA1               	incf	sprintf@sp+1,f
  2462  0FDC  3000               	movlw	0
  2463  0FDD  07A1               	addwf	sprintf@sp+1,f
  2464  0FDE                     l1796:
  2465                           
  2466                           ;C:\Program Files\Microchip\xc8\v2.32\pic\sources\c90\common\doprnt.c: 1500:   while(pre
      +                          c--) {
  2467  0FDE  30FF               	movlw	255
  2468  0FDF  00A5               	movwf	??_sprintf
  2469  0FE0  0825               	movf	??_sprintf,w
  2470  0FE1  07AA               	addwf	sprintf@prec,f
  2471  0FE2  0A2A               	incf	sprintf@prec,w
  2472  0FE3  1D03               	btfss	3,2
  2473  0FE4  2FE6               	goto	u1871
  2474  0FE5  2FE7               	goto	u1870
  2475  0FE6                     u1871:
  2476  0FE6  2FA1               	goto	l1790
  2477  0FE7                     u1870:
  2478  0FE7                     l1798:
  2479                           
  2480                           ;C:\Program Files\Microchip\xc8\v2.32\pic\sources\c90\common\doprnt.c: 553:  while((c = 
      +                          *f++)) {
  2481  0FE7  3001               	movlw	1
  2482  0FE8  07A2               	addwf	sprintf@f,f
  2483  0FE9  30FF               	movlw	-1
  2484  0FEA  0722               	addwf	sprintf@f,w
  2485  0FEB  0084               	movwf	4
  2486  0FEC  120A  158A  200A  120A  158A  	fcall	stringdir
  2487  0FF1  00A5               	movwf	??_sprintf
  2488  0FF2  0825               	movf	??_sprintf,w
  2489  0FF3  00AD               	movwf	sprintf@c
  2490  0FF4  082D               	movf	sprintf@c,w
  2491  0FF5  1D03               	btfss	3,2
  2492  0FF6  2FF8               	goto	u1881
  2493  0FF7  2FF9               	goto	u1880
  2494  0FF8                     u1881:
  2495  0FF8  2F12               	goto	l1748
  2496  0FF9                     u1880:
  2497  0FF9                     l1800:
  2498                           
  2499                           ;C:\Program Files\Microchip\xc8\v2.32\pic\sources\c90\common\doprnt.c: 1564:  *sp = 0;
  2500  0FF9  0820               	movf	sprintf@sp,w
  2501  0FFA  0084               	movwf	4
  2502  0FFB  1783               	bsf	3,7
  2503  0FFC  1C21               	btfss	sprintf@sp+1,0
  2504  0FFD  1383               	bcf	3,7
  2505  0FFE  0180               	clrf	0
  2506  0FFF                     l320:
  2507  0FFF  0008               	return
  2508  1000                     __end_of_sprintf:
  2509                           
  2510                           	psect	text6
  2511  0958                     __ptext6:	
  2512 ;; *************** function ___lwmod *****************
  2513 ;; Defined at:
  2514 ;;		line 5 in file "C:\Program Files\Microchip\xc8\v2.32\pic\sources\c90\common\lwmod.c"
  2515 ;; Parameters:    Size  Location     Type
  2516 ;;  divisor         2    0[COMMON] unsigned int 
  2517 ;;  dividend        2    2[COMMON] unsigned int 
  2518 ;; Auto vars:     Size  Location     Type
  2519 ;;  counter         1    5[COMMON] unsigned char 
  2520 ;; Return value:  Size  Location     Type
  2521 ;;                  2    0[COMMON] unsigned int 
  2522 ;; Registers used:
  2523 ;;		wreg, status,2, status,0
  2524 ;; Tracked objects:
  2525 ;;		On entry : 0/0
  2526 ;;		On exit  : 0/0
  2527 ;;		Unchanged: 0/0
  2528 ;; Data sizes:     COMMON   BANK0   BANK1   BANK3   BANK2
  2529 ;;      Params:         4       0       0       0       0
  2530 ;;      Locals:         1       0       0       0       0
  2531 ;;      Temps:          1       0       0       0       0
  2532 ;;      Totals:         6       0       0       0       0
  2533 ;;Total ram usage:        6 bytes
  2534 ;; Hardware stack levels used: 1
  2535 ;; This function calls:
  2536 ;;		Nothing
  2537 ;; This function is called by:
  2538 ;;		_imprimirTemperatura
  2539 ;;		_sprintf
  2540 ;; This function uses a non-reentrant model
  2541 ;;
  2542                           
  2543                           
  2544                           ;psect for function ___lwmod
  2545  0958                     ___lwmod:
  2546  0958                     l1714:	
  2547                           ;incstack = 0
  2548                           ; Regs used in ___lwmod: [wreg+status,2+status,0]
  2549                           
  2550  0958  0870               	movf	___lwmod@divisor,w
  2551  0959  0471               	iorwf	___lwmod@divisor+1,w
  2552  095A  1903               	btfsc	3,2
  2553  095B  295D               	goto	u1761
  2554  095C  295E               	goto	u1760
  2555  095D                     u1761:
  2556  095D  298D               	goto	l1732
  2557  095E                     u1760:
  2558  095E                     l1716:
  2559  095E  01F5               	clrf	___lwmod@counter
  2560  095F  0AF5               	incf	___lwmod@counter,f
  2561  0960  296C               	goto	l1722
  2562  0961                     l1718:
  2563  0961  3001               	movlw	1
  2564  0962                     u1775:
  2565  0962  1003               	clrc
  2566  0963  0DF0               	rlf	___lwmod@divisor,f
  2567  0964  0DF1               	rlf	___lwmod@divisor+1,f
  2568  0965  3EFF               	addlw	-1
  2569  0966  1D03               	skipz
  2570  0967  2962               	goto	u1775
  2571  0968                     l1720:
  2572  0968  3001               	movlw	1
  2573  0969  00F4               	movwf	??___lwmod
  2574  096A  0874               	movf	??___lwmod,w
  2575  096B  07F5               	addwf	___lwmod@counter,f
  2576  096C                     l1722:
  2577  096C  1FF1               	btfss	___lwmod@divisor+1,7
  2578  096D  296F               	goto	u1781
  2579  096E  2970               	goto	u1780
  2580  096F                     u1781:
  2581  096F  2961               	goto	l1718
  2582  0970                     u1780:
  2583  0970                     l1724:
  2584  0970  0871               	movf	___lwmod@divisor+1,w
  2585  0971  0273               	subwf	___lwmod@dividend+1,w
  2586  0972  1D03               	skipz
  2587  0973  2976               	goto	u1795
  2588  0974  0870               	movf	___lwmod@divisor,w
  2589  0975  0272               	subwf	___lwmod@dividend,w
  2590  0976                     u1795:
  2591  0976  1C03               	skipc
  2592  0977  2979               	goto	u1791
  2593  0978  297A               	goto	u1790
  2594  0979                     u1791:
  2595  0979  2980               	goto	l1728
  2596  097A                     u1790:
  2597  097A                     l1726:
  2598  097A  0870               	movf	___lwmod@divisor,w
  2599  097B  02F2               	subwf	___lwmod@dividend,f
  2600  097C  0871               	movf	___lwmod@divisor+1,w
  2601  097D  1C03               	skipc
  2602  097E  03F3               	decf	___lwmod@dividend+1,f
  2603  097F  02F3               	subwf	___lwmod@dividend+1,f
  2604  0980                     l1728:
  2605  0980  3001               	movlw	1
  2606  0981                     u1805:
  2607  0981  1003               	clrc
  2608  0982  0CF1               	rrf	___lwmod@divisor+1,f
  2609  0983  0CF0               	rrf	___lwmod@divisor,f
  2610  0984  3EFF               	addlw	-1
  2611  0985  1D03               	skipz
  2612  0986  2981               	goto	u1805
  2613  0987                     l1730:
  2614  0987  3001               	movlw	1
  2615  0988  02F5               	subwf	___lwmod@counter,f
  2616  0989  1D03               	btfss	3,2
  2617  098A  298C               	goto	u1811
  2618  098B  298D               	goto	u1810
  2619  098C                     u1811:
  2620  098C  2970               	goto	l1724
  2621  098D                     u1810:
  2622  098D                     l1732:
  2623  098D  0873               	movf	___lwmod@dividend+1,w
  2624  098E  00F1               	movwf	?___lwmod+1
  2625  098F  0872               	movf	___lwmod@dividend,w
  2626  0990  00F0               	movwf	?___lwmod
  2627  0991                     l606:
  2628  0991  0008               	return
  2629  0992                     __end_of___lwmod:
  2630                           
  2631                           	psect	text7
  2632  09D2                     __ptext7:	
  2633 ;; *************** function ___lwdiv *****************
  2634 ;; Defined at:
  2635 ;;		line 5 in file "C:\Program Files\Microchip\xc8\v2.32\pic\sources\c90\common\lwdiv.c"
  2636 ;; Parameters:    Size  Location     Type
  2637 ;;  divisor         2    6[COMMON] unsigned int 
  2638 ;;  dividend        2    8[COMMON] unsigned int 
  2639 ;; Auto vars:     Size  Location     Type
  2640 ;;  quotient        2   11[COMMON] unsigned int 
  2641 ;;  counter         1   13[COMMON] unsigned char 
  2642 ;; Return value:  Size  Location     Type
  2643 ;;                  2    6[COMMON] unsigned int 
  2644 ;; Registers used:
  2645 ;;		wreg, status,2, status,0
  2646 ;; Tracked objects:
  2647 ;;		On entry : 0/0
  2648 ;;		On exit  : 0/0
  2649 ;;		Unchanged: 0/0
  2650 ;; Data sizes:     COMMON   BANK0   BANK1   BANK3   BANK2
  2651 ;;      Params:         4       0       0       0       0
  2652 ;;      Locals:         3       0       0       0       0
  2653 ;;      Temps:          1       0       0       0       0
  2654 ;;      Totals:         8       0       0       0       0
  2655 ;;Total ram usage:        8 bytes
  2656 ;; Hardware stack levels used: 1
  2657 ;; This function calls:
  2658 ;;		Nothing
  2659 ;; This function is called by:
  2660 ;;		_imprimirTemperatura
  2661 ;;		_sprintf
  2662 ;; This function uses a non-reentrant model
  2663 ;;
  2664                           
  2665                           
  2666                           ;psect for function ___lwdiv
  2667  09D2                     ___lwdiv:
  2668  09D2                     l1688:	
  2669                           ;incstack = 0
  2670                           ; Regs used in ___lwdiv: [wreg+status,2+status,0]
  2671                           
  2672  09D2  01FB               	clrf	___lwdiv@quotient
  2673  09D3  01FC               	clrf	___lwdiv@quotient+1
  2674  09D4                     l1690:
  2675  09D4  0876               	movf	___lwdiv@divisor,w
  2676  09D5  0477               	iorwf	___lwdiv@divisor+1,w
  2677  09D6  1903               	btfsc	3,2
  2678  09D7  29D9               	goto	u1691
  2679  09D8  29DA               	goto	u1690
  2680  09D9                     u1691:
  2681  09D9  2A11               	goto	l1710
  2682  09DA                     u1690:
  2683  09DA                     l1692:
  2684  09DA  01FD               	clrf	___lwdiv@counter
  2685  09DB  0AFD               	incf	___lwdiv@counter,f
  2686  09DC  29E8               	goto	l1698
  2687  09DD                     l1694:
  2688  09DD  3001               	movlw	1
  2689  09DE                     u1705:
  2690  09DE  1003               	clrc
  2691  09DF  0DF6               	rlf	___lwdiv@divisor,f
  2692  09E0  0DF7               	rlf	___lwdiv@divisor+1,f
  2693  09E1  3EFF               	addlw	-1
  2694  09E2  1D03               	skipz
  2695  09E3  29DE               	goto	u1705
  2696  09E4                     l1696:
  2697  09E4  3001               	movlw	1
  2698  09E5  00FA               	movwf	??___lwdiv
  2699  09E6  087A               	movf	??___lwdiv,w
  2700  09E7  07FD               	addwf	___lwdiv@counter,f
  2701  09E8                     l1698:
  2702  09E8  1FF7               	btfss	___lwdiv@divisor+1,7
  2703  09E9  29EB               	goto	u1711
  2704  09EA  29EC               	goto	u1710
  2705  09EB                     u1711:
  2706  09EB  29DD               	goto	l1694
  2707  09EC                     u1710:
  2708  09EC                     l1700:
  2709  09EC  3001               	movlw	1
  2710  09ED                     u1725:
  2711  09ED  1003               	clrc
  2712  09EE  0DFB               	rlf	___lwdiv@quotient,f
  2713  09EF  0DFC               	rlf	___lwdiv@quotient+1,f
  2714  09F0  3EFF               	addlw	-1
  2715  09F1  1D03               	skipz
  2716  09F2  29ED               	goto	u1725
  2717  09F3  0877               	movf	___lwdiv@divisor+1,w
  2718  09F4  0279               	subwf	___lwdiv@dividend+1,w
  2719  09F5  1D03               	skipz
  2720  09F6  29F9               	goto	u1735
  2721  09F7  0876               	movf	___lwdiv@divisor,w
  2722  09F8  0278               	subwf	___lwdiv@dividend,w
  2723  09F9                     u1735:
  2724  09F9  1C03               	skipc
  2725  09FA  29FC               	goto	u1731
  2726  09FB  29FD               	goto	u1730
  2727  09FC                     u1731:
  2728  09FC  2A04               	goto	l1706
  2729  09FD                     u1730:
  2730  09FD                     l1702:
  2731  09FD  0876               	movf	___lwdiv@divisor,w
  2732  09FE  02F8               	subwf	___lwdiv@dividend,f
  2733  09FF  0877               	movf	___lwdiv@divisor+1,w
  2734  0A00  1C03               	skipc
  2735  0A01  03F9               	decf	___lwdiv@dividend+1,f
  2736  0A02  02F9               	subwf	___lwdiv@dividend+1,f
  2737  0A03                     l1704:
  2738  0A03  147B               	bsf	___lwdiv@quotient,0
  2739  0A04                     l1706:
  2740  0A04  3001               	movlw	1
  2741  0A05                     u1745:
  2742  0A05  1003               	clrc
  2743  0A06  0CF7               	rrf	___lwdiv@divisor+1,f
  2744  0A07  0CF6               	rrf	___lwdiv@divisor,f
  2745  0A08  3EFF               	addlw	-1
  2746  0A09  1D03               	skipz
  2747  0A0A  2A05               	goto	u1745
  2748  0A0B                     l1708:
  2749  0A0B  3001               	movlw	1
  2750  0A0C  02FD               	subwf	___lwdiv@counter,f
  2751  0A0D  1D03               	btfss	3,2
  2752  0A0E  2A10               	goto	u1751
  2753  0A0F  2A11               	goto	u1750
  2754  0A10                     u1751:
  2755  0A10  29EC               	goto	l1700
  2756  0A11                     u1750:
  2757  0A11                     l1710:
  2758  0A11  087C               	movf	___lwdiv@quotient+1,w
  2759  0A12  00F7               	movwf	?___lwdiv+1
  2760  0A13  087B               	movf	___lwdiv@quotient,w
  2761  0A14  00F6               	movwf	?___lwdiv
  2762  0A15                     l596:
  2763  0A15  0008               	return
  2764  0A16                     __end_of___lwdiv:
  2765                           
  2766                           	psect	text8
  2767  088C                     __ptext8:	
  2768 ;; *************** function _lcd_str *****************
  2769 ;; Defined at:
  2770 ;;		line 76 in file "lcd.c"
  2771 ;; Parameters:    Size  Location     Type
  2772 ;;  str             2    2[COMMON] PTR const unsigned char 
  2773 ;;		 -> STR_8(6), STR_7(6), kp_string(32), STR_5(3), 
  2774 ;;		 -> STR_3(2), setPoint_string(32), 
  2775 ;; Auto vars:     Size  Location     Type
  2776 ;;  i               1    5[COMMON] unsigned char 
  2777 ;; Return value:  Size  Location     Type
  2778 ;;                  1    wreg      void 
  2779 ;; Registers used:
  2780 ;;		wreg, fsr0l, fsr0h, status,2, status,0, btemp+1, pclath, cstack
  2781 ;; Tracked objects:
  2782 ;;		On entry : 0/0
  2783 ;;		On exit  : 0/0
  2784 ;;		Unchanged: 0/0
  2785 ;; Data sizes:     COMMON   BANK0   BANK1   BANK3   BANK2
  2786 ;;      Params:         2       0       0       0       0
  2787 ;;      Locals:         1       0       0       0       0
  2788 ;;      Temps:          1       0       0       0       0
  2789 ;;      Totals:         4       0       0       0       0
  2790 ;;Total ram usage:        4 bytes
  2791 ;; Hardware stack levels used: 1
  2792 ;; Hardware stack levels required when called: 2
  2793 ;; This function calls:
  2794 ;;		_lcd_dat
  2795 ;; This function is called by:
  2796 ;;		_imprimirTemperatura
  2797 ;;		_imprimirValoresLcd
  2798 ;;		_iniciarLcd
  2799 ;; This function uses a non-reentrant model
  2800 ;;
  2801                           
  2802                           
  2803                           ;psect for function _lcd_str
  2804  088C                     _lcd_str:
  2805  088C                     l1808:	
  2806                           ;incstack = 0
  2807                           ; Regs used in _lcd_str: [wreg-fsr0h+status,2+status,0+btemp+1+pclath+cstack]
  2808                           
  2809                           
  2810                           ;lcd.c: 76: void lcd_str(const char* str);lcd.c: 77: {;lcd.c: 78:  unsigned char i=0;
  2811  088C  01F5               	clrf	lcd_str@i
  2812                           
  2813                           ;lcd.c: 80:  while(str[i] != 0 )
  2814  088D  28A3               	goto	l1814
  2815  088E                     l1810:
  2816                           
  2817                           ;lcd.c: 81:  {;lcd.c: 82:    lcd_dat(str[i]);
  2818  088E  0875               	movf	lcd_str@i,w
  2819  088F  0772               	addwf	lcd_str@str,w
  2820  0890  0084               	movwf	4
  2821  0891  0873               	movf	lcd_str@str+1,w
  2822  0892  1803               	skipnc
  2823  0893  0A73               	incf	lcd_str@str+1,w
  2824  0894  00FF               	movwf	btemp+1
  2825  0895  120A  158A  2000  120A  158A  	fcall	stringtab
  2826  089A  120A  158A  2030  120A  158A  	fcall	_lcd_dat
  2827  089F                     l1812:
  2828                           
  2829                           ;lcd.c: 83:    i++;
  2830  089F  3001               	movlw	1
  2831  08A0  00F4               	movwf	??_lcd_str
  2832  08A1  0874               	movf	??_lcd_str,w
  2833  08A2  07F5               	addwf	lcd_str@i,f
  2834  08A3                     l1814:
  2835                           
  2836                           ;lcd.c: 80:  while(str[i] != 0 )
  2837  08A3  0875               	movf	lcd_str@i,w
  2838  08A4  0772               	addwf	lcd_str@str,w
  2839  08A5  0084               	movwf	4
  2840  08A6  0873               	movf	lcd_str@str+1,w
  2841  08A7  1803               	skipnc
  2842  08A8  0A73               	incf	lcd_str@str+1,w
  2843  08A9  1283               	bcf	3,5	;RP0=0, select bank0
  2844  08AA  1303               	bcf	3,6	;RP1=0, select bank0
  2845  08AB  00FF               	movwf	btemp+1
  2846  08AC  120A  158A  2000  120A  158A  	fcall	stringtab
  2847  08B1  3A00               	xorlw	0
  2848  08B2  1D03               	skipz
  2849  08B3  28B5               	goto	u1891
  2850  08B4  28B6               	goto	u1890
  2851  08B5                     u1891:
  2852  08B5  288E               	goto	l1810
  2853  08B6                     u1890:
  2854  08B6                     l210:
  2855  08B6  0008               	return
  2856  08B7                     __end_of_lcd_str:
  2857                           
  2858                           	psect	text9
  2859  0830                     __ptext9:	
  2860 ;; *************** function _lcd_dat *****************
  2861 ;; Defined at:
  2862 ;;		line 46 in file "lcd.c"
  2863 ;; Parameters:    Size  Location     Type
  2864 ;;  val             1    wreg     unsigned char 
  2865 ;; Auto vars:     Size  Location     Type
  2866 ;;  val             1    1[COMMON] unsigned char 
  2867 ;; Return value:  Size  Location     Type
  2868 ;;                  1    wreg      void 
  2869 ;; Registers used:
  2870 ;;		wreg, status,2, status,0, pclath, cstack
  2871 ;; Tracked objects:
  2872 ;;		On entry : 0/0
  2873 ;;		On exit  : 0/0
  2874 ;;		Unchanged: 0/0
  2875 ;; Data sizes:     COMMON   BANK0   BANK1   BANK3   BANK2
  2876 ;;      Params:         0       0       0       0       0
  2877 ;;      Locals:         1       0       0       0       0
  2878 ;;      Temps:          0       0       0       0       0
  2879 ;;      Totals:         1       0       0       0       0
  2880 ;;Total ram usage:        1 bytes
  2881 ;; Hardware stack levels used: 1
  2882 ;; Hardware stack levels required when called: 1
  2883 ;; This function calls:
  2884 ;;		_lcd_wr
  2885 ;; This function is called by:
  2886 ;;		_lcd_str
  2887 ;; This function uses a non-reentrant model
  2888 ;;
  2889                           
  2890                           
  2891                           ;psect for function _lcd_dat
  2892  0830                     _lcd_dat:
  2893                           
  2894                           ;incstack = 0
  2895                           ; Regs used in _lcd_dat: [wreg+status,2+status,0+pclath+cstack]
  2896                           ;lcd_dat@val stored from wreg
  2897  0830  00F1               	movwf	lcd_dat@val
  2898  0831                     l1678:
  2899                           
  2900                           ;lcd.c: 46: void lcd_dat(unsigned char val);lcd.c: 47: {;lcd.c: 48:  PORTEbits.RE1=1;
  2901  0831  1283               	bcf	3,5	;RP0=0, select bank0
  2902  0832  1303               	bcf	3,6	;RP1=0, select bank0
  2903  0833  1489               	bsf	9,1	;volatile
  2904  0834                     l1680:
  2905                           
  2906                           ;lcd.c: 49:         lcd_wr(val);
  2907  0834  0871               	movf	lcd_dat@val,w
  2908  0835  160A  118A  27A9  120A  158A  	fcall	_lcd_wr
  2909  083A                     l1682:
  2910                           
  2911                           ;lcd.c: 50:         PORTEbits.RE0=1;
  2912  083A  1283               	bcf	3,5	;RP0=0, select bank0
  2913  083B  1303               	bcf	3,6	;RP1=0, select bank0
  2914  083C  1409               	bsf	9,0	;volatile
  2915  083D                     l1684:
  2916                           
  2917                           ;lcd.c: 52:         PORTEbits.RE1=0;
  2918  083D  1089               	bcf	9,1	;volatile
  2919  083E                     l1686:
  2920                           
  2921                           ;lcd.c: 54:  PORTEbits.RE1=1;
  2922  083E  1489               	bsf	9,1	;volatile
  2923  083F                     l201:
  2924  083F  0008               	return
  2925  0840                     __end_of_lcd_dat:
  2926                           
  2927                           	psect	text10
  2928  17D4                     __ptext10:	
  2929 ;; *************** function _lcd_cmd *****************
  2930 ;; Defined at:
  2931 ;;		line 35 in file "lcd.c"
  2932 ;; Parameters:    Size  Location     Type
  2933 ;;  val             1    wreg     unsigned char 
  2934 ;; Auto vars:     Size  Location     Type
  2935 ;;  val             1    1[COMMON] unsigned char 
  2936 ;; Return value:  Size  Location     Type
  2937 ;;                  1    wreg      void 
  2938 ;; Registers used:
  2939 ;;		wreg, status,2, status,0, pclath, cstack
  2940 ;; Tracked objects:
  2941 ;;		On entry : 0/0
  2942 ;;		On exit  : 0/0
  2943 ;;		Unchanged: 0/0
  2944 ;; Data sizes:     COMMON   BANK0   BANK1   BANK3   BANK2
  2945 ;;      Params:         0       0       0       0       0
  2946 ;;      Locals:         1       0       0       0       0
  2947 ;;      Temps:          0       0       0       0       0
  2948 ;;      Totals:         1       0       0       0       0
  2949 ;;Total ram usage:        1 bytes
  2950 ;; Hardware stack levels used: 1
  2951 ;; Hardware stack levels required when called: 1
  2952 ;; This function calls:
  2953 ;;		_lcd_wr
  2954 ;; This function is called by:
  2955 ;;		_imprimirTemperatura
  2956 ;;		_imprimirValoresLcd
  2957 ;;		_iniciarLcd
  2958 ;;		_lcd_init
  2959 ;; This function uses a non-reentrant model
  2960 ;;
  2961                           
  2962                           
  2963                           ;psect for function _lcd_cmd
  2964  17D4                     _lcd_cmd:
  2965                           
  2966                           ;incstack = 0
  2967                           ; Regs used in _lcd_cmd: [wreg+status,2+status,0+pclath+cstack]
  2968                           ;lcd_cmd@val stored from wreg
  2969  17D4  00F1               	movwf	lcd_cmd@val
  2970  17D5                     l1736:
  2971                           
  2972                           ;lcd.c: 35: void lcd_cmd(unsigned char val);lcd.c: 36: {;lcd.c: 37:  PORTEbits.RE1=1;
  2973  17D5  1283               	bcf	3,5	;RP0=0, select bank0
  2974  17D6  1303               	bcf	3,6	;RP1=0, select bank0
  2975  17D7  1489               	bsf	9,1	;volatile
  2976  17D8                     l1738:
  2977                           
  2978                           ;lcd.c: 38:         lcd_wr(val);
  2979  17D8  0871               	movf	lcd_cmd@val,w
  2980  17D9  160A  118A  27A9  160A  118A  	fcall	_lcd_wr
  2981  17DE                     l1740:
  2982                           
  2983                           ;lcd.c: 39:         PORTEbits.RE0=0;
  2984  17DE  1283               	bcf	3,5	;RP0=0, select bank0
  2985  17DF  1303               	bcf	3,6	;RP1=0, select bank0
  2986  17E0  1009               	bcf	9,0	;volatile
  2987  17E1                     l1742:
  2988                           
  2989                           ;lcd.c: 41:         PORTEbits.RE1=0;
  2990  17E1  1089               	bcf	9,1	;volatile
  2991  17E2                     l1744:
  2992                           
  2993                           ;lcd.c: 43:  PORTEbits.RE1=1;
  2994  17E2  1489               	bsf	9,1	;volatile
  2995  17E3                     l198:
  2996  17E3  0008               	return
  2997  17E4                     __end_of_lcd_cmd:
  2998                           
  2999                           	psect	text11
  3000  17A9                     __ptext11:	
  3001 ;; *************** function _lcd_wr *****************
  3002 ;; Defined at:
  3003 ;;		line 30 in file "lcd.c"
  3004 ;; Parameters:    Size  Location     Type
  3005 ;;  val             1    wreg     unsigned char 
  3006 ;; Auto vars:     Size  Location     Type
  3007 ;;  val             1    0[COMMON] unsigned char 
  3008 ;; Return value:  Size  Location     Type
  3009 ;;                  1    wreg      void 
  3010 ;; Registers used:
  3011 ;;		wreg
  3012 ;; Tracked objects:
  3013 ;;		On entry : 0/0
  3014 ;;		On exit  : 0/0
  3015 ;;		Unchanged: 0/0
  3016 ;; Data sizes:     COMMON   BANK0   BANK1   BANK3   BANK2
  3017 ;;      Params:         0       0       0       0       0
  3018 ;;      Locals:         1       0       0       0       0
  3019 ;;      Temps:          0       0       0       0       0
  3020 ;;      Totals:         1       0       0       0       0
  3021 ;;Total ram usage:        1 bytes
  3022 ;; Hardware stack levels used: 1
  3023 ;; This function calls:
  3024 ;;		Nothing
  3025 ;; This function is called by:
  3026 ;;		_lcd_cmd
  3027 ;;		_lcd_dat
  3028 ;; This function uses a non-reentrant model
  3029 ;;
  3030                           
  3031                           
  3032                           ;psect for function _lcd_wr
  3033  17A9                     _lcd_wr:
  3034                           
  3035                           ;incstack = 0
  3036                           ; Regs used in _lcd_wr: [wreg]
  3037                           ;lcd_wr@val stored from wreg
  3038  17A9  00F0               	movwf	lcd_wr@val
  3039  17AA                     l1676:
  3040                           
  3041                           ;lcd.c: 30: void lcd_wr(unsigned char val);lcd.c: 31: {;lcd.c: 32:   PORTD=val;
  3042  17AA  0870               	movf	lcd_wr@val,w
  3043  17AB  1283               	bcf	3,5	;RP0=0, select bank0
  3044  17AC  1303               	bcf	3,6	;RP1=0, select bank0
  3045  17AD  0088               	movwf	8	;volatile
  3046  17AE                     l195:
  3047  17AE  0008               	return
  3048  17AF                     __end_of_lcd_wr:
  3049                           
  3050                           	psect	text12
  3051  17E4                     __ptext12:	
  3052 ;; *************** function _controleMaximoMinimo *****************
  3053 ;; Defined at:
  3054 ;;		line 106 in file "main.c"
  3055 ;; Parameters:    Size  Location     Type
  3056 ;;  valor           2   12[BANK0 ] int 
  3057 ;; Auto vars:     Size  Location     Type
  3058 ;;		None
  3059 ;; Return value:  Size  Location     Type
  3060 ;;                  2   12[BANK0 ] int 
  3061 ;; Registers used:
  3062 ;;		wreg, status,2, btemp+1
  3063 ;; Tracked objects:
  3064 ;;		On entry : 0/0
  3065 ;;		On exit  : 0/0
  3066 ;;		Unchanged: 0/0
  3067 ;; Data sizes:     COMMON   BANK0   BANK1   BANK3   BANK2
  3068 ;;      Params:         0       2       0       0       0
  3069 ;;      Locals:         0       0       0       0       0
  3070 ;;      Temps:          0       0       0       0       0
  3071 ;;      Totals:         0       2       0       0       0
  3072 ;;Total ram usage:        2 bytes
  3073 ;; Hardware stack levels used: 1
  3074 ;; This function calls:
  3075 ;;		Nothing
  3076 ;; This function is called by:
  3077 ;;		_main
  3078 ;; This function uses a non-reentrant model
  3079 ;;
  3080                           
  3081                           
  3082                           ;psect for function _controleMaximoMinimo
  3083  17E4                     _controleMaximoMinimo:
  3084  17E4                     l2372:	
  3085                           ;incstack = 0
  3086                           ; Regs used in _controleMaximoMinimo: [wreg+status,2+btemp+1]
  3087                           
  3088                           
  3089                           ;main.c: 107:     if (valor < 0){
  3090  17E4  1283               	bcf	3,5	;RP0=0, select bank0
  3091  17E5  1303               	bcf	3,6	;RP1=0, select bank0
  3092  17E6  1FAD               	btfss	controleMaximoMinimo@valor+1,7
  3093  17E7  2FE9               	goto	u3211
  3094  17E8  2FEA               	goto	u3210
  3095  17E9                     u3211:
  3096  17E9  2FEC               	goto	l2376
  3097  17EA                     u3210:
  3098  17EA                     l2374:
  3099                           
  3100                           ;main.c: 108:         valor = 0;
  3101  17EA  01AC               	clrf	controleMaximoMinimo@valor
  3102  17EB  01AD               	clrf	controleMaximoMinimo@valor+1
  3103  17EC                     l2376:
  3104                           
  3105                           ;main.c: 111:     if (valor > 1023){
  3106  17EC  082D               	movf	controleMaximoMinimo@valor+1,w
  3107  17ED  3A80               	xorlw	128
  3108  17EE  00FF               	movwf	btemp+1
  3109  17EF  3084               	movlw	132
  3110  17F0  027F               	subwf	btemp+1,w
  3111  17F1  1D03               	skipz
  3112  17F2  2FF5               	goto	u3225
  3113  17F3  3000               	movlw	0
  3114  17F4  022C               	subwf	controleMaximoMinimo@valor,w
  3115  17F5                     u3225:
  3116  17F5  1C03               	skipc
  3117  17F6  2FF8               	goto	u3221
  3118  17F7  2FF9               	goto	u3220
  3119  17F8                     u3221:
  3120  17F8  2FFF               	goto	l2380
  3121  17F9                     u3220:
  3122  17F9                     l2378:
  3123                           
  3124                           ;main.c: 112:         valor = 1023;
  3125  17F9  30FF               	movlw	255
  3126  17FA  1283               	bcf	3,5	;RP0=0, select bank0
  3127  17FB  1303               	bcf	3,6	;RP1=0, select bank0
  3128  17FC  00AC               	movwf	controleMaximoMinimo@valor
  3129  17FD  3003               	movlw	3
  3130  17FE  00AD               	movwf	controleMaximoMinimo@valor+1
  3131  17FF                     l2380:
  3132  17FF                     l170:	
  3133                           ;main.c: 115:     return valor;
  3134                           
  3135  17FF  0008               	return
  3136  1800                     __end_of_controleMaximoMinimo:
  3137                           
  3138                           	psect	text13
  3139  0C05                     __ptext13:	
  3140 ;; *************** function _controlarValores *****************
  3141 ;; Defined at:
  3142 ;;		line 50 in file "main.c"
  3143 ;; Parameters:    Size  Location     Type
  3144 ;;		None
  3145 ;; Auto vars:     Size  Location     Type
  3146 ;;		None
  3147 ;; Return value:  Size  Location     Type
  3148 ;;                  1    wreg      void 
  3149 ;; Registers used:
  3150 ;;		wreg, status,2, status,0
  3151 ;; Tracked objects:
  3152 ;;		On entry : 0/0
  3153 ;;		On exit  : 0/0
  3154 ;;		Unchanged: 0/0
  3155 ;; Data sizes:     COMMON   BANK0   BANK1   BANK3   BANK2
  3156 ;;      Params:         0       0       0       0       0
  3157 ;;      Locals:         0       0       0       0       0
  3158 ;;      Temps:          1       0       0       0       0
  3159 ;;      Totals:         1       0       0       0       0
  3160 ;;Total ram usage:        1 bytes
  3161 ;; Hardware stack levels used: 1
  3162 ;; This function calls:
  3163 ;;		Nothing
  3164 ;; This function is called by:
  3165 ;;		_main
  3166 ;; This function uses a non-reentrant model
  3167 ;;
  3168                           
  3169                           
  3170                           ;psect for function _controlarValores
  3171  0C05                     _controlarValores:
  3172  0C05                     l2324:	
  3173                           ;incstack = 0
  3174                           ; Regs used in _controlarValores: [wreg+status,2+status,0]
  3175                           
  3176                           
  3177                           ;main.c: 51:     static char S1Anterior;;main.c: 52:     static char S1Atual;;main.c: 53
      +                          :     static char S2Anterior;;main.c: 54:     static char S2Atual;;main.c: 55:     stati
      +                          c char S3Anterior;;main.c: 56:     static char S3Atual;;main.c: 57:     static char S4An
      +                          terior;;main.c: 58:     static char S4Atual;;main.c: 60:     S1Atual = RB0;
  3178  0C05  3000               	movlw	0
  3179  0C06  1283               	bcf	3,5	;RP0=0, select bank0
  3180  0C07  1303               	bcf	3,6	;RP1=0, select bank0
  3181  0C08  1806               	btfsc	6,0	;volatile
  3182  0C09  3001               	movlw	1
  3183  0C0A  1683               	bsf	3,5	;RP0=1, select bank1
  3184  0C0B  1303               	bcf	3,6	;RP1=0, select bank1
  3185  0C0C  00AC               	movwf	controlarValores@S1Atual^(0+128)
  3186  0C0D                     l2326:
  3187                           
  3188                           ;main.c: 62:     if((S1Atual)&&(!S1Anterior)){
  3189  0C0D  082C               	movf	controlarValores@S1Atual^(0+128),w
  3190  0C0E  1903               	btfsc	3,2
  3191  0C0F  2C11               	goto	u3091
  3192  0C10  2C12               	goto	u3090
  3193  0C11                     u3091:
  3194  0C11  2C2A               	goto	l153
  3195  0C12                     u3090:
  3196  0C12                     l2328:
  3197  0C12  082D               	movf	controlarValores@S1Anterior^(0+128),w
  3198  0C13  1D03               	btfss	3,2
  3199  0C14  2C16               	goto	u3101
  3200  0C15  2C17               	goto	u3100
  3201  0C16                     u3101:
  3202  0C16  2C2A               	goto	l153
  3203  0C17                     u3100:
  3204  0C17                     l2330:
  3205                           
  3206                           ;main.c: 63:         if (menu != 1){
  3207  0C17  0366               	decf	_menu^(0+128),w
  3208  0C18  0467               	iorwf	(_menu+1)^(0+128),w
  3209  0C19  1903               	btfsc	3,2
  3210  0C1A  2C1C               	goto	u3111
  3211  0C1B  2C1D               	goto	u3110
  3212  0C1C                     u3111:
  3213  0C1C  2C24               	goto	l2334
  3214  0C1D                     u3110:
  3215  0C1D                     l2332:
  3216                           
  3217                           ;main.c: 64:             setPoint += 100;
  3218  0C1D  3064               	movlw	100
  3219  0C1E  07E4               	addwf	_setPoint^(0+128),f
  3220  0C1F  1803               	skipnc
  3221  0C20  0AE5               	incf	(_setPoint+1)^(0+128),f
  3222  0C21  3000               	movlw	0
  3223  0C22  07E5               	addwf	(_setPoint+1)^(0+128),f
  3224                           
  3225                           ;main.c: 65:         } else {
  3226  0C23  2C2A               	goto	l153
  3227  0C24                     l2334:
  3228                           
  3229                           ;main.c: 66:             kp += 100;
  3230  0C24  3064               	movlw	100
  3231  0C25  07E2               	addwf	_kp^(0+128),f
  3232  0C26  1803               	skipnc
  3233  0C27  0AE3               	incf	(_kp+1)^(0+128),f
  3234  0C28  3000               	movlw	0
  3235  0C29  07E3               	addwf	(_kp+1)^(0+128),f
  3236  0C2A                     l153:	
  3237                           ;main.c: 68:     }
  3238                           
  3239                           
  3240                           ;main.c: 70:     S1Anterior = S1Atual;
  3241  0C2A  082C               	movf	controlarValores@S1Atual^(0+128),w
  3242  0C2B  00F0               	movwf	??_controlarValores
  3243  0C2C  0870               	movf	??_controlarValores,w
  3244  0C2D  00AD               	movwf	controlarValores@S1Anterior^(0+128)
  3245  0C2E                     l2336:
  3246                           
  3247                           ;main.c: 71:     S2Atual = RB1;
  3248  0C2E  3000               	movlw	0
  3249  0C2F  1283               	bcf	3,5	;RP0=0, select bank0
  3250  0C30  1303               	bcf	3,6	;RP1=0, select bank0
  3251  0C31  1886               	btfsc	6,1	;volatile
  3252  0C32  3001               	movlw	1
  3253  0C33  1683               	bsf	3,5	;RP0=1, select bank1
  3254  0C34  1303               	bcf	3,6	;RP1=0, select bank1
  3255  0C35  00AA               	movwf	controlarValores@S2Atual^(0+128)
  3256  0C36                     l2338:
  3257                           
  3258                           ;main.c: 73:     if((S2Atual)&&(!S2Anterior)){
  3259  0C36  082A               	movf	controlarValores@S2Atual^(0+128),w
  3260  0C37  1903               	btfsc	3,2
  3261  0C38  2C3A               	goto	u3121
  3262  0C39  2C3B               	goto	u3120
  3263  0C3A                     u3121:
  3264  0C3A  2C53               	goto	l156
  3265  0C3B                     u3120:
  3266  0C3B                     l2340:
  3267  0C3B  082B               	movf	controlarValores@S2Anterior^(0+128),w
  3268  0C3C  1D03               	btfss	3,2
  3269  0C3D  2C3F               	goto	u3131
  3270  0C3E  2C40               	goto	u3130
  3271  0C3F                     u3131:
  3272  0C3F  2C53               	goto	l156
  3273  0C40                     u3130:
  3274  0C40                     l2342:
  3275                           
  3276                           ;main.c: 74:         if (menu != 1){
  3277  0C40  0366               	decf	_menu^(0+128),w
  3278  0C41  0467               	iorwf	(_menu+1)^(0+128),w
  3279  0C42  1903               	btfsc	3,2
  3280  0C43  2C45               	goto	u3141
  3281  0C44  2C46               	goto	u3140
  3282  0C45                     u3141:
  3283  0C45  2C4D               	goto	l2346
  3284  0C46                     u3140:
  3285  0C46                     l2344:
  3286                           
  3287                           ;main.c: 75:             setPoint -= 100;
  3288  0C46  309C               	movlw	156
  3289  0C47  07E4               	addwf	_setPoint^(0+128),f
  3290  0C48  1803               	skipnc
  3291  0C49  0AE5               	incf	(_setPoint+1)^(0+128),f
  3292  0C4A  30FF               	movlw	255
  3293  0C4B  07E5               	addwf	(_setPoint+1)^(0+128),f
  3294                           
  3295                           ;main.c: 76:         } else {
  3296  0C4C  2C53               	goto	l156
  3297  0C4D                     l2346:
  3298                           
  3299                           ;main.c: 77:             kp -= 100;
  3300  0C4D  309C               	movlw	156
  3301  0C4E  07E2               	addwf	_kp^(0+128),f
  3302  0C4F  1803               	skipnc
  3303  0C50  0AE3               	incf	(_kp+1)^(0+128),f
  3304  0C51  30FF               	movlw	255
  3305  0C52  07E3               	addwf	(_kp+1)^(0+128),f
  3306  0C53                     l156:	
  3307                           ;main.c: 79:     }
  3308                           
  3309                           
  3310                           ;main.c: 81:     S2Anterior = S2Atual;
  3311  0C53  082A               	movf	controlarValores@S2Atual^(0+128),w
  3312  0C54  00F0               	movwf	??_controlarValores
  3313  0C55  0870               	movf	??_controlarValores,w
  3314  0C56  00AB               	movwf	controlarValores@S2Anterior^(0+128)
  3315  0C57                     l2348:
  3316                           
  3317                           ;main.c: 82:     S3Atual = RB2;
  3318  0C57  3000               	movlw	0
  3319  0C58  1283               	bcf	3,5	;RP0=0, select bank0
  3320  0C59  1303               	bcf	3,6	;RP1=0, select bank0
  3321  0C5A  1906               	btfsc	6,2	;volatile
  3322  0C5B  3001               	movlw	1
  3323  0C5C  1683               	bsf	3,5	;RP0=1, select bank1
  3324  0C5D  1303               	bcf	3,6	;RP1=0, select bank1
  3325  0C5E  00A8               	movwf	controlarValores@S3Atual^(0+128)
  3326  0C5F                     l2350:
  3327                           
  3328                           ;main.c: 84:     if((S3Atual)&&(!S3Anterior)){
  3329  0C5F  0828               	movf	controlarValores@S3Atual^(0+128),w
  3330  0C60  1903               	btfsc	3,2
  3331  0C61  2C63               	goto	u3151
  3332  0C62  2C64               	goto	u3150
  3333  0C63                     u3151:
  3334  0C63  2C7C               	goto	l159
  3335  0C64                     u3150:
  3336  0C64                     l2352:
  3337  0C64  0829               	movf	controlarValores@S3Anterior^(0+128),w
  3338  0C65  1D03               	btfss	3,2
  3339  0C66  2C68               	goto	u3161
  3340  0C67  2C69               	goto	u3160
  3341  0C68                     u3161:
  3342  0C68  2C7C               	goto	l159
  3343  0C69                     u3160:
  3344  0C69                     l2354:
  3345                           
  3346                           ;main.c: 85:         if (menu != 1){
  3347  0C69  0366               	decf	_menu^(0+128),w
  3348  0C6A  0467               	iorwf	(_menu+1)^(0+128),w
  3349  0C6B  1903               	btfsc	3,2
  3350  0C6C  2C6E               	goto	u3171
  3351  0C6D  2C6F               	goto	u3170
  3352  0C6E                     u3171:
  3353  0C6E  2C76               	goto	l2358
  3354  0C6F                     u3170:
  3355  0C6F                     l2356:
  3356                           
  3357                           ;main.c: 86:             setPoint += 10;
  3358  0C6F  300A               	movlw	10
  3359  0C70  07E4               	addwf	_setPoint^(0+128),f
  3360  0C71  1803               	skipnc
  3361  0C72  0AE5               	incf	(_setPoint+1)^(0+128),f
  3362  0C73  3000               	movlw	0
  3363  0C74  07E5               	addwf	(_setPoint+1)^(0+128),f
  3364                           
  3365                           ;main.c: 87:         } else {
  3366  0C75  2C7C               	goto	l159
  3367  0C76                     l2358:
  3368                           
  3369                           ;main.c: 88:             kp +=10;
  3370  0C76  300A               	movlw	10
  3371  0C77  07E2               	addwf	_kp^(0+128),f
  3372  0C78  1803               	skipnc
  3373  0C79  0AE3               	incf	(_kp+1)^(0+128),f
  3374  0C7A  3000               	movlw	0
  3375  0C7B  07E3               	addwf	(_kp+1)^(0+128),f
  3376  0C7C                     l159:	
  3377                           ;main.c: 90:     }
  3378                           
  3379                           
  3380                           ;main.c: 92:     S3Anterior = S3Atual;
  3381  0C7C  0828               	movf	controlarValores@S3Atual^(0+128),w
  3382  0C7D  00F0               	movwf	??_controlarValores
  3383  0C7E  0870               	movf	??_controlarValores,w
  3384  0C7F  00A9               	movwf	controlarValores@S3Anterior^(0+128)
  3385  0C80                     l2360:
  3386                           
  3387                           ;main.c: 93:     S4Atual = RB3;
  3388  0C80  3000               	movlw	0
  3389  0C81  1283               	bcf	3,5	;RP0=0, select bank0
  3390  0C82  1303               	bcf	3,6	;RP1=0, select bank0
  3391  0C83  1986               	btfsc	6,3	;volatile
  3392  0C84  3001               	movlw	1
  3393  0C85  1683               	bsf	3,5	;RP0=1, select bank1
  3394  0C86  1303               	bcf	3,6	;RP1=0, select bank1
  3395  0C87  00A6               	movwf	controlarValores@S4Atual^(0+128)
  3396  0C88                     l2362:
  3397                           
  3398                           ;main.c: 95:     if((S4Atual)&&(!S4Anterior)){
  3399  0C88  0826               	movf	controlarValores@S4Atual^(0+128),w
  3400  0C89  1903               	btfsc	3,2
  3401  0C8A  2C8C               	goto	u3181
  3402  0C8B  2C8D               	goto	u3180
  3403  0C8C                     u3181:
  3404  0C8C  2CA1               	goto	l162
  3405  0C8D                     u3180:
  3406  0C8D                     l2364:
  3407  0C8D  0827               	movf	controlarValores@S4Anterior^(0+128),w
  3408  0C8E  1D03               	btfss	3,2
  3409  0C8F  2C91               	goto	u3191
  3410  0C90  2C92               	goto	u3190
  3411  0C91                     u3191:
  3412  0C91  2CA1               	goto	l162
  3413  0C92                     u3190:
  3414  0C92                     l2366:
  3415                           
  3416                           ;main.c: 96:         if (menu == 1){
  3417  0C92  0366               	decf	_menu^(0+128),w
  3418  0C93  0467               	iorwf	(_menu+1)^(0+128),w
  3419  0C94  1D03               	btfss	3,2
  3420  0C95  2C97               	goto	u3201
  3421  0C96  2C98               	goto	u3200
  3422  0C97                     u3201:
  3423  0C97  2C9D               	goto	l2370
  3424  0C98                     u3200:
  3425  0C98                     l2368:
  3426                           
  3427                           ;main.c: 97:             menu = 2;
  3428  0C98  3002               	movlw	2
  3429  0C99  00E6               	movwf	_menu^(0+128)
  3430  0C9A  3000               	movlw	0
  3431  0C9B  00E7               	movwf	(_menu^(0+128)+1)
  3432                           
  3433                           ;main.c: 98:         } else {
  3434  0C9C  2CA1               	goto	l162
  3435  0C9D                     l2370:
  3436                           
  3437                           ;main.c: 99:             menu = 1;
  3438  0C9D  3001               	movlw	1
  3439  0C9E  00E6               	movwf	_menu^(0+128)
  3440  0C9F  3000               	movlw	0
  3441  0CA0  00E7               	movwf	(_menu^(0+128)+1)
  3442  0CA1                     l162:	
  3443                           ;main.c: 101:     }
  3444                           
  3445                           
  3446                           ;main.c: 103:     S4Anterior = S4Atual;
  3447  0CA1  0826               	movf	controlarValores@S4Atual^(0+128),w
  3448  0CA2  00F0               	movwf	??_controlarValores
  3449  0CA3  0870               	movf	??_controlarValores,w
  3450  0CA4  00A7               	movwf	controlarValores@S4Anterior^(0+128)
  3451  0CA5                     l165:
  3452  0CA5  0008               	return
  3453  0CA6                     __end_of_controlarValores:
  3454                           
  3455                           	psect	text14
  3456  0840                     __ptext14:	
  3457 ;; *************** function ___wmul *****************
  3458 ;; Defined at:
  3459 ;;		line 15 in file "C:\Program Files\Microchip\xc8\v2.32\pic\sources\c90\common\Umul16.c"
  3460 ;; Parameters:    Size  Location     Type
  3461 ;;  multiplier      2    5[COMMON] unsigned int 
  3462 ;;  multiplicand    2    7[COMMON] unsigned int 
  3463 ;; Auto vars:     Size  Location     Type
  3464 ;;  product         2    9[COMMON] unsigned int 
  3465 ;; Return value:  Size  Location     Type
  3466 ;;                  2    5[COMMON] unsigned int 
  3467 ;; Registers used:
  3468 ;;		wreg, status,2, status,0
  3469 ;; Tracked objects:
  3470 ;;		On entry : 0/0
  3471 ;;		On exit  : 0/0
  3472 ;;		Unchanged: 0/0
  3473 ;; Data sizes:     COMMON   BANK0   BANK1   BANK3   BANK2
  3474 ;;      Params:         4       0       0       0       0
  3475 ;;      Locals:         2       0       0       0       0
  3476 ;;      Temps:          0       0       0       0       0
  3477 ;;      Totals:         6       0       0       0       0
  3478 ;;Total ram usage:        6 bytes
  3479 ;; Hardware stack levels used: 1
  3480 ;; This function calls:
  3481 ;;		Nothing
  3482 ;; This function is called by:
  3483 ;;		_main
  3484 ;; This function uses a non-reentrant model
  3485 ;;
  3486                           
  3487                           
  3488                           ;psect for function ___wmul
  3489  0840                     ___wmul:
  3490  0840                     l2400:	
  3491                           ;incstack = 0
  3492                           ; Regs used in ___wmul: [wreg+status,2+status,0]
  3493                           
  3494  0840  01F9               	clrf	___wmul@product
  3495  0841  01FA               	clrf	___wmul@product+1
  3496  0842                     l2402:
  3497  0842  1C75               	btfss	___wmul@multiplier,0
  3498  0843  2845               	goto	u3231
  3499  0844  2846               	goto	u3230
  3500  0845                     u3231:
  3501  0845  284C               	goto	l324
  3502  0846                     u3230:
  3503  0846                     l2404:
  3504  0846  0877               	movf	___wmul@multiplicand,w
  3505  0847  07F9               	addwf	___wmul@product,f
  3506  0848  1803               	skipnc
  3507  0849  0AFA               	incf	___wmul@product+1,f
  3508  084A  0878               	movf	___wmul@multiplicand+1,w
  3509  084B  07FA               	addwf	___wmul@product+1,f
  3510  084C                     l324:
  3511  084C  3001               	movlw	1
  3512  084D                     u3245:
  3513  084D  1003               	clrc
  3514  084E  0DF7               	rlf	___wmul@multiplicand,f
  3515  084F  0DF8               	rlf	___wmul@multiplicand+1,f
  3516  0850  3EFF               	addlw	-1
  3517  0851  1D03               	skipz
  3518  0852  284D               	goto	u3245
  3519  0853                     l2406:
  3520  0853  3001               	movlw	1
  3521  0854                     u3255:
  3522  0854  1003               	clrc
  3523  0855  0CF6               	rrf	___wmul@multiplier+1,f
  3524  0856  0CF5               	rrf	___wmul@multiplier,f
  3525  0857  3EFF               	addlw	-1
  3526  0858  1D03               	skipz
  3527  0859  2854               	goto	u3255
  3528  085A                     l2408:
  3529  085A  0875               	movf	___wmul@multiplier,w
  3530  085B  0476               	iorwf	___wmul@multiplier+1,w
  3531  085C  1D03               	btfss	3,2
  3532  085D  285F               	goto	u3261
  3533  085E  2860               	goto	u3260
  3534  085F                     u3261:
  3535  085F  2842               	goto	l2402
  3536  0860                     u3260:
  3537  0860                     l2410:
  3538  0860  087A               	movf	___wmul@product+1,w
  3539  0861  00F6               	movwf	?___wmul+1
  3540  0862  0879               	movf	___wmul@product,w
  3541  0863  00F5               	movwf	?___wmul
  3542  0864                     l326:
  3543  0864  0008               	return
  3544  0865                     __end_of___wmul:
  3545                           
  3546                           	psect	text15
  3547  0A16                     __ptext15:	
  3548 ;; *************** function ___awdiv *****************
  3549 ;; Defined at:
  3550 ;;		line 5 in file "C:\Program Files\Microchip\xc8\v2.32\pic\sources\c90\common\awdiv.c"
  3551 ;; Parameters:    Size  Location     Type
  3552 ;;  divisor         2    0[COMMON] int 
  3553 ;;  dividend        2    2[COMMON] int 
  3554 ;; Auto vars:     Size  Location     Type
  3555 ;;  quotient        2    7[COMMON] int 
  3556 ;;  sign            1    6[COMMON] unsigned char 
  3557 ;;  counter         1    5[COMMON] unsigned char 
  3558 ;; Return value:  Size  Location     Type
  3559 ;;                  2    0[COMMON] int 
  3560 ;; Registers used:
  3561 ;;		wreg, status,2, status,0
  3562 ;; Tracked objects:
  3563 ;;		On entry : 0/0
  3564 ;;		On exit  : 0/0
  3565 ;;		Unchanged: 0/0
  3566 ;; Data sizes:     COMMON   BANK0   BANK1   BANK3   BANK2
  3567 ;;      Params:         4       0       0       0       0
  3568 ;;      Locals:         4       0       0       0       0
  3569 ;;      Temps:          1       0       0       0       0
  3570 ;;      Totals:         9       0       0       0       0
  3571 ;;Total ram usage:        9 bytes
  3572 ;; Hardware stack levels used: 1
  3573 ;; This function calls:
  3574 ;;		Nothing
  3575 ;; This function is called by:
  3576 ;;		_main
  3577 ;; This function uses a non-reentrant model
  3578 ;;
  3579                           
  3580                           
  3581                           ;psect for function ___awdiv
  3582  0A16                     ___awdiv:
  3583  0A16                     l2414:	
  3584                           ;incstack = 0
  3585                           ; Regs used in ___awdiv: [wreg+status,2+status,0]
  3586                           
  3587  0A16  01F6               	clrf	___awdiv@sign
  3588  0A17                     l2416:
  3589  0A17  1FF1               	btfss	___awdiv@divisor+1,7
  3590  0A18  2A1A               	goto	u3271
  3591  0A19  2A1B               	goto	u3270
  3592  0A1A                     u3271:
  3593  0A1A  2A22               	goto	l2422
  3594  0A1B                     u3270:
  3595  0A1B                     l2418:
  3596  0A1B  09F0               	comf	___awdiv@divisor,f
  3597  0A1C  09F1               	comf	___awdiv@divisor+1,f
  3598  0A1D  0AF0               	incf	___awdiv@divisor,f
  3599  0A1E  1903               	skipnz
  3600  0A1F  0AF1               	incf	___awdiv@divisor+1,f
  3601  0A20                     l2420:
  3602  0A20  01F6               	clrf	___awdiv@sign
  3603  0A21  0AF6               	incf	___awdiv@sign,f
  3604  0A22                     l2422:
  3605  0A22  1FF3               	btfss	___awdiv@dividend+1,7
  3606  0A23  2A25               	goto	u3281
  3607  0A24  2A26               	goto	u3280
  3608  0A25                     u3281:
  3609  0A25  2A2F               	goto	l2428
  3610  0A26                     u3280:
  3611  0A26                     l2424:
  3612  0A26  09F2               	comf	___awdiv@dividend,f
  3613  0A27  09F3               	comf	___awdiv@dividend+1,f
  3614  0A28  0AF2               	incf	___awdiv@dividend,f
  3615  0A29  1903               	skipnz
  3616  0A2A  0AF3               	incf	___awdiv@dividend+1,f
  3617  0A2B                     l2426:
  3618  0A2B  3001               	movlw	1
  3619  0A2C  00F4               	movwf	??___awdiv
  3620  0A2D  0874               	movf	??___awdiv,w
  3621  0A2E  06F6               	xorwf	___awdiv@sign,f
  3622  0A2F                     l2428:
  3623  0A2F  01F7               	clrf	___awdiv@quotient
  3624  0A30  01F8               	clrf	___awdiv@quotient+1
  3625  0A31                     l2430:
  3626  0A31  0870               	movf	___awdiv@divisor,w
  3627  0A32  0471               	iorwf	___awdiv@divisor+1,w
  3628  0A33  1903               	btfsc	3,2
  3629  0A34  2A36               	goto	u3291
  3630  0A35  2A37               	goto	u3290
  3631  0A36                     u3291:
  3632  0A36  2A6E               	goto	l2450
  3633  0A37                     u3290:
  3634  0A37                     l2432:
  3635  0A37  01F5               	clrf	___awdiv@counter
  3636  0A38  0AF5               	incf	___awdiv@counter,f
  3637  0A39  2A45               	goto	l2438
  3638  0A3A                     l2434:
  3639  0A3A  3001               	movlw	1
  3640  0A3B                     u3305:
  3641  0A3B  1003               	clrc
  3642  0A3C  0DF0               	rlf	___awdiv@divisor,f
  3643  0A3D  0DF1               	rlf	___awdiv@divisor+1,f
  3644  0A3E  3EFF               	addlw	-1
  3645  0A3F  1D03               	skipz
  3646  0A40  2A3B               	goto	u3305
  3647  0A41                     l2436:
  3648  0A41  3001               	movlw	1
  3649  0A42  00F4               	movwf	??___awdiv
  3650  0A43  0874               	movf	??___awdiv,w
  3651  0A44  07F5               	addwf	___awdiv@counter,f
  3652  0A45                     l2438:
  3653  0A45  1FF1               	btfss	___awdiv@divisor+1,7
  3654  0A46  2A48               	goto	u3311
  3655  0A47  2A49               	goto	u3310
  3656  0A48                     u3311:
  3657  0A48  2A3A               	goto	l2434
  3658  0A49                     u3310:
  3659  0A49                     l2440:
  3660  0A49  3001               	movlw	1
  3661  0A4A                     u3325:
  3662  0A4A  1003               	clrc
  3663  0A4B  0DF7               	rlf	___awdiv@quotient,f
  3664  0A4C  0DF8               	rlf	___awdiv@quotient+1,f
  3665  0A4D  3EFF               	addlw	-1
  3666  0A4E  1D03               	skipz
  3667  0A4F  2A4A               	goto	u3325
  3668  0A50  0871               	movf	___awdiv@divisor+1,w
  3669  0A51  0273               	subwf	___awdiv@dividend+1,w
  3670  0A52  1D03               	skipz
  3671  0A53  2A56               	goto	u3335
  3672  0A54  0870               	movf	___awdiv@divisor,w
  3673  0A55  0272               	subwf	___awdiv@dividend,w
  3674  0A56                     u3335:
  3675  0A56  1C03               	skipc
  3676  0A57  2A59               	goto	u3331
  3677  0A58  2A5A               	goto	u3330
  3678  0A59                     u3331:
  3679  0A59  2A61               	goto	l2446
  3680  0A5A                     u3330:
  3681  0A5A                     l2442:
  3682  0A5A  0870               	movf	___awdiv@divisor,w
  3683  0A5B  02F2               	subwf	___awdiv@dividend,f
  3684  0A5C  0871               	movf	___awdiv@divisor+1,w
  3685  0A5D  1C03               	skipc
  3686  0A5E  03F3               	decf	___awdiv@dividend+1,f
  3687  0A5F  02F3               	subwf	___awdiv@dividend+1,f
  3688  0A60                     l2444:
  3689  0A60  1477               	bsf	___awdiv@quotient,0
  3690  0A61                     l2446:
  3691  0A61  3001               	movlw	1
  3692  0A62                     u3345:
  3693  0A62  1003               	clrc
  3694  0A63  0CF1               	rrf	___awdiv@divisor+1,f
  3695  0A64  0CF0               	rrf	___awdiv@divisor,f
  3696  0A65  3EFF               	addlw	-1
  3697  0A66  1D03               	skipz
  3698  0A67  2A62               	goto	u3345
  3699  0A68                     l2448:
  3700  0A68  3001               	movlw	1
  3701  0A69  02F5               	subwf	___awdiv@counter,f
  3702  0A6A  1D03               	btfss	3,2
  3703  0A6B  2A6D               	goto	u3351
  3704  0A6C  2A6E               	goto	u3350
  3705  0A6D                     u3351:
  3706  0A6D  2A49               	goto	l2440
  3707  0A6E                     u3350:
  3708  0A6E                     l2450:
  3709  0A6E  0876               	movf	___awdiv@sign,w
  3710  0A6F  1903               	btfsc	3,2
  3711  0A70  2A72               	goto	u3361
  3712  0A71  2A73               	goto	u3360
  3713  0A72                     u3361:
  3714  0A72  2A78               	goto	l2454
  3715  0A73                     u3360:
  3716  0A73                     l2452:
  3717  0A73  09F7               	comf	___awdiv@quotient,f
  3718  0A74  09F8               	comf	___awdiv@quotient+1,f
  3719  0A75  0AF7               	incf	___awdiv@quotient,f
  3720  0A76  1903               	skipnz
  3721  0A77  0AF8               	incf	___awdiv@quotient+1,f
  3722  0A78                     l2454:
  3723  0A78  0878               	movf	___awdiv@quotient+1,w
  3724  0A79  00F1               	movwf	?___awdiv+1
  3725  0A7A  0877               	movf	___awdiv@quotient,w
  3726  0A7B  00F0               	movwf	?___awdiv
  3727  0A7C                     l477:
  3728  0A7C  0008               	return
  3729  0A7D                     __end_of___awdiv:
  3730                           
  3731                           	psect	text16
  3732  17C9                     __ptext16:	
  3733 ;; *************** function _PWM2_Start *****************
  3734 ;; Defined at:
  3735 ;;		line 59 in file "PWM.c"
  3736 ;; Parameters:    Size  Location     Type
  3737 ;;		None
  3738 ;; Auto vars:     Size  Location     Type
  3739 ;;		None
  3740 ;; Return value:  Size  Location     Type
  3741 ;;                  1    wreg      void 
  3742 ;; Registers used:
  3743 ;;		None
  3744 ;; Tracked objects:
  3745 ;;		On entry : 0/0
  3746 ;;		On exit  : 0/0
  3747 ;;		Unchanged: 0/0
  3748 ;; Data sizes:     COMMON   BANK0   BANK1   BANK3   BANK2
  3749 ;;      Params:         0       0       0       0       0
  3750 ;;      Locals:         0       0       0       0       0
  3751 ;;      Temps:          0       0       0       0       0
  3752 ;;      Totals:         0       0       0       0       0
  3753 ;;Total ram usage:        0 bytes
  3754 ;; Hardware stack levels used: 1
  3755 ;; This function calls:
  3756 ;;		Nothing
  3757 ;; This function is called by:
  3758 ;;		_main
  3759 ;; This function uses a non-reentrant model
  3760 ;;
  3761                           
  3762                           
  3763                           ;psect for function _PWM2_Start
  3764  17C9                     _PWM2_Start:
  3765  17C9                     l2304:	
  3766                           ;incstack = 0
  3767                           ; Regs used in _PWM2_Start: []
  3768                           
  3769                           
  3770                           ;PWM.c: 61:   CCP2M3 = 1;
  3771  17C9  1283               	bcf	3,5	;RP0=0, select bank0
  3772  17CA  1303               	bcf	3,6	;RP1=0, select bank0
  3773  17CB  159D               	bsf	29,3	;volatile
  3774                           
  3775                           ;PWM.c: 62:   CCP2M2 = 1;
  3776  17CC  151D               	bsf	29,2	;volatile
  3777                           
  3778                           ;PWM.c: 67:     T2CKPS0 = 1;
  3779  17CD  1412               	bsf	18,0	;volatile
  3780                           
  3781                           ;PWM.c: 68:     T2CKPS1 = 0;
  3782  17CE  1092               	bcf	18,1	;volatile
  3783                           
  3784                           ;PWM.c: 73:     TMR2ON = 1;
  3785  17CF  1512               	bsf	18,2	;volatile
  3786                           
  3787                           ;PWM.c: 74:     TRISC1 = 0;
  3788  17D0  1683               	bsf	3,5	;RP0=1, select bank1
  3789  17D1  1303               	bcf	3,6	;RP1=0, select bank1
  3790  17D2  1087               	bcf	7,1	;volatile
  3791  17D3                     l49:
  3792  17D3  0008               	return
  3793  17D4                     __end_of_PWM2_Start:
  3794                           
  3795                           	psect	text17
  3796  0D6E                     __ptext17:	
  3797 ;; *************** function _PWM2_Duty *****************
  3798 ;; Defined at:
  3799 ;;		line 29 in file "PWM.c"
  3800 ;; Parameters:    Size  Location     Type
  3801 ;;  duty            2    0[BANK1 ] unsigned int 
  3802 ;;  freq            2    2[BANK1 ] unsigned int 
  3803 ;; Auto vars:     Size  Location     Type
  3804 ;;		None
  3805 ;; Return value:  Size  Location     Type
  3806 ;;                  1    wreg      void 
  3807 ;; Registers used:
  3808 ;;		wreg, status,2, status,0, btemp+1, pclath, cstack
  3809 ;; Tracked objects:
  3810 ;;		On entry : 0/0
  3811 ;;		On exit  : 0/0
  3812 ;;		Unchanged: 0/0
  3813 ;; Data sizes:     COMMON   BANK0   BANK1   BANK3   BANK2
  3814 ;;      Params:         0       0       4       0       0
  3815 ;;      Locals:         0       0       0       0       0
  3816 ;;      Temps:          0       0       2       0       0
  3817 ;;      Totals:         0       0       6       0       0
  3818 ;;Total ram usage:        6 bytes
  3819 ;; Hardware stack levels used: 1
  3820 ;; Hardware stack levels required when called: 2
  3821 ;; This function calls:
  3822 ;;		_PWM_Init
  3823 ;;		___aldiv
  3824 ;;		___fldiv
  3825 ;;		___flmul
  3826 ;;		___fltol
  3827 ;;		___xxtofl
  3828 ;; This function is called by:
  3829 ;;		_main
  3830 ;; This function uses a non-reentrant model
  3831 ;;
  3832                           
  3833                           
  3834                           ;psect for function _PWM2_Duty
  3835  0D6E                     _PWM2_Duty:
  3836  0D6E                     l2290:	
  3837                           ;incstack = 0
  3838                           ; Regs used in _PWM2_Duty: [wreg+status,2+status,0+btemp+1+pclath+cstack]
  3839                           
  3840                           
  3841                           ;PWM.c: 29: void PWM2_Duty(unsigned int duty, unsigned int freq);PWM.c: 30: {;PWM.c: 31:
      +                             PWM_Init(freq);
  3842  0D6E  1683               	bsf	3,5	;RP0=1, select bank1
  3843  0D6F  1303               	bcf	3,6	;RP1=0, select bank1
  3844  0D70  0850               	movf	PWM2_Duty@freq^(0+128),w
  3845  0D71  1283               	bcf	3,5	;RP0=0, select bank0
  3846  0D72  1303               	bcf	3,6	;RP1=0, select bank0
  3847  0D73  00A6               	movwf	PWM_Init@freq
  3848  0D74  1683               	bsf	3,5	;RP0=1, select bank1
  3849  0D75  1303               	bcf	3,6	;RP1=0, select bank1
  3850  0D76  0851               	movf	(PWM2_Duty@freq+1)^(0+128),w
  3851  0D77  1283               	bcf	3,5	;RP0=0, select bank0
  3852  0D78  1303               	bcf	3,6	;RP1=0, select bank0
  3853  0D79  00A7               	movwf	PWM_Init@freq+1
  3854  0D7A  01A8               	clrf	PWM_Init@freq+2
  3855  0D7B  01A9               	clrf	PWM_Init@freq+3
  3856  0D7C  120A  158A  2121  120A  158A  	fcall	_PWM_Init
  3857  0D81                     l2292:
  3858                           
  3859                           ;PWM.c: 32:   if(duty<1024)
  3860  0D81  3004               	movlw	4
  3861  0D82  1683               	bsf	3,5	;RP0=1, select bank1
  3862  0D83  1303               	bcf	3,6	;RP1=0, select bank1
  3863  0D84  024F               	subwf	(PWM2_Duty@duty+1)^(0+128),w
  3864  0D85  3000               	movlw	0
  3865  0D86  1903               	skipnz
  3866  0D87  024E               	subwf	PWM2_Duty@duty^(0+128),w
  3867  0D88  1803               	skipnc
  3868  0D89  2D8B               	goto	u3021
  3869  0D8A  2D8C               	goto	u3020
  3870  0D8B                     u3021:
  3871  0D8B  2E35               	goto	l43
  3872  0D8C                     u3020:
  3873  0D8C                     l2294:
  3874                           
  3875                           ;PWM.c: 33:   {;PWM.c: 34:     duty = ((float)duty/1023.0)*(4000000/(freq*4));
  3876  0D8C  084E               	movf	PWM2_Duty@duty^(0+128),w
  3877  0D8D  1283               	bcf	3,5	;RP0=0, select bank0
  3878  0D8E  1303               	bcf	3,6	;RP1=0, select bank0
  3879  0D8F  00AE               	movwf	___xxtofl@val
  3880  0D90  1683               	bsf	3,5	;RP0=1, select bank1
  3881  0D91  1303               	bcf	3,6	;RP1=0, select bank1
  3882  0D92  084F               	movf	(PWM2_Duty@duty+1)^(0+128),w
  3883  0D93  1283               	bcf	3,5	;RP0=0, select bank0
  3884  0D94  1303               	bcf	3,6	;RP1=0, select bank0
  3885  0D95  00AF               	movwf	___xxtofl@val+1
  3886  0D96  01B0               	clrf	___xxtofl@val+2
  3887  0D97  01B1               	clrf	___xxtofl@val+3
  3888  0D98  3000               	movlw	0
  3889  0D99  120A  118A  2009  120A  158A  	fcall	___xxtofl
  3890  0D9E  1283               	bcf	3,5	;RP0=0, select bank0
  3891  0D9F  1303               	bcf	3,6	;RP1=0, select bank0
  3892  0DA0  0831               	movf	?___xxtofl+3,w
  3893  0DA1  00C3               	movwf	___fldiv@b+3
  3894  0DA2  0830               	movf	?___xxtofl+2,w
  3895  0DA3  00C2               	movwf	___fldiv@b+2
  3896  0DA4  082F               	movf	?___xxtofl+1,w
  3897  0DA5  00C1               	movwf	___fldiv@b+1
  3898  0DA6  082E               	movf	?___xxtofl,w
  3899  0DA7  00C0               	movwf	___fldiv@b
  3900  0DA8  3044               	movlw	68
  3901  0DA9  00BF               	movwf	___fldiv@a+3
  3902  0DAA  307F               	movlw	127
  3903  0DAB  00BE               	movwf	___fldiv@a+2
  3904  0DAC  30C0               	movlw	192
  3905  0DAD  00BD               	movwf	___fldiv@a+1
  3906  0DAE  3000               	movlw	0
  3907  0DAF  00BC               	movwf	___fldiv@a
  3908  0DB0  120A  118A  2286  120A  158A  	fcall	___fldiv
  3909  0DB5  1283               	bcf	3,5	;RP0=0, select bank0
  3910  0DB6  1303               	bcf	3,6	;RP1=0, select bank0
  3911  0DB7  083F               	movf	?___fldiv+3,w
  3912  0DB8  00DD               	movwf	___flmul@a+3
  3913  0DB9  083E               	movf	?___fldiv+2,w
  3914  0DBA  00DC               	movwf	___flmul@a+2
  3915  0DBB  083D               	movf	?___fldiv+1,w
  3916  0DBC  00DB               	movwf	___flmul@a+1
  3917  0DBD  083C               	movf	?___fldiv,w
  3918  0DBE  00DA               	movwf	___flmul@a
  3919  0DBF  3000               	movlw	0
  3920  0DC0  00F7               	movwf	___aldiv@dividend+3
  3921  0DC1  303D               	movlw	61
  3922  0DC2  00F6               	movwf	___aldiv@dividend+2
  3923  0DC3  3009               	movlw	9
  3924  0DC4  00F5               	movwf	___aldiv@dividend+1
  3925  0DC5  3000               	movlw	0
  3926  0DC6  00F4               	movwf	___aldiv@dividend
  3927  0DC7  1683               	bsf	3,5	;RP0=1, select bank1
  3928  0DC8  1303               	bcf	3,6	;RP1=0, select bank1
  3929  0DC9  0851               	movf	(PWM2_Duty@freq+1)^(0+128),w
  3930  0DCA  00D3               	movwf	(??_PWM2_Duty^(0+128)+1)
  3931  0DCB  0850               	movf	PWM2_Duty@freq^(0+128),w
  3932  0DCC  00D2               	movwf	??_PWM2_Duty^(0+128)
  3933  0DCD  1003               	clrc
  3934  0DCE  0DD2               	rlf	??_PWM2_Duty^(0+128),f
  3935  0DCF  0DD3               	rlf	(??_PWM2_Duty^(0+128)+1),f
  3936  0DD0  1003               	clrc
  3937  0DD1  0DD2               	rlf	??_PWM2_Duty^(0+128),f
  3938  0DD2  0DD3               	rlf	(??_PWM2_Duty^(0+128)+1),f
  3939  0DD3  0852               	movf	??_PWM2_Duty^(0+128),w
  3940  0DD4  00F0               	movwf	___aldiv@divisor
  3941  0DD5  0853               	movf	(??_PWM2_Duty+1)^(0+128),w
  3942  0DD6  00F1               	movwf	___aldiv@divisor+1
  3943  0DD7  01F2               	clrf	___aldiv@divisor+2
  3944  0DD8  01F3               	clrf	___aldiv@divisor+3
  3945  0DD9  120A  158A  2368  120A  158A  	fcall	___aldiv
  3946  0DDE  0873               	movf	?___aldiv+3,w
  3947  0DDF  1283               	bcf	3,5	;RP0=0, select bank0
  3948  0DE0  1303               	bcf	3,6	;RP1=0, select bank0
  3949  0DE1  00B1               	movwf	___xxtofl@val+3
  3950  0DE2  0872               	movf	?___aldiv+2,w
  3951  0DE3  00B0               	movwf	___xxtofl@val+2
  3952  0DE4  0871               	movf	?___aldiv+1,w
  3953  0DE5  00AF               	movwf	___xxtofl@val+1
  3954  0DE6  0870               	movf	?___aldiv,w
  3955  0DE7  00AE               	movwf	___xxtofl@val
  3956  0DE8  3001               	movlw	1
  3957  0DE9  120A  118A  2009  120A  158A  	fcall	___xxtofl
  3958  0DEE  1283               	bcf	3,5	;RP0=0, select bank0
  3959  0DEF  1303               	bcf	3,6	;RP1=0, select bank0
  3960  0DF0  0831               	movf	?___xxtofl+3,w
  3961  0DF1  00D9               	movwf	___flmul@b+3
  3962  0DF2  0830               	movf	?___xxtofl+2,w
  3963  0DF3  00D8               	movwf	___flmul@b+2
  3964  0DF4  082F               	movf	?___xxtofl+1,w
  3965  0DF5  00D7               	movwf	___flmul@b+1
  3966  0DF6  082E               	movf	?___xxtofl,w
  3967  0DF7  00D6               	movwf	___flmul@b
  3968  0DF8  120A  118A  2463  120A  158A  	fcall	___flmul
  3969  0DFD  1283               	bcf	3,5	;RP0=0, select bank0
  3970  0DFE  1303               	bcf	3,6	;RP1=0, select bank0
  3971  0DFF  0859               	movf	?___flmul+3,w
  3972  0E00  00A9               	movwf	___fltol@f1+3
  3973  0E01  0858               	movf	?___flmul+2,w
  3974  0E02  00A8               	movwf	___fltol@f1+2
  3975  0E03  0857               	movf	?___flmul+1,w
  3976  0E04  00A7               	movwf	___fltol@f1+1
  3977  0E05  0856               	movf	?___flmul,w
  3978  0E06  00A6               	movwf	___fltol@f1
  3979  0E07  120A  158A  22EC  120A  158A  	fcall	___fltol
  3980  0E0C  1283               	bcf	3,5	;RP0=0, select bank0
  3981  0E0D  1303               	bcf	3,6	;RP1=0, select bank0
  3982  0E0E  0827               	movf	?___fltol+1,w
  3983  0E0F  1683               	bsf	3,5	;RP0=1, select bank1
  3984  0E10  1303               	bcf	3,6	;RP1=0, select bank1
  3985  0E11  00CF               	movwf	(PWM2_Duty@duty+1)^(0+128)
  3986  0E12  1283               	bcf	3,5	;RP0=0, select bank0
  3987  0E13  1303               	bcf	3,6	;RP1=0, select bank0
  3988  0E14  0826               	movf	?___fltol,w
  3989  0E15  1683               	bsf	3,5	;RP0=1, select bank1
  3990  0E16  1303               	bcf	3,6	;RP1=0, select bank1
  3991  0E17  00CE               	movwf	PWM2_Duty@duty^(0+128)
  3992  0E18                     l2296:
  3993                           
  3994                           ;PWM.c: 35:     CCP2X = duty & 0b00000010;;
  3995  0E18  1283               	bcf	3,5	;RP0=0, select bank0
  3996  0E19  1303               	bcf	3,6	;RP1=0, select bank0
  3997  0E1A  129D               	bcf	29,5	;volatile
  3998  0E1B                     l2298:
  3999                           
  4000                           ;PWM.c: 36:     CCP2Y = duty & 0b00000001;;
  4001  0E1B  1683               	bsf	3,5	;RP0=1, select bank1
  4002  0E1C  1303               	bcf	3,6	;RP1=0, select bank1
  4003  0E1D  184E               	btfsc	PWM2_Duty@duty^(0+128),0
  4004  0E1E  2E20               	goto	u3031
  4005  0E1F  2E24               	goto	u3030
  4006  0E20                     u3031:
  4007  0E20  1283               	bcf	3,5	;RP0=0, select bank0
  4008  0E21  1303               	bcf	3,6	;RP1=0, select bank0
  4009  0E22  161D               	bsf	29,4	;volatile
  4010  0E23  2E27               	goto	u3044
  4011  0E24                     u3030:
  4012  0E24  1283               	bcf	3,5	;RP0=0, select bank0
  4013  0E25  1303               	bcf	3,6	;RP1=0, select bank0
  4014  0E26  121D               	bcf	29,4	;volatile
  4015  0E27                     u3044:
  4016  0E27                     l2300:
  4017                           
  4018                           ;PWM.c: 37:     CCPR2L = (unsigned char)duty>>2;
  4019  0E27  1683               	bsf	3,5	;RP0=1, select bank1
  4020  0E28  1303               	bcf	3,6	;RP1=0, select bank1
  4021  0E29  084E               	movf	PWM2_Duty@duty^(0+128),w
  4022  0E2A  00D2               	movwf	??_PWM2_Duty^(0+128)
  4023  0E2B  3002               	movlw	2
  4024  0E2C                     u3055:
  4025  0E2C  1003               	clrc
  4026  0E2D  0CD2               	rrf	??_PWM2_Duty^(0+128),f
  4027  0E2E  3EFF               	addlw	-1
  4028  0E2F  1D03               	skipz
  4029  0E30  2E2C               	goto	u3055
  4030  0E31  0852               	movf	??_PWM2_Duty^(0+128),w
  4031  0E32  1283               	bcf	3,5	;RP0=0, select bank0
  4032  0E33  1303               	bcf	3,6	;RP1=0, select bank0
  4033  0E34  009B               	movwf	27	;volatile
  4034  0E35                     l43:
  4035  0E35  0008               	return
  4036  0E36                     __end_of_PWM2_Duty:
  4037                           
  4038                           	psect	text18
  4039  17C0                     __ptext18:	
  4040 ;; *************** function _PWM1_Start *****************
  4041 ;; Defined at:
  4042 ;;		line 41 in file "PWM.c"
  4043 ;; Parameters:    Size  Location     Type
  4044 ;;		None
  4045 ;; Auto vars:     Size  Location     Type
  4046 ;;		None
  4047 ;; Return value:  Size  Location     Type
  4048 ;;                  1    wreg      void 
  4049 ;; Registers used:
  4050 ;;		None
  4051 ;; Tracked objects:
  4052 ;;		On entry : 0/0
  4053 ;;		On exit  : 0/0
  4054 ;;		Unchanged: 0/0
  4055 ;; Data sizes:     COMMON   BANK0   BANK1   BANK3   BANK2
  4056 ;;      Params:         0       0       0       0       0
  4057 ;;      Locals:         0       0       0       0       0
  4058 ;;      Temps:          0       0       0       0       0
  4059 ;;      Totals:         0       0       0       0       0
  4060 ;;Total ram usage:        0 bytes
  4061 ;; Hardware stack levels used: 1
  4062 ;; This function calls:
  4063 ;;		Nothing
  4064 ;; This function is called by:
  4065 ;;		_main
  4066 ;; This function uses a non-reentrant model
  4067 ;;
  4068                           
  4069                           
  4070                           ;psect for function _PWM1_Start
  4071  17C0                     _PWM1_Start:
  4072  17C0                     l2302:	
  4073                           ;incstack = 0
  4074                           ; Regs used in _PWM1_Start: []
  4075                           
  4076                           
  4077                           ;PWM.c: 43:   CCP1M3 = 1;
  4078  17C0  1283               	bcf	3,5	;RP0=0, select bank0
  4079  17C1  1303               	bcf	3,6	;RP1=0, select bank0
  4080  17C2  1597               	bsf	23,3	;volatile
  4081                           
  4082                           ;PWM.c: 44:   CCP1M2 = 1;
  4083  17C3  1517               	bsf	23,2	;volatile
  4084                           
  4085                           ;PWM.c: 55:   TMR2ON = 1;
  4086  17C4  1512               	bsf	18,2	;volatile
  4087                           
  4088                           ;PWM.c: 56:   TRISC2 = 0;
  4089  17C5  1683               	bsf	3,5	;RP0=1, select bank1
  4090  17C6  1303               	bcf	3,6	;RP1=0, select bank1
  4091  17C7  1107               	bcf	7,2	;volatile
  4092  17C8                     l46:
  4093  17C8  0008               	return
  4094  17C9                     __end_of_PWM1_Start:
  4095                           
  4096                           	psect	text19
  4097  0CA6                     __ptext19:	
  4098 ;; *************** function _PWM1_Duty *****************
  4099 ;; Defined at:
  4100 ;;		line 17 in file "PWM.c"
  4101 ;; Parameters:    Size  Location     Type
  4102 ;;  duty            2    0[BANK1 ] unsigned int 
  4103 ;;  freq            2    2[BANK1 ] unsigned int 
  4104 ;; Auto vars:     Size  Location     Type
  4105 ;;		None
  4106 ;; Return value:  Size  Location     Type
  4107 ;;                  1    wreg      void 
  4108 ;; Registers used:
  4109 ;;		wreg, status,2, status,0, btemp+1, pclath, cstack
  4110 ;; Tracked objects:
  4111 ;;		On entry : 0/0
  4112 ;;		On exit  : 0/0
  4113 ;;		Unchanged: 0/0
  4114 ;; Data sizes:     COMMON   BANK0   BANK1   BANK3   BANK2
  4115 ;;      Params:         0       0       4       0       0
  4116 ;;      Locals:         0       0       0       0       0
  4117 ;;      Temps:          0       0       2       0       0
  4118 ;;      Totals:         0       0       6       0       0
  4119 ;;Total ram usage:        6 bytes
  4120 ;; Hardware stack levels used: 1
  4121 ;; Hardware stack levels required when called: 2
  4122 ;; This function calls:
  4123 ;;		_PWM_Init
  4124 ;;		___aldiv
  4125 ;;		___fldiv
  4126 ;;		___flmul
  4127 ;;		___fltol
  4128 ;;		___xxtofl
  4129 ;; This function is called by:
  4130 ;;		_main
  4131 ;; This function uses a non-reentrant model
  4132 ;;
  4133                           
  4134                           
  4135                           ;psect for function _PWM1_Duty
  4136  0CA6                     _PWM1_Duty:
  4137  0CA6                     l2278:	
  4138                           ;incstack = 0
  4139                           ; Regs used in _PWM1_Duty: [wreg+status,2+status,0+btemp+1+pclath+cstack]
  4140                           
  4141                           
  4142                           ;PWM.c: 17: void PWM1_Duty(unsigned int duty, unsigned int freq);PWM.c: 18: {;PWM.c: 19:
      +                             PWM_Init(freq);
  4143  0CA6  1683               	bsf	3,5	;RP0=1, select bank1
  4144  0CA7  1303               	bcf	3,6	;RP1=0, select bank1
  4145  0CA8  0850               	movf	PWM1_Duty@freq^(0+128),w
  4146  0CA9  1283               	bcf	3,5	;RP0=0, select bank0
  4147  0CAA  1303               	bcf	3,6	;RP1=0, select bank0
  4148  0CAB  00A6               	movwf	PWM_Init@freq
  4149  0CAC  1683               	bsf	3,5	;RP0=1, select bank1
  4150  0CAD  1303               	bcf	3,6	;RP1=0, select bank1
  4151  0CAE  0851               	movf	(PWM1_Duty@freq+1)^(0+128),w
  4152  0CAF  1283               	bcf	3,5	;RP0=0, select bank0
  4153  0CB0  1303               	bcf	3,6	;RP1=0, select bank0
  4154  0CB1  00A7               	movwf	PWM_Init@freq+1
  4155  0CB2  01A8               	clrf	PWM_Init@freq+2
  4156  0CB3  01A9               	clrf	PWM_Init@freq+3
  4157  0CB4  120A  158A  2121  120A  158A  	fcall	_PWM_Init
  4158  0CB9                     l2280:
  4159                           
  4160                           ;PWM.c: 20:   if(duty<1024)
  4161  0CB9  3004               	movlw	4
  4162  0CBA  1683               	bsf	3,5	;RP0=1, select bank1
  4163  0CBB  1303               	bcf	3,6	;RP1=0, select bank1
  4164  0CBC  024F               	subwf	(PWM1_Duty@duty+1)^(0+128),w
  4165  0CBD  3000               	movlw	0
  4166  0CBE  1903               	skipnz
  4167  0CBF  024E               	subwf	PWM1_Duty@duty^(0+128),w
  4168  0CC0  1803               	skipnc
  4169  0CC1  2CC3               	goto	u2981
  4170  0CC2  2CC4               	goto	u2980
  4171  0CC3                     u2981:
  4172  0CC3  2D6D               	goto	l39
  4173  0CC4                     u2980:
  4174  0CC4                     l2282:
  4175                           
  4176                           ;PWM.c: 21:   {;PWM.c: 22:     duty = ((float)duty/1023.0)*(4000000/(freq*4));
  4177  0CC4  084E               	movf	PWM1_Duty@duty^(0+128),w
  4178  0CC5  1283               	bcf	3,5	;RP0=0, select bank0
  4179  0CC6  1303               	bcf	3,6	;RP1=0, select bank0
  4180  0CC7  00AE               	movwf	___xxtofl@val
  4181  0CC8  1683               	bsf	3,5	;RP0=1, select bank1
  4182  0CC9  1303               	bcf	3,6	;RP1=0, select bank1
  4183  0CCA  084F               	movf	(PWM1_Duty@duty+1)^(0+128),w
  4184  0CCB  1283               	bcf	3,5	;RP0=0, select bank0
  4185  0CCC  1303               	bcf	3,6	;RP1=0, select bank0
  4186  0CCD  00AF               	movwf	___xxtofl@val+1
  4187  0CCE  01B0               	clrf	___xxtofl@val+2
  4188  0CCF  01B1               	clrf	___xxtofl@val+3
  4189  0CD0  3000               	movlw	0
  4190  0CD1  120A  118A  2009  120A  158A  	fcall	___xxtofl
  4191  0CD6  1283               	bcf	3,5	;RP0=0, select bank0
  4192  0CD7  1303               	bcf	3,6	;RP1=0, select bank0
  4193  0CD8  0831               	movf	?___xxtofl+3,w
  4194  0CD9  00C3               	movwf	___fldiv@b+3
  4195  0CDA  0830               	movf	?___xxtofl+2,w
  4196  0CDB  00C2               	movwf	___fldiv@b+2
  4197  0CDC  082F               	movf	?___xxtofl+1,w
  4198  0CDD  00C1               	movwf	___fldiv@b+1
  4199  0CDE  082E               	movf	?___xxtofl,w
  4200  0CDF  00C0               	movwf	___fldiv@b
  4201  0CE0  3044               	movlw	68
  4202  0CE1  00BF               	movwf	___fldiv@a+3
  4203  0CE2  307F               	movlw	127
  4204  0CE3  00BE               	movwf	___fldiv@a+2
  4205  0CE4  30C0               	movlw	192
  4206  0CE5  00BD               	movwf	___fldiv@a+1
  4207  0CE6  3000               	movlw	0
  4208  0CE7  00BC               	movwf	___fldiv@a
  4209  0CE8  120A  118A  2286  120A  158A  	fcall	___fldiv
  4210  0CED  1283               	bcf	3,5	;RP0=0, select bank0
  4211  0CEE  1303               	bcf	3,6	;RP1=0, select bank0
  4212  0CEF  083F               	movf	?___fldiv+3,w
  4213  0CF0  00DD               	movwf	___flmul@a+3
  4214  0CF1  083E               	movf	?___fldiv+2,w
  4215  0CF2  00DC               	movwf	___flmul@a+2
  4216  0CF3  083D               	movf	?___fldiv+1,w
  4217  0CF4  00DB               	movwf	___flmul@a+1
  4218  0CF5  083C               	movf	?___fldiv,w
  4219  0CF6  00DA               	movwf	___flmul@a
  4220  0CF7  3000               	movlw	0
  4221  0CF8  00F7               	movwf	___aldiv@dividend+3
  4222  0CF9  303D               	movlw	61
  4223  0CFA  00F6               	movwf	___aldiv@dividend+2
  4224  0CFB  3009               	movlw	9
  4225  0CFC  00F5               	movwf	___aldiv@dividend+1
  4226  0CFD  3000               	movlw	0
  4227  0CFE  00F4               	movwf	___aldiv@dividend
  4228  0CFF  1683               	bsf	3,5	;RP0=1, select bank1
  4229  0D00  1303               	bcf	3,6	;RP1=0, select bank1
  4230  0D01  0851               	movf	(PWM1_Duty@freq+1)^(0+128),w
  4231  0D02  00D3               	movwf	(??_PWM1_Duty^(0+128)+1)
  4232  0D03  0850               	movf	PWM1_Duty@freq^(0+128),w
  4233  0D04  00D2               	movwf	??_PWM1_Duty^(0+128)
  4234  0D05  1003               	clrc
  4235  0D06  0DD2               	rlf	??_PWM1_Duty^(0+128),f
  4236  0D07  0DD3               	rlf	(??_PWM1_Duty^(0+128)+1),f
  4237  0D08  1003               	clrc
  4238  0D09  0DD2               	rlf	??_PWM1_Duty^(0+128),f
  4239  0D0A  0DD3               	rlf	(??_PWM1_Duty^(0+128)+1),f
  4240  0D0B  0852               	movf	??_PWM1_Duty^(0+128),w
  4241  0D0C  00F0               	movwf	___aldiv@divisor
  4242  0D0D  0853               	movf	(??_PWM1_Duty+1)^(0+128),w
  4243  0D0E  00F1               	movwf	___aldiv@divisor+1
  4244  0D0F  01F2               	clrf	___aldiv@divisor+2
  4245  0D10  01F3               	clrf	___aldiv@divisor+3
  4246  0D11  120A  158A  2368  120A  158A  	fcall	___aldiv
  4247  0D16  0873               	movf	?___aldiv+3,w
  4248  0D17  1283               	bcf	3,5	;RP0=0, select bank0
  4249  0D18  1303               	bcf	3,6	;RP1=0, select bank0
  4250  0D19  00B1               	movwf	___xxtofl@val+3
  4251  0D1A  0872               	movf	?___aldiv+2,w
  4252  0D1B  00B0               	movwf	___xxtofl@val+2
  4253  0D1C  0871               	movf	?___aldiv+1,w
  4254  0D1D  00AF               	movwf	___xxtofl@val+1
  4255  0D1E  0870               	movf	?___aldiv,w
  4256  0D1F  00AE               	movwf	___xxtofl@val
  4257  0D20  3001               	movlw	1
  4258  0D21  120A  118A  2009  120A  158A  	fcall	___xxtofl
  4259  0D26  1283               	bcf	3,5	;RP0=0, select bank0
  4260  0D27  1303               	bcf	3,6	;RP1=0, select bank0
  4261  0D28  0831               	movf	?___xxtofl+3,w
  4262  0D29  00D9               	movwf	___flmul@b+3
  4263  0D2A  0830               	movf	?___xxtofl+2,w
  4264  0D2B  00D8               	movwf	___flmul@b+2
  4265  0D2C  082F               	movf	?___xxtofl+1,w
  4266  0D2D  00D7               	movwf	___flmul@b+1
  4267  0D2E  082E               	movf	?___xxtofl,w
  4268  0D2F  00D6               	movwf	___flmul@b
  4269  0D30  120A  118A  2463  120A  158A  	fcall	___flmul
  4270  0D35  1283               	bcf	3,5	;RP0=0, select bank0
  4271  0D36  1303               	bcf	3,6	;RP1=0, select bank0
  4272  0D37  0859               	movf	?___flmul+3,w
  4273  0D38  00A9               	movwf	___fltol@f1+3
  4274  0D39  0858               	movf	?___flmul+2,w
  4275  0D3A  00A8               	movwf	___fltol@f1+2
  4276  0D3B  0857               	movf	?___flmul+1,w
  4277  0D3C  00A7               	movwf	___fltol@f1+1
  4278  0D3D  0856               	movf	?___flmul,w
  4279  0D3E  00A6               	movwf	___fltol@f1
  4280  0D3F  120A  158A  22EC  120A  158A  	fcall	___fltol
  4281  0D44  1283               	bcf	3,5	;RP0=0, select bank0
  4282  0D45  1303               	bcf	3,6	;RP1=0, select bank0
  4283  0D46  0827               	movf	?___fltol+1,w
  4284  0D47  1683               	bsf	3,5	;RP0=1, select bank1
  4285  0D48  1303               	bcf	3,6	;RP1=0, select bank1
  4286  0D49  00CF               	movwf	(PWM1_Duty@duty+1)^(0+128)
  4287  0D4A  1283               	bcf	3,5	;RP0=0, select bank0
  4288  0D4B  1303               	bcf	3,6	;RP1=0, select bank0
  4289  0D4C  0826               	movf	?___fltol,w
  4290  0D4D  1683               	bsf	3,5	;RP0=1, select bank1
  4291  0D4E  1303               	bcf	3,6	;RP1=0, select bank1
  4292  0D4F  00CE               	movwf	PWM1_Duty@duty^(0+128)
  4293  0D50                     l2284:
  4294                           
  4295                           ;PWM.c: 23:     CCP1X = duty & 0b00000010;
  4296  0D50  1283               	bcf	3,5	;RP0=0, select bank0
  4297  0D51  1303               	bcf	3,6	;RP1=0, select bank0
  4298  0D52  1297               	bcf	23,5	;volatile
  4299  0D53                     l2286:
  4300                           
  4301                           ;PWM.c: 24:     CCP1Y = duty & 0b00000001;
  4302  0D53  1683               	bsf	3,5	;RP0=1, select bank1
  4303  0D54  1303               	bcf	3,6	;RP1=0, select bank1
  4304  0D55  184E               	btfsc	PWM1_Duty@duty^(0+128),0
  4305  0D56  2D58               	goto	u2991
  4306  0D57  2D5C               	goto	u2990
  4307  0D58                     u2991:
  4308  0D58  1283               	bcf	3,5	;RP0=0, select bank0
  4309  0D59  1303               	bcf	3,6	;RP1=0, select bank0
  4310  0D5A  1617               	bsf	23,4	;volatile
  4311  0D5B  2D5F               	goto	u3004
  4312  0D5C                     u2990:
  4313  0D5C  1283               	bcf	3,5	;RP0=0, select bank0
  4314  0D5D  1303               	bcf	3,6	;RP1=0, select bank0
  4315  0D5E  1217               	bcf	23,4	;volatile
  4316  0D5F                     u3004:
  4317  0D5F                     l2288:
  4318                           
  4319                           ;PWM.c: 25:     CCPR1L = (unsigned char)duty>>2;
  4320  0D5F  1683               	bsf	3,5	;RP0=1, select bank1
  4321  0D60  1303               	bcf	3,6	;RP1=0, select bank1
  4322  0D61  084E               	movf	PWM1_Duty@duty^(0+128),w
  4323  0D62  00D2               	movwf	??_PWM1_Duty^(0+128)
  4324  0D63  3002               	movlw	2
  4325  0D64                     u3015:
  4326  0D64  1003               	clrc
  4327  0D65  0CD2               	rrf	??_PWM1_Duty^(0+128),f
  4328  0D66  3EFF               	addlw	-1
  4329  0D67  1D03               	skipz
  4330  0D68  2D64               	goto	u3015
  4331  0D69  0852               	movf	??_PWM1_Duty^(0+128),w
  4332  0D6A  1283               	bcf	3,5	;RP0=0, select bank0
  4333  0D6B  1303               	bcf	3,6	;RP1=0, select bank0
  4334  0D6C  0095               	movwf	21	;volatile
  4335  0D6D                     l39:
  4336  0D6D  0008               	return
  4337  0D6E                     __end_of_PWM1_Duty:
  4338                           
  4339                           	psect	text20
  4340  0009                     __ptext20:	
  4341 ;; *************** function ___xxtofl *****************
  4342 ;; Defined at:
  4343 ;;		line 10 in file "C:\Program Files\Microchip\xc8\v2.32\pic\sources\c90\common\xxtofl.c"
  4344 ;; Parameters:    Size  Location     Type
  4345 ;;  sign            1    wreg     unsigned char 
  4346 ;;  val             4   14[BANK0 ] long 
  4347 ;; Auto vars:     Size  Location     Type
  4348 ;;  sign            1   22[BANK0 ] unsigned char 
  4349 ;;  arg             4   24[BANK0 ] unsigned long 
  4350 ;;  exp             1   23[BANK0 ] unsigned char 
  4351 ;; Return value:  Size  Location     Type
  4352 ;;                  4   14[BANK0 ] unsigned char 
  4353 ;; Registers used:
  4354 ;;		wreg, status,2, status,0
  4355 ;; Tracked objects:
  4356 ;;		On entry : 0/0
  4357 ;;		On exit  : 0/0
  4358 ;;		Unchanged: 0/0
  4359 ;; Data sizes:     COMMON   BANK0   BANK1   BANK3   BANK2
  4360 ;;      Params:         0       4       0       0       0
  4361 ;;      Locals:         0       6       0       0       0
  4362 ;;      Temps:          0       4       0       0       0
  4363 ;;      Totals:         0      14       0       0       0
  4364 ;;Total ram usage:       14 bytes
  4365 ;; Hardware stack levels used: 1
  4366 ;; This function calls:
  4367 ;;		Nothing
  4368 ;; This function is called by:
  4369 ;;		_PWM1_Duty
  4370 ;;		_PWM2_Duty
  4371 ;;		_main
  4372 ;; This function uses a non-reentrant model
  4373 ;;
  4374                           
  4375                           
  4376                           ;psect for function ___xxtofl
  4377  0009                     ___xxtofl:
  4378                           
  4379                           ;incstack = 0
  4380                           ; Regs used in ___xxtofl: [wreg+status,2+status,0]
  4381                           ;___xxtofl@sign stored from wreg
  4382  0009  1283               	bcf	3,5	;RP0=0, select bank0
  4383  000A  1303               	bcf	3,6	;RP1=0, select bank0
  4384  000B  00B6               	movwf	___xxtofl@sign
  4385  000C                     l2234:
  4386  000C  0836               	movf	___xxtofl@sign,w
  4387  000D  1903               	btfsc	3,2
  4388  000E  2810               	goto	u2841
  4389  000F  2811               	goto	u2840
  4390  0010                     u2841:
  4391  0010  2825               	goto	l2240
  4392  0011                     u2840:
  4393  0011                     l2236:
  4394  0011  1FB1               	btfss	___xxtofl@val+3,7
  4395  0012  2814               	goto	u2851
  4396  0013  2815               	goto	u2850
  4397  0014                     u2851:
  4398  0014  2825               	goto	l2240
  4399  0015                     u2850:
  4400  0015                     l2238:
  4401  0015  092E               	comf	___xxtofl@val,w
  4402  0016  00B8               	movwf	___xxtofl@arg
  4403  0017  092F               	comf	___xxtofl@val+1,w
  4404  0018  00B9               	movwf	___xxtofl@arg+1
  4405  0019  0930               	comf	___xxtofl@val+2,w
  4406  001A  00BA               	movwf	___xxtofl@arg+2
  4407  001B  0931               	comf	___xxtofl@val+3,w
  4408  001C  00BB               	movwf	___xxtofl@arg+3
  4409  001D  0AB8               	incf	___xxtofl@arg,f
  4410  001E  1903               	skipnz
  4411  001F  0AB9               	incf	___xxtofl@arg+1,f
  4412  0020  1903               	skipnz
  4413  0021  0ABA               	incf	___xxtofl@arg+2,f
  4414  0022  1903               	skipnz
  4415  0023  0ABB               	incf	___xxtofl@arg+3,f
  4416  0024  282D               	goto	l757
  4417  0025                     l2240:
  4418  0025  0831               	movf	___xxtofl@val+3,w
  4419  0026  00BB               	movwf	___xxtofl@arg+3
  4420  0027  0830               	movf	___xxtofl@val+2,w
  4421  0028  00BA               	movwf	___xxtofl@arg+2
  4422  0029  082F               	movf	___xxtofl@val+1,w
  4423  002A  00B9               	movwf	___xxtofl@arg+1
  4424  002B  082E               	movf	___xxtofl@val,w
  4425  002C  00B8               	movwf	___xxtofl@arg
  4426  002D                     l757:
  4427  002D  0831               	movf	___xxtofl@val+3,w
  4428  002E  0430               	iorwf	___xxtofl@val+2,w
  4429  002F  042F               	iorwf	___xxtofl@val+1,w
  4430  0030  042E               	iorwf	___xxtofl@val,w
  4431  0031  1D03               	skipz
  4432  0032  2834               	goto	u2861
  4433  0033  2835               	goto	u2860
  4434  0034                     u2861:
  4435  0034  283E               	goto	l2246
  4436  0035                     u2860:
  4437  0035                     l2242:
  4438  0035  3000               	movlw	0
  4439  0036  00B1               	movwf	?___xxtofl+3
  4440  0037  3000               	movlw	0
  4441  0038  00B0               	movwf	?___xxtofl+2
  4442  0039  3000               	movlw	0
  4443  003A  00AF               	movwf	?___xxtofl+1
  4444  003B  3000               	movlw	0
  4445  003C  00AE               	movwf	?___xxtofl
  4446  003D  28C4               	goto	l759
  4447  003E                     l2246:
  4448  003E  3096               	movlw	150
  4449  003F  00B2               	movwf	??___xxtofl
  4450  0040  0832               	movf	??___xxtofl,w
  4451  0041  00B7               	movwf	___xxtofl@exp
  4452  0042  2850               	goto	l2250
  4453  0043                     l2248:
  4454  0043  3001               	movlw	1
  4455  0044  00B2               	movwf	??___xxtofl
  4456  0045  0832               	movf	??___xxtofl,w
  4457  0046  07B7               	addwf	___xxtofl@exp,f
  4458  0047  3001               	movlw	1
  4459  0048                     u2875:
  4460  0048  1003               	clrc
  4461  0049  0CBB               	rrf	___xxtofl@arg+3,f
  4462  004A  0CBA               	rrf	___xxtofl@arg+2,f
  4463  004B  0CB9               	rrf	___xxtofl@arg+1,f
  4464  004C  0CB8               	rrf	___xxtofl@arg,f
  4465  004D  3EFF               	addlw	-1
  4466  004E  1D03               	skipz
  4467  004F  2848               	goto	u2875
  4468  0050                     l2250:
  4469  0050  30FE               	movlw	254
  4470  0051  053B               	andwf	___xxtofl@arg+3,w
  4471  0052  1D03               	btfss	3,2
  4472  0053  2855               	goto	u2881
  4473  0054  2856               	goto	u2880
  4474  0055                     u2881:
  4475  0055  2843               	goto	l2248
  4476  0056                     u2880:
  4477  0056  2872               	goto	l763
  4478  0057                     l2252:
  4479  0057  3001               	movlw	1
  4480  0058  00B2               	movwf	??___xxtofl
  4481  0059  0832               	movf	??___xxtofl,w
  4482  005A  07B7               	addwf	___xxtofl@exp,f
  4483  005B                     l2254:
  4484  005B  3001               	movlw	1
  4485  005C  07B8               	addwf	___xxtofl@arg,f
  4486  005D  3000               	movlw	0
  4487  005E  1803               	skipnc
  4488  005F  3001               	movlw	1
  4489  0060  07B9               	addwf	___xxtofl@arg+1,f
  4490  0061  3000               	movlw	0
  4491  0062  1803               	skipnc
  4492  0063  3001               	movlw	1
  4493  0064  07BA               	addwf	___xxtofl@arg+2,f
  4494  0065  3000               	movlw	0
  4495  0066  1803               	skipnc
  4496  0067  3001               	movlw	1
  4497  0068  07BB               	addwf	___xxtofl@arg+3,f
  4498  0069                     l2256:
  4499  0069  3001               	movlw	1
  4500  006A                     u2895:
  4501  006A  1003               	clrc
  4502  006B  0CBB               	rrf	___xxtofl@arg+3,f
  4503  006C  0CBA               	rrf	___xxtofl@arg+2,f
  4504  006D  0CB9               	rrf	___xxtofl@arg+1,f
  4505  006E  0CB8               	rrf	___xxtofl@arg,f
  4506  006F  3EFF               	addlw	-1
  4507  0070  1D03               	skipz
  4508  0071  286A               	goto	u2895
  4509  0072                     l763:
  4510  0072  30FF               	movlw	255
  4511  0073  053B               	andwf	___xxtofl@arg+3,w
  4512  0074  1D03               	btfss	3,2
  4513  0075  2877               	goto	u2901
  4514  0076  2878               	goto	u2900
  4515  0077                     u2901:
  4516  0077  2857               	goto	l2252
  4517  0078                     u2900:
  4518  0078  2884               	goto	l2260
  4519  0079                     l2258:
  4520  0079  3001               	movlw	1
  4521  007A  02B7               	subwf	___xxtofl@exp,f
  4522  007B  3001               	movlw	1
  4523  007C  00B2               	movwf	??___xxtofl
  4524  007D                     u2915:
  4525  007D  1003               	clrc
  4526  007E  0DB8               	rlf	___xxtofl@arg,f
  4527  007F  0DB9               	rlf	___xxtofl@arg+1,f
  4528  0080  0DBA               	rlf	___xxtofl@arg+2,f
  4529  0081  0DBB               	rlf	___xxtofl@arg+3,f
  4530  0082  0BB2               	decfsz	??___xxtofl,f
  4531  0083  287D               	goto	u2915
  4532  0084                     l2260:
  4533  0084  1BBA               	btfsc	___xxtofl@arg+2,7
  4534  0085  2887               	goto	u2921
  4535  0086  2888               	goto	u2920
  4536  0087                     u2921:
  4537  0087  288E               	goto	l770
  4538  0088                     u2920:
  4539  0088                     l2262:
  4540  0088  3002               	movlw	2
  4541  0089  0237               	subwf	___xxtofl@exp,w
  4542  008A  1803               	skipnc
  4543  008B  288D               	goto	u2931
  4544  008C  288E               	goto	u2930
  4545  008D                     u2931:
  4546  008D  2879               	goto	l2258
  4547  008E                     u2930:
  4548  008E                     l770:
  4549  008E  1837               	btfsc	___xxtofl@exp,0
  4550  008F  2891               	goto	u2941
  4551  0090  2892               	goto	u2940
  4552  0091                     u2941:
  4553  0091  289A               	goto	l771
  4554  0092                     u2940:
  4555  0092                     l2264:
  4556  0092  30FF               	movlw	255
  4557  0093  05B8               	andwf	___xxtofl@arg,f
  4558  0094  30FF               	movlw	255
  4559  0095  05B9               	andwf	___xxtofl@arg+1,f
  4560  0096  307F               	movlw	127
  4561  0097  05BA               	andwf	___xxtofl@arg+2,f
  4562  0098  30FF               	movlw	255
  4563  0099  05BB               	andwf	___xxtofl@arg+3,f
  4564  009A                     l771:
  4565  009A  1003               	clrc
  4566  009B  0CB7               	rrf	___xxtofl@exp,f
  4567  009C                     l2266:
  4568  009C  0837               	movf	___xxtofl@exp,w
  4569  009D  00B2               	movwf	??___xxtofl
  4570  009E  01B3               	clrf	??___xxtofl+1
  4571  009F  01B4               	clrf	??___xxtofl+2
  4572  00A0  01B5               	clrf	??___xxtofl+3
  4573  00A1  3018               	movlw	24
  4574  00A2                     u2955:
  4575  00A2  1003               	clrc
  4576  00A3  0DB2               	rlf	??___xxtofl,f
  4577  00A4  0DB3               	rlf	??___xxtofl+1,f
  4578  00A5  0DB4               	rlf	??___xxtofl+2,f
  4579  00A6  0DB5               	rlf	??___xxtofl+3,f
  4580  00A7                     u2950:
  4581  00A7  3EFF               	addlw	-1
  4582  00A8  1D03               	skipz
  4583  00A9  28A2               	goto	u2955
  4584  00AA  0832               	movf	??___xxtofl,w
  4585  00AB  04B8               	iorwf	___xxtofl@arg,f
  4586  00AC  0833               	movf	??___xxtofl+1,w
  4587  00AD  04B9               	iorwf	___xxtofl@arg+1,f
  4588  00AE  0834               	movf	??___xxtofl+2,w
  4589  00AF  04BA               	iorwf	___xxtofl@arg+2,f
  4590  00B0  0835               	movf	??___xxtofl+3,w
  4591  00B1  04BB               	iorwf	___xxtofl@arg+3,f
  4592  00B2                     l2268:
  4593  00B2  0836               	movf	___xxtofl@sign,w
  4594  00B3  1903               	btfsc	3,2
  4595  00B4  28B6               	goto	u2961
  4596  00B5  28B7               	goto	u2960
  4597  00B6                     u2961:
  4598  00B6  28BC               	goto	l2274
  4599  00B7                     u2960:
  4600  00B7                     l2270:
  4601  00B7  1FB1               	btfss	___xxtofl@val+3,7
  4602  00B8  28BA               	goto	u2971
  4603  00B9  28BB               	goto	u2970
  4604  00BA                     u2971:
  4605  00BA  28BC               	goto	l2274
  4606  00BB                     u2970:
  4607  00BB                     l2272:
  4608  00BB  17BB               	bsf	___xxtofl@arg+3,7
  4609  00BC                     l2274:
  4610  00BC  083B               	movf	___xxtofl@arg+3,w
  4611  00BD  00B1               	movwf	?___xxtofl+3
  4612  00BE  083A               	movf	___xxtofl@arg+2,w
  4613  00BF  00B0               	movwf	?___xxtofl+2
  4614  00C0  0839               	movf	___xxtofl@arg+1,w
  4615  00C1  00AF               	movwf	?___xxtofl+1
  4616  00C2  0838               	movf	___xxtofl@arg,w
  4617  00C3  00AE               	movwf	?___xxtofl
  4618  00C4                     l759:
  4619  00C4  0008               	return
  4620  00C5                     __end_of___xxtofl:
  4621                           
  4622                           	psect	text21
  4623  0AEC                     __ptext21:	
  4624 ;; *************** function ___fltol *****************
  4625 ;; Defined at:
  4626 ;;		line 43 in file "C:\Program Files\Microchip\xc8\v2.32\pic\sources\c90\common\fltol.c"
  4627 ;; Parameters:    Size  Location     Type
  4628 ;;  f1              4    6[BANK0 ] unsigned char 
  4629 ;; Auto vars:     Size  Location     Type
  4630 ;;  exp1            1   11[BANK0 ] unsigned char 
  4631 ;;  sign1           1   10[BANK0 ] unsigned char 
  4632 ;; Return value:  Size  Location     Type
  4633 ;;                  4    6[BANK0 ] long 
  4634 ;; Registers used:
  4635 ;;		wreg, status,2, status,0
  4636 ;; Tracked objects:
  4637 ;;		On entry : 0/0
  4638 ;;		On exit  : 0/0
  4639 ;;		Unchanged: 0/0
  4640 ;; Data sizes:     COMMON   BANK0   BANK1   BANK3   BANK2
  4641 ;;      Params:         0       4       0       0       0
  4642 ;;      Locals:         0       2       0       0       0
  4643 ;;      Temps:          5       0       0       0       0
  4644 ;;      Totals:         5       6       0       0       0
  4645 ;;Total ram usage:       11 bytes
  4646 ;; Hardware stack levels used: 1
  4647 ;; This function calls:
  4648 ;;		Nothing
  4649 ;; This function is called by:
  4650 ;;		_PWM1_Duty
  4651 ;;		_PWM2_Duty
  4652 ;;		_main
  4653 ;; This function uses a non-reentrant model
  4654 ;;
  4655                           
  4656                           
  4657                           ;psect for function ___fltol
  4658  0AEC                     ___fltol:
  4659  0AEC                     l1916:	
  4660                           ;incstack = 0
  4661                           ; Regs used in ___fltol: [wreg+status,2+status,0]
  4662                           
  4663  0AEC  1003               	clrc
  4664  0AED  1283               	bcf	3,5	;RP0=0, select bank0
  4665  0AEE  1303               	bcf	3,6	;RP1=0, select bank0
  4666  0AEF  0D28               	rlf	___fltol@f1+2,w
  4667  0AF0  0D29               	rlf	___fltol@f1+3,w
  4668  0AF1  00F9               	movwf	??___fltol
  4669  0AF2  0879               	movf	??___fltol,w
  4670  0AF3  00AB               	movwf	___fltol@exp1
  4671  0AF4  082B               	movf	___fltol@exp1,w
  4672  0AF5  1D03               	btfss	3,2
  4673  0AF6  2AF8               	goto	u2081
  4674  0AF7  2AF9               	goto	u2080
  4675  0AF8                     u2081:
  4676  0AF8  2B02               	goto	l1922
  4677  0AF9                     u2080:
  4678  0AF9                     l1918:
  4679  0AF9  3000               	movlw	0
  4680  0AFA  00A9               	movwf	?___fltol+3
  4681  0AFB  3000               	movlw	0
  4682  0AFC  00A8               	movwf	?___fltol+2
  4683  0AFD  3000               	movlw	0
  4684  0AFE  00A7               	movwf	?___fltol+1
  4685  0AFF  3000               	movlw	0
  4686  0B00  00A6               	movwf	?___fltol
  4687  0B01  2B67               	goto	l510
  4688  0B02                     l1922:
  4689  0B02  0826               	movf	___fltol@f1,w
  4690  0B03  00F9               	movwf	??___fltol
  4691  0B04  0827               	movf	___fltol@f1+1,w
  4692  0B05  00FA               	movwf	??___fltol+1
  4693  0B06  0828               	movf	___fltol@f1+2,w
  4694  0B07  00FB               	movwf	??___fltol+2
  4695  0B08  0829               	movf	___fltol@f1+3,w
  4696  0B09  00FC               	movwf	??___fltol+3
  4697  0B0A  301F               	movlw	31
  4698  0B0B                     u2095:
  4699  0B0B  1003               	clrc
  4700  0B0C  0CFC               	rrf	??___fltol+3,f
  4701  0B0D  0CFB               	rrf	??___fltol+2,f
  4702  0B0E  0CFA               	rrf	??___fltol+1,f
  4703  0B0F  0CF9               	rrf	??___fltol,f
  4704  0B10                     u2090:
  4705  0B10  3EFF               	addlw	-1
  4706  0B11  1D03               	skipz
  4707  0B12  2B0B               	goto	u2095
  4708  0B13  0879               	movf	??___fltol,w
  4709  0B14  00FD               	movwf	??___fltol+4
  4710  0B15  087D               	movf	??___fltol+4,w
  4711  0B16  00AA               	movwf	___fltol@sign1
  4712  0B17                     l1924:
  4713  0B17  17A8               	bsf	___fltol@f1+2,7
  4714  0B18                     l1926:
  4715  0B18  30FF               	movlw	255
  4716  0B19  05A6               	andwf	___fltol@f1,f
  4717  0B1A  30FF               	movlw	255
  4718  0B1B  05A7               	andwf	___fltol@f1+1,f
  4719  0B1C  30FF               	movlw	255
  4720  0B1D  05A8               	andwf	___fltol@f1+2,f
  4721  0B1E  3000               	movlw	0
  4722  0B1F  05A9               	andwf	___fltol@f1+3,f
  4723  0B20                     l1928:
  4724  0B20  3096               	movlw	150
  4725  0B21  02AB               	subwf	___fltol@exp1,f
  4726  0B22                     l1930:
  4727  0B22  1FAB               	btfss	___fltol@exp1,7
  4728  0B23  2B25               	goto	u2101
  4729  0B24  2B26               	goto	u2100
  4730  0B25                     u2101:
  4731  0B25  2B40               	goto	l1940
  4732  0B26                     u2100:
  4733  0B26                     l1932:
  4734  0B26  082B               	movf	___fltol@exp1,w
  4735  0B27  3A80               	xorlw	128
  4736  0B28  3E97               	addlw	151
  4737  0B29  1803               	skipnc
  4738  0B2A  2B2C               	goto	u2111
  4739  0B2B  2B2D               	goto	u2110
  4740  0B2C                     u2111:
  4741  0B2C  2B2E               	goto	l1938
  4742  0B2D                     u2110:
  4743  0B2D  2AF9               	goto	l1918
  4744  0B2E                     l1938:
  4745  0B2E  3001               	movlw	1
  4746  0B2F                     u2125:
  4747  0B2F  1003               	clrc
  4748  0B30  0CA9               	rrf	___fltol@f1+3,f
  4749  0B31  0CA8               	rrf	___fltol@f1+2,f
  4750  0B32  0CA7               	rrf	___fltol@f1+1,f
  4751  0B33  0CA6               	rrf	___fltol@f1,f
  4752  0B34  3EFF               	addlw	-1
  4753  0B35  1D03               	skipz
  4754  0B36  2B2F               	goto	u2125
  4755  0B37  3001               	movlw	1
  4756  0B38  00F9               	movwf	??___fltol
  4757  0B39  0879               	movf	??___fltol,w
  4758  0B3A  07AB               	addwf	___fltol@exp1,f
  4759  0B3B  1D03               	btfss	3,2
  4760  0B3C  2B3E               	goto	u2131
  4761  0B3D  2B3F               	goto	u2130
  4762  0B3E                     u2131:
  4763  0B3E  2B2E               	goto	l1938
  4764  0B3F                     u2130:
  4765  0B3F  2B57               	goto	l1948
  4766  0B40                     l1940:
  4767  0B40  3020               	movlw	32
  4768  0B41  022B               	subwf	___fltol@exp1,w
  4769  0B42  1C03               	skipc
  4770  0B43  2B45               	goto	u2141
  4771  0B44  2B46               	goto	u2140
  4772  0B45                     u2141:
  4773  0B45  2B52               	goto	l517
  4774  0B46                     u2140:
  4775  0B46  2AF9               	goto	l1918
  4776  0B47                     l1946:
  4777  0B47  3001               	movlw	1
  4778  0B48  00F9               	movwf	??___fltol
  4779  0B49                     u2155:
  4780  0B49  1003               	clrc
  4781  0B4A  0DA6               	rlf	___fltol@f1,f
  4782  0B4B  0DA7               	rlf	___fltol@f1+1,f
  4783  0B4C  0DA8               	rlf	___fltol@f1+2,f
  4784  0B4D  0DA9               	rlf	___fltol@f1+3,f
  4785  0B4E  0BF9               	decfsz	??___fltol,f
  4786  0B4F  2B49               	goto	u2155
  4787  0B50  3001               	movlw	1
  4788  0B51  02AB               	subwf	___fltol@exp1,f
  4789  0B52                     l517:
  4790  0B52  082B               	movf	___fltol@exp1,w
  4791  0B53  1D03               	btfss	3,2
  4792  0B54  2B56               	goto	u2161
  4793  0B55  2B57               	goto	u2160
  4794  0B56                     u2161:
  4795  0B56  2B47               	goto	l1946
  4796  0B57                     u2160:
  4797  0B57                     l1948:
  4798  0B57  082A               	movf	___fltol@sign1,w
  4799  0B58  1903               	btfsc	3,2
  4800  0B59  2B5B               	goto	u2171
  4801  0B5A  2B5C               	goto	u2170
  4802  0B5B                     u2171:
  4803  0B5B  2B67               	goto	l520
  4804  0B5C                     u2170:
  4805  0B5C                     l1950:
  4806  0B5C  09A6               	comf	___fltol@f1,f
  4807  0B5D  09A7               	comf	___fltol@f1+1,f
  4808  0B5E  09A8               	comf	___fltol@f1+2,f
  4809  0B5F  09A9               	comf	___fltol@f1+3,f
  4810  0B60  0AA6               	incf	___fltol@f1,f
  4811  0B61  1903               	skipnz
  4812  0B62  0AA7               	incf	___fltol@f1+1,f
  4813  0B63  1903               	skipnz
  4814  0B64  0AA8               	incf	___fltol@f1+2,f
  4815  0B65  1903               	skipnz
  4816  0B66  0AA9               	incf	___fltol@f1+3,f
  4817  0B67                     l520:
  4818  0B67                     l510:
  4819  0B67  0008               	return
  4820  0B68                     __end_of___fltol:
  4821                           
  4822                           	psect	text22
  4823  0463                     __ptext22:	
  4824 ;; *************** function ___flmul *****************
  4825 ;; Defined at:
  4826 ;;		line 8 in file "C:\Program Files\Microchip\xc8\v2.32\pic\sources\c90\common\sprcmul.c"
  4827 ;; Parameters:    Size  Location     Type
  4828 ;;  b               4   54[BANK0 ] long 
  4829 ;;  a               4   58[BANK0 ] long 
  4830 ;; Auto vars:     Size  Location     Type
  4831 ;;  prod            4   74[BANK0 ] struct .
  4832 ;;  grs             4   68[BANK0 ] unsigned long 
  4833 ;;  temp            2   78[BANK0 ] struct .
  4834 ;;  bexp            1   73[BANK0 ] unsigned char 
  4835 ;;  aexp            1   72[BANK0 ] unsigned char 
  4836 ;;  sign            1   67[BANK0 ] unsigned char 
  4837 ;; Return value:  Size  Location     Type
  4838 ;;                  4   54[BANK0 ] unsigned char 
  4839 ;; Registers used:
  4840 ;;		wreg, status,2, status,0, btemp+1, pclath, cstack
  4841 ;; Tracked objects:
  4842 ;;		On entry : 0/0
  4843 ;;		On exit  : 0/0
  4844 ;;		Unchanged: 0/0
  4845 ;; Data sizes:     COMMON   BANK0   BANK1   BANK3   BANK2
  4846 ;;      Params:         0       8       0       0       0
  4847 ;;      Locals:         0      13       0       0       0
  4848 ;;      Temps:          0       5       0       0       0
  4849 ;;      Totals:         0      26       0       0       0
  4850 ;;Total ram usage:       26 bytes
  4851 ;; Hardware stack levels used: 1
  4852 ;; Hardware stack levels required when called: 1
  4853 ;; This function calls:
  4854 ;;		__Umul8_16
  4855 ;; This function is called by:
  4856 ;;		_PWM1_Duty
  4857 ;;		_PWM2_Duty
  4858 ;;		_main
  4859 ;; This function uses a non-reentrant model
  4860 ;;
  4861                           
  4862                           
  4863                           ;psect for function ___flmul
  4864  0463                     ___flmul:
  4865  0463                     l2094:	
  4866                           ;incstack = 0
  4867                           ; Regs used in ___flmul: [wreg+status,2+status,0+btemp+1+pclath+cstack]
  4868                           
  4869  0463  1283               	bcf	3,5	;RP0=0, select bank0
  4870  0464  1303               	bcf	3,6	;RP1=0, select bank0
  4871  0465  0859               	movf	___flmul@b+3,w
  4872  0466  3980               	andlw	128
  4873  0467  00DE               	movwf	??___flmul
  4874  0468  085E               	movf	??___flmul,w
  4875  0469  00E3               	movwf	___flmul@sign
  4876  046A                     l2096:
  4877  046A  0859               	movf	___flmul@b+3,w
  4878  046B  00DE               	movwf	??___flmul
  4879  046C  075E               	addwf	??___flmul,w
  4880  046D  00DF               	movwf	??___flmul+1
  4881  046E  085F               	movf	??___flmul+1,w
  4882  046F  00E9               	movwf	___flmul@bexp
  4883  0470                     l2098:
  4884  0470  1FD8               	btfss	___flmul@b+2,7
  4885  0471  2C73               	goto	u2471
  4886  0472  2C74               	goto	u2470
  4887  0473                     u2471:
  4888  0473  2C75               	goto	l2102
  4889  0474                     u2470:
  4890  0474                     l2100:
  4891  0474  1469               	bsf	___flmul@bexp,0
  4892  0475                     l2102:
  4893  0475  0869               	movf	___flmul@bexp,w
  4894  0476  1903               	btfsc	3,2
  4895  0477  2C79               	goto	u2481
  4896  0478  2C7A               	goto	u2480
  4897  0479                     u2481:
  4898  0479  2C89               	goto	l2110
  4899  047A                     u2480:
  4900  047A                     l2104:
  4901  047A  0A69               	incf	___flmul@bexp,w
  4902  047B  1D03               	btfss	3,2
  4903  047C  2C7E               	goto	u2491
  4904  047D  2C7F               	goto	u2490
  4905  047E                     u2491:
  4906  047E  2C87               	goto	l2108
  4907  047F                     u2490:
  4908  047F                     l2106:
  4909  047F  3000               	movlw	0
  4910  0480  00D9               	movwf	___flmul@b+3
  4911  0481  3000               	movlw	0
  4912  0482  00D8               	movwf	___flmul@b+2
  4913  0483  3000               	movlw	0
  4914  0484  00D7               	movwf	___flmul@b+1
  4915  0485  3000               	movlw	0
  4916  0486  00D6               	movwf	___flmul@b
  4917  0487                     l2108:
  4918  0487  17D8               	bsf	___flmul@b+2,7
  4919  0488  2C91               	goto	l2112
  4920  0489                     l2110:
  4921  0489  3000               	movlw	0
  4922  048A  00D9               	movwf	___flmul@b+3
  4923  048B  3000               	movlw	0
  4924  048C  00D8               	movwf	___flmul@b+2
  4925  048D  3000               	movlw	0
  4926  048E  00D7               	movwf	___flmul@b+1
  4927  048F  3000               	movlw	0
  4928  0490  00D6               	movwf	___flmul@b
  4929  0491                     l2112:
  4930  0491  085D               	movf	___flmul@a+3,w
  4931  0492  3980               	andlw	128
  4932  0493  00DE               	movwf	??___flmul
  4933  0494  085E               	movf	??___flmul,w
  4934  0495  06E3               	xorwf	___flmul@sign,f
  4935  0496                     l2114:
  4936  0496  085D               	movf	___flmul@a+3,w
  4937  0497  00DE               	movwf	??___flmul
  4938  0498  075E               	addwf	??___flmul,w
  4939  0499  00DF               	movwf	??___flmul+1
  4940  049A  085F               	movf	??___flmul+1,w
  4941  049B  00E8               	movwf	___flmul@aexp
  4942  049C                     l2116:
  4943  049C  1FDC               	btfss	___flmul@a+2,7
  4944  049D  2C9F               	goto	u2501
  4945  049E  2CA0               	goto	u2500
  4946  049F                     u2501:
  4947  049F  2CA1               	goto	l2120
  4948  04A0                     u2500:
  4949  04A0                     l2118:
  4950  04A0  1468               	bsf	___flmul@aexp,0
  4951  04A1                     l2120:
  4952  04A1  0868               	movf	___flmul@aexp,w
  4953  04A2  1903               	btfsc	3,2
  4954  04A3  2CA5               	goto	u2511
  4955  04A4  2CA6               	goto	u2510
  4956  04A5                     u2511:
  4957  04A5  2CB5               	goto	l2128
  4958  04A6                     u2510:
  4959  04A6                     l2122:
  4960  04A6  0A68               	incf	___flmul@aexp,w
  4961  04A7  1D03               	btfss	3,2
  4962  04A8  2CAA               	goto	u2521
  4963  04A9  2CAB               	goto	u2520
  4964  04AA                     u2521:
  4965  04AA  2CB3               	goto	l2126
  4966  04AB                     u2520:
  4967  04AB                     l2124:
  4968  04AB  3000               	movlw	0
  4969  04AC  00DD               	movwf	___flmul@a+3
  4970  04AD  3000               	movlw	0
  4971  04AE  00DC               	movwf	___flmul@a+2
  4972  04AF  3000               	movlw	0
  4973  04B0  00DB               	movwf	___flmul@a+1
  4974  04B1  3000               	movlw	0
  4975  04B2  00DA               	movwf	___flmul@a
  4976  04B3                     l2126:
  4977  04B3  17DC               	bsf	___flmul@a+2,7
  4978  04B4  2CBD               	goto	l2130
  4979  04B5                     l2128:
  4980  04B5  3000               	movlw	0
  4981  04B6  00DD               	movwf	___flmul@a+3
  4982  04B7  3000               	movlw	0
  4983  04B8  00DC               	movwf	___flmul@a+2
  4984  04B9  3000               	movlw	0
  4985  04BA  00DB               	movwf	___flmul@a+1
  4986  04BB  3000               	movlw	0
  4987  04BC  00DA               	movwf	___flmul@a
  4988  04BD                     l2130:
  4989  04BD  0868               	movf	___flmul@aexp,w
  4990  04BE  1903               	btfsc	3,2
  4991  04BF  2CC1               	goto	u2531
  4992  04C0  2CC2               	goto	u2530
  4993  04C1                     u2531:
  4994  04C1  2CC7               	goto	l2134
  4995  04C2                     u2530:
  4996  04C2                     l2132:
  4997  04C2  0869               	movf	___flmul@bexp,w
  4998  04C3  1D03               	btfss	3,2
  4999  04C4  2CC6               	goto	u2541
  5000  04C5  2CC7               	goto	u2540
  5001  04C6                     u2541:
  5002  04C6  2CD0               	goto	l2138
  5003  04C7                     u2540:
  5004  04C7                     l2134:
  5005  04C7  3000               	movlw	0
  5006  04C8  00D9               	movwf	?___flmul+3
  5007  04C9  3000               	movlw	0
  5008  04CA  00D8               	movwf	?___flmul+2
  5009  04CB  3000               	movlw	0
  5010  04CC  00D7               	movwf	?___flmul+1
  5011  04CD  3000               	movlw	0
  5012  04CE  00D6               	movwf	?___flmul
  5013  04CF  2FC3               	goto	l713
  5014  04D0                     l2138:
  5015  04D0  0856               	movf	___flmul@b,w
  5016  04D1  00DE               	movwf	??___flmul
  5017  04D2  085E               	movf	??___flmul,w
  5018  04D3  00F0               	movwf	__Umul8_16@multiplicand
  5019  04D4  085C               	movf	___flmul@a+2,w
  5020  04D5  120A  158A  2065  120A  118A  	fcall	__Umul8_16
  5021  04DA  0871               	movf	?__Umul8_16+1,w
  5022  04DB  1283               	bcf	3,5	;RP0=0, select bank0
  5023  04DC  1303               	bcf	3,6	;RP1=0, select bank0
  5024  04DD  00EF               	movwf	___flmul@temp+1
  5025  04DE  0870               	movf	?__Umul8_16,w
  5026  04DF  00EE               	movwf	___flmul@temp
  5027  04E0                     l2140:
  5028  04E0  086E               	movf	___flmul@temp,w
  5029  04E1  00DE               	movwf	??___flmul
  5030  04E2  01DF               	clrf	??___flmul+1
  5031  04E3  01E0               	clrf	??___flmul+2
  5032  04E4  01E1               	clrf	??___flmul+3
  5033  04E5  0861               	movf	??___flmul+3,w
  5034  04E6  00E7               	movwf	___flmul@grs+3
  5035  04E7  0860               	movf	??___flmul+2,w
  5036  04E8  00E6               	movwf	___flmul@grs+2
  5037  04E9  085F               	movf	??___flmul+1,w
  5038  04EA  00E5               	movwf	___flmul@grs+1
  5039  04EB  085E               	movf	??___flmul,w
  5040  04EC  00E4               	movwf	___flmul@grs
  5041  04ED                     l2142:
  5042  04ED  086F               	movf	___flmul@temp+1,w
  5043  04EE  00DE               	movwf	??___flmul
  5044  04EF  01DF               	clrf	??___flmul+1
  5045  04F0  01E0               	clrf	??___flmul+2
  5046  04F1  01E1               	clrf	??___flmul+3
  5047  04F2  0861               	movf	??___flmul+3,w
  5048  04F3  00ED               	movwf	___flmul@prod+3
  5049  04F4  0860               	movf	??___flmul+2,w
  5050  04F5  00EC               	movwf	___flmul@prod+2
  5051  04F6  085F               	movf	??___flmul+1,w
  5052  04F7  00EB               	movwf	___flmul@prod+1
  5053  04F8  085E               	movf	??___flmul,w
  5054  04F9  00EA               	movwf	___flmul@prod
  5055  04FA  0857               	movf	___flmul@b+1,w
  5056  04FB  00DE               	movwf	??___flmul
  5057  04FC  085E               	movf	??___flmul,w
  5058  04FD  00F0               	movwf	__Umul8_16@multiplicand
  5059  04FE  085B               	movf	___flmul@a+1,w
  5060  04FF  120A  158A  2065  120A  118A  	fcall	__Umul8_16
  5061  0504  0871               	movf	?__Umul8_16+1,w
  5062  0505  1283               	bcf	3,5	;RP0=0, select bank0
  5063  0506  1303               	bcf	3,6	;RP1=0, select bank0
  5064  0507  00EF               	movwf	___flmul@temp+1
  5065  0508  0870               	movf	?__Umul8_16,w
  5066  0509  00EE               	movwf	___flmul@temp
  5067  050A                     l2144:
  5068  050A  086E               	movf	___flmul@temp,w
  5069  050B  00DE               	movwf	??___flmul
  5070  050C  01DF               	clrf	??___flmul+1
  5071  050D  01E0               	clrf	??___flmul+2
  5072  050E  01E1               	clrf	??___flmul+3
  5073  050F  085E               	movf	??___flmul,w
  5074  0510  07E4               	addwf	___flmul@grs,f
  5075  0511  085F               	movf	??___flmul+1,w
  5076  0512  1103               	clrz
  5077  0513  1803               	skipnc
  5078  0514  3E01               	addlw	1
  5079  0515  1903               	skipnz
  5080  0516  2D18               	goto	u2551
  5081  0517  07E5               	addwf	___flmul@grs+1,f
  5082  0518                     u2551:
  5083  0518  0860               	movf	??___flmul+2,w
  5084  0519  1103               	clrz
  5085  051A  1803               	skipnc
  5086  051B  3E01               	addlw	1
  5087  051C  1903               	skipnz
  5088  051D  2D1F               	goto	u2552
  5089  051E  07E6               	addwf	___flmul@grs+2,f
  5090  051F                     u2552:
  5091  051F  0861               	movf	??___flmul+3,w
  5092  0520  1103               	clrz
  5093  0521  1803               	skipnc
  5094  0522  3E01               	addlw	1
  5095  0523  1903               	skipnz
  5096  0524  2D26               	goto	u2553
  5097  0525  07E7               	addwf	___flmul@grs+3,f
  5098  0526                     u2553:
  5099  0526                     l2146:
  5100  0526  086F               	movf	___flmul@temp+1,w
  5101  0527  00DE               	movwf	??___flmul
  5102  0528  01DF               	clrf	??___flmul+1
  5103  0529  01E0               	clrf	??___flmul+2
  5104  052A  01E1               	clrf	??___flmul+3
  5105  052B  085E               	movf	??___flmul,w
  5106  052C  07EA               	addwf	___flmul@prod,f
  5107  052D  085F               	movf	??___flmul+1,w
  5108  052E  1103               	clrz
  5109  052F  1803               	skipnc
  5110  0530  3E01               	addlw	1
  5111  0531  1903               	skipnz
  5112  0532  2D34               	goto	u2561
  5113  0533  07EB               	addwf	___flmul@prod+1,f
  5114  0534                     u2561:
  5115  0534  0860               	movf	??___flmul+2,w
  5116  0535  1103               	clrz
  5117  0536  1803               	skipnc
  5118  0537  3E01               	addlw	1
  5119  0538  1903               	skipnz
  5120  0539  2D3B               	goto	u2562
  5121  053A  07EC               	addwf	___flmul@prod+2,f
  5122  053B                     u2562:
  5123  053B  0861               	movf	??___flmul+3,w
  5124  053C  1103               	clrz
  5125  053D  1803               	skipnc
  5126  053E  3E01               	addlw	1
  5127  053F  1903               	skipnz
  5128  0540  2D42               	goto	u2563
  5129  0541  07ED               	addwf	___flmul@prod+3,f
  5130  0542                     u2563:
  5131  0542  0858               	movf	___flmul@b+2,w
  5132  0543  00DE               	movwf	??___flmul
  5133  0544  085E               	movf	??___flmul,w
  5134  0545  00F0               	movwf	__Umul8_16@multiplicand
  5135  0546  085A               	movf	___flmul@a,w
  5136  0547  120A  158A  2065  120A  118A  	fcall	__Umul8_16
  5137  054C  0871               	movf	?__Umul8_16+1,w
  5138  054D  1283               	bcf	3,5	;RP0=0, select bank0
  5139  054E  1303               	bcf	3,6	;RP1=0, select bank0
  5140  054F  00EF               	movwf	___flmul@temp+1
  5141  0550  0870               	movf	?__Umul8_16,w
  5142  0551  00EE               	movwf	___flmul@temp
  5143  0552                     l2148:
  5144  0552  086E               	movf	___flmul@temp,w
  5145  0553  00DE               	movwf	??___flmul
  5146  0554  01DF               	clrf	??___flmul+1
  5147  0555  01E0               	clrf	??___flmul+2
  5148  0556  01E1               	clrf	??___flmul+3
  5149  0557  085E               	movf	??___flmul,w
  5150  0558  07E4               	addwf	___flmul@grs,f
  5151  0559  085F               	movf	??___flmul+1,w
  5152  055A  1103               	clrz
  5153  055B  1803               	skipnc
  5154  055C  3E01               	addlw	1
  5155  055D  1903               	skipnz
  5156  055E  2D60               	goto	u2571
  5157  055F  07E5               	addwf	___flmul@grs+1,f
  5158  0560                     u2571:
  5159  0560  0860               	movf	??___flmul+2,w
  5160  0561  1103               	clrz
  5161  0562  1803               	skipnc
  5162  0563  3E01               	addlw	1
  5163  0564  1903               	skipnz
  5164  0565  2D67               	goto	u2572
  5165  0566  07E6               	addwf	___flmul@grs+2,f
  5166  0567                     u2572:
  5167  0567  0861               	movf	??___flmul+3,w
  5168  0568  1103               	clrz
  5169  0569  1803               	skipnc
  5170  056A  3E01               	addlw	1
  5171  056B  1903               	skipnz
  5172  056C  2D6E               	goto	u2573
  5173  056D  07E7               	addwf	___flmul@grs+3,f
  5174  056E                     u2573:
  5175  056E                     l2150:
  5176  056E  086F               	movf	___flmul@temp+1,w
  5177  056F  00DE               	movwf	??___flmul
  5178  0570  01DF               	clrf	??___flmul+1
  5179  0571  01E0               	clrf	??___flmul+2
  5180  0572  01E1               	clrf	??___flmul+3
  5181  0573  085E               	movf	??___flmul,w
  5182  0574  07EA               	addwf	___flmul@prod,f
  5183  0575  085F               	movf	??___flmul+1,w
  5184  0576  1103               	clrz
  5185  0577  1803               	skipnc
  5186  0578  3E01               	addlw	1
  5187  0579  1903               	skipnz
  5188  057A  2D7C               	goto	u2581
  5189  057B  07EB               	addwf	___flmul@prod+1,f
  5190  057C                     u2581:
  5191  057C  0860               	movf	??___flmul+2,w
  5192  057D  1103               	clrz
  5193  057E  1803               	skipnc
  5194  057F  3E01               	addlw	1
  5195  0580  1903               	skipnz
  5196  0581  2D83               	goto	u2582
  5197  0582  07EC               	addwf	___flmul@prod+2,f
  5198  0583                     u2582:
  5199  0583  0861               	movf	??___flmul+3,w
  5200  0584  1103               	clrz
  5201  0585  1803               	skipnc
  5202  0586  3E01               	addlw	1
  5203  0587  1903               	skipnz
  5204  0588  2D8A               	goto	u2583
  5205  0589  07ED               	addwf	___flmul@prod+3,f
  5206  058A                     u2583:
  5207  058A                     l2152:
  5208  058A  3008               	movlw	8
  5209  058B  00DE               	movwf	??___flmul
  5210  058C                     u2595:
  5211  058C  1003               	clrc
  5212  058D  0DE4               	rlf	___flmul@grs,f
  5213  058E  0DE5               	rlf	___flmul@grs+1,f
  5214  058F  0DE6               	rlf	___flmul@grs+2,f
  5215  0590  0DE7               	rlf	___flmul@grs+3,f
  5216  0591  0BDE               	decfsz	??___flmul,f
  5217  0592  2D8C               	goto	u2595
  5218  0593                     l2154:
  5219  0593  0857               	movf	___flmul@b+1,w
  5220  0594  00DE               	movwf	??___flmul
  5221  0595  085E               	movf	??___flmul,w
  5222  0596  00F0               	movwf	__Umul8_16@multiplicand
  5223  0597  085A               	movf	___flmul@a,w
  5224  0598  120A  158A  2065  120A  118A  	fcall	__Umul8_16
  5225  059D  0871               	movf	?__Umul8_16+1,w
  5226  059E  1283               	bcf	3,5	;RP0=0, select bank0
  5227  059F  1303               	bcf	3,6	;RP1=0, select bank0
  5228  05A0  00EF               	movwf	___flmul@temp+1
  5229  05A1  0870               	movf	?__Umul8_16,w
  5230  05A2  00EE               	movwf	___flmul@temp
  5231  05A3                     l2156:
  5232  05A3  086E               	movf	___flmul@temp,w
  5233  05A4  00DE               	movwf	??___flmul
  5234  05A5  086F               	movf	___flmul@temp+1,w
  5235  05A6  00DF               	movwf	??___flmul+1
  5236  05A7  01E0               	clrf	??___flmul+2
  5237  05A8  01E1               	clrf	??___flmul+3
  5238  05A9  085E               	movf	??___flmul,w
  5239  05AA  07E4               	addwf	___flmul@grs,f
  5240  05AB  085F               	movf	??___flmul+1,w
  5241  05AC  1103               	clrz
  5242  05AD  1803               	skipnc
  5243  05AE  3E01               	addlw	1
  5244  05AF  1903               	skipnz
  5245  05B0  2DB2               	goto	u2601
  5246  05B1  07E5               	addwf	___flmul@grs+1,f
  5247  05B2                     u2601:
  5248  05B2  0860               	movf	??___flmul+2,w
  5249  05B3  1103               	clrz
  5250  05B4  1803               	skipnc
  5251  05B5  3E01               	addlw	1
  5252  05B6  1903               	skipnz
  5253  05B7  2DB9               	goto	u2602
  5254  05B8  07E6               	addwf	___flmul@grs+2,f
  5255  05B9                     u2602:
  5256  05B9  0861               	movf	??___flmul+3,w
  5257  05BA  1103               	clrz
  5258  05BB  1803               	skipnc
  5259  05BC  3E01               	addlw	1
  5260  05BD  1903               	skipnz
  5261  05BE  2DC0               	goto	u2603
  5262  05BF  07E7               	addwf	___flmul@grs+3,f
  5263  05C0                     u2603:
  5264  05C0                     l2158:
  5265  05C0  0856               	movf	___flmul@b,w
  5266  05C1  00DE               	movwf	??___flmul
  5267  05C2  085E               	movf	??___flmul,w
  5268  05C3  00F0               	movwf	__Umul8_16@multiplicand
  5269  05C4  085B               	movf	___flmul@a+1,w
  5270  05C5  120A  158A  2065  120A  118A  	fcall	__Umul8_16
  5271  05CA  0871               	movf	?__Umul8_16+1,w
  5272  05CB  1283               	bcf	3,5	;RP0=0, select bank0
  5273  05CC  1303               	bcf	3,6	;RP1=0, select bank0
  5274  05CD  00EF               	movwf	___flmul@temp+1
  5275  05CE  0870               	movf	?__Umul8_16,w
  5276  05CF  00EE               	movwf	___flmul@temp
  5277  05D0                     l2160:
  5278  05D0  086E               	movf	___flmul@temp,w
  5279  05D1  00DE               	movwf	??___flmul
  5280  05D2  086F               	movf	___flmul@temp+1,w
  5281  05D3  00DF               	movwf	??___flmul+1
  5282  05D4  01E0               	clrf	??___flmul+2
  5283  05D5  01E1               	clrf	??___flmul+3
  5284  05D6  085E               	movf	??___flmul,w
  5285  05D7  07E4               	addwf	___flmul@grs,f
  5286  05D8  085F               	movf	??___flmul+1,w
  5287  05D9  1103               	clrz
  5288  05DA  1803               	skipnc
  5289  05DB  3E01               	addlw	1
  5290  05DC  1903               	skipnz
  5291  05DD  2DDF               	goto	u2611
  5292  05DE  07E5               	addwf	___flmul@grs+1,f
  5293  05DF                     u2611:
  5294  05DF  0860               	movf	??___flmul+2,w
  5295  05E0  1103               	clrz
  5296  05E1  1803               	skipnc
  5297  05E2  3E01               	addlw	1
  5298  05E3  1903               	skipnz
  5299  05E4  2DE6               	goto	u2612
  5300  05E5  07E6               	addwf	___flmul@grs+2,f
  5301  05E6                     u2612:
  5302  05E6  0861               	movf	??___flmul+3,w
  5303  05E7  1103               	clrz
  5304  05E8  1803               	skipnc
  5305  05E9  3E01               	addlw	1
  5306  05EA  1903               	skipnz
  5307  05EB  2DED               	goto	u2613
  5308  05EC  07E7               	addwf	___flmul@grs+3,f
  5309  05ED                     u2613:
  5310  05ED                     l2162:
  5311  05ED  3008               	movlw	8
  5312  05EE  00DE               	movwf	??___flmul
  5313  05EF                     u2625:
  5314  05EF  1003               	clrc
  5315  05F0  0DE4               	rlf	___flmul@grs,f
  5316  05F1  0DE5               	rlf	___flmul@grs+1,f
  5317  05F2  0DE6               	rlf	___flmul@grs+2,f
  5318  05F3  0DE7               	rlf	___flmul@grs+3,f
  5319  05F4  0BDE               	decfsz	??___flmul,f
  5320  05F5  2DEF               	goto	u2625
  5321  05F6  0856               	movf	___flmul@b,w
  5322  05F7  00DE               	movwf	??___flmul
  5323  05F8  085E               	movf	??___flmul,w
  5324  05F9  00F0               	movwf	__Umul8_16@multiplicand
  5325  05FA  085A               	movf	___flmul@a,w
  5326  05FB  120A  158A  2065  120A  118A  	fcall	__Umul8_16
  5327  0600  0871               	movf	?__Umul8_16+1,w
  5328  0601  1283               	bcf	3,5	;RP0=0, select bank0
  5329  0602  1303               	bcf	3,6	;RP1=0, select bank0
  5330  0603  00EF               	movwf	___flmul@temp+1
  5331  0604  0870               	movf	?__Umul8_16,w
  5332  0605  00EE               	movwf	___flmul@temp
  5333  0606                     l2164:
  5334  0606  086E               	movf	___flmul@temp,w
  5335  0607  00DE               	movwf	??___flmul
  5336  0608  086F               	movf	___flmul@temp+1,w
  5337  0609  00DF               	movwf	??___flmul+1
  5338  060A  01E0               	clrf	??___flmul+2
  5339  060B  01E1               	clrf	??___flmul+3
  5340  060C  085E               	movf	??___flmul,w
  5341  060D  07E4               	addwf	___flmul@grs,f
  5342  060E  085F               	movf	??___flmul+1,w
  5343  060F  1103               	clrz
  5344  0610  1803               	skipnc
  5345  0611  3E01               	addlw	1
  5346  0612  1903               	skipnz
  5347  0613  2E15               	goto	u2631
  5348  0614  07E5               	addwf	___flmul@grs+1,f
  5349  0615                     u2631:
  5350  0615  0860               	movf	??___flmul+2,w
  5351  0616  1103               	clrz
  5352  0617  1803               	skipnc
  5353  0618  3E01               	addlw	1
  5354  0619  1903               	skipnz
  5355  061A  2E1C               	goto	u2632
  5356  061B  07E6               	addwf	___flmul@grs+2,f
  5357  061C                     u2632:
  5358  061C  0861               	movf	??___flmul+3,w
  5359  061D  1103               	clrz
  5360  061E  1803               	skipnc
  5361  061F  3E01               	addlw	1
  5362  0620  1903               	skipnz
  5363  0621  2E23               	goto	u2633
  5364  0622  07E7               	addwf	___flmul@grs+3,f
  5365  0623                     u2633:
  5366  0623                     l2166:
  5367  0623  0857               	movf	___flmul@b+1,w
  5368  0624  00DE               	movwf	??___flmul
  5369  0625  085E               	movf	??___flmul,w
  5370  0626  00F0               	movwf	__Umul8_16@multiplicand
  5371  0627  085C               	movf	___flmul@a+2,w
  5372  0628  120A  158A  2065  120A  118A  	fcall	__Umul8_16
  5373  062D  0871               	movf	?__Umul8_16+1,w
  5374  062E  1283               	bcf	3,5	;RP0=0, select bank0
  5375  062F  1303               	bcf	3,6	;RP1=0, select bank0
  5376  0630  00EF               	movwf	___flmul@temp+1
  5377  0631  0870               	movf	?__Umul8_16,w
  5378  0632  00EE               	movwf	___flmul@temp
  5379  0633  086E               	movf	___flmul@temp,w
  5380  0634  00DE               	movwf	??___flmul
  5381  0635  086F               	movf	___flmul@temp+1,w
  5382  0636  00DF               	movwf	??___flmul+1
  5383  0637  01E0               	clrf	??___flmul+2
  5384  0638  01E1               	clrf	??___flmul+3
  5385  0639  085E               	movf	??___flmul,w
  5386  063A  07EA               	addwf	___flmul@prod,f
  5387  063B  085F               	movf	??___flmul+1,w
  5388  063C  1103               	clrz
  5389  063D  1803               	skipnc
  5390  063E  3E01               	addlw	1
  5391  063F  1903               	skipnz
  5392  0640  2E42               	goto	u2641
  5393  0641  07EB               	addwf	___flmul@prod+1,f
  5394  0642                     u2641:
  5395  0642  0860               	movf	??___flmul+2,w
  5396  0643  1103               	clrz
  5397  0644  1803               	skipnc
  5398  0645  3E01               	addlw	1
  5399  0646  1903               	skipnz
  5400  0647  2E49               	goto	u2642
  5401  0648  07EC               	addwf	___flmul@prod+2,f
  5402  0649                     u2642:
  5403  0649  0861               	movf	??___flmul+3,w
  5404  064A  1103               	clrz
  5405  064B  1803               	skipnc
  5406  064C  3E01               	addlw	1
  5407  064D  1903               	skipnz
  5408  064E  2E50               	goto	u2643
  5409  064F  07ED               	addwf	___flmul@prod+3,f
  5410  0650                     u2643:
  5411  0650                     l2168:
  5412  0650  0858               	movf	___flmul@b+2,w
  5413  0651  00DE               	movwf	??___flmul
  5414  0652  085E               	movf	??___flmul,w
  5415  0653  00F0               	movwf	__Umul8_16@multiplicand
  5416  0654  085B               	movf	___flmul@a+1,w
  5417  0655  120A  158A  2065  120A  118A  	fcall	__Umul8_16
  5418  065A  0871               	movf	?__Umul8_16+1,w
  5419  065B  1283               	bcf	3,5	;RP0=0, select bank0
  5420  065C  1303               	bcf	3,6	;RP1=0, select bank0
  5421  065D  00EF               	movwf	___flmul@temp+1
  5422  065E  0870               	movf	?__Umul8_16,w
  5423  065F  00EE               	movwf	___flmul@temp
  5424  0660                     l2170:
  5425  0660  086E               	movf	___flmul@temp,w
  5426  0661  00DE               	movwf	??___flmul
  5427  0662  086F               	movf	___flmul@temp+1,w
  5428  0663  00DF               	movwf	??___flmul+1
  5429  0664  01E0               	clrf	??___flmul+2
  5430  0665  01E1               	clrf	??___flmul+3
  5431  0666  085E               	movf	??___flmul,w
  5432  0667  07EA               	addwf	___flmul@prod,f
  5433  0668  085F               	movf	??___flmul+1,w
  5434  0669  1103               	clrz
  5435  066A  1803               	skipnc
  5436  066B  3E01               	addlw	1
  5437  066C  1903               	skipnz
  5438  066D  2E6F               	goto	u2651
  5439  066E  07EB               	addwf	___flmul@prod+1,f
  5440  066F                     u2651:
  5441  066F  0860               	movf	??___flmul+2,w
  5442  0670  1103               	clrz
  5443  0671  1803               	skipnc
  5444  0672  3E01               	addlw	1
  5445  0673  1903               	skipnz
  5446  0674  2E76               	goto	u2652
  5447  0675  07EC               	addwf	___flmul@prod+2,f
  5448  0676                     u2652:
  5449  0676  0861               	movf	??___flmul+3,w
  5450  0677  1103               	clrz
  5451  0678  1803               	skipnc
  5452  0679  3E01               	addlw	1
  5453  067A  1903               	skipnz
  5454  067B  2E7D               	goto	u2653
  5455  067C  07ED               	addwf	___flmul@prod+3,f
  5456  067D                     u2653:
  5457  067D  0858               	movf	___flmul@b+2,w
  5458  067E  00DE               	movwf	??___flmul
  5459  067F  085E               	movf	??___flmul,w
  5460  0680  00F0               	movwf	__Umul8_16@multiplicand
  5461  0681  085C               	movf	___flmul@a+2,w
  5462  0682  120A  158A  2065  120A  118A  	fcall	__Umul8_16
  5463  0687  0871               	movf	?__Umul8_16+1,w
  5464  0688  1283               	bcf	3,5	;RP0=0, select bank0
  5465  0689  1303               	bcf	3,6	;RP1=0, select bank0
  5466  068A  00EF               	movwf	___flmul@temp+1
  5467  068B  0870               	movf	?__Umul8_16,w
  5468  068C  00EE               	movwf	___flmul@temp
  5469  068D                     l2172:
  5470  068D  086E               	movf	___flmul@temp,w
  5471  068E  00DE               	movwf	??___flmul
  5472  068F  086F               	movf	___flmul@temp+1,w
  5473  0690  00DF               	movwf	??___flmul+1
  5474  0691  01E0               	clrf	??___flmul+2
  5475  0692  01E1               	clrf	??___flmul+3
  5476  0693  3008               	movlw	8
  5477  0694                     u2665:
  5478  0694  1003               	clrc
  5479  0695  0DDE               	rlf	??___flmul,f
  5480  0696  0DDF               	rlf	??___flmul+1,f
  5481  0697  0DE0               	rlf	??___flmul+2,f
  5482  0698  0DE1               	rlf	??___flmul+3,f
  5483  0699                     u2660:
  5484  0699  3EFF               	addlw	-1
  5485  069A  1D03               	skipz
  5486  069B  2E94               	goto	u2665
  5487  069C  085E               	movf	??___flmul,w
  5488  069D  07EA               	addwf	___flmul@prod,f
  5489  069E  085F               	movf	??___flmul+1,w
  5490  069F  1103               	clrz
  5491  06A0  1803               	skipnc
  5492  06A1  3E01               	addlw	1
  5493  06A2  1903               	skipnz
  5494  06A3  2EA5               	goto	u2671
  5495  06A4  07EB               	addwf	___flmul@prod+1,f
  5496  06A5                     u2671:
  5497  06A5  0860               	movf	??___flmul+2,w
  5498  06A6  1103               	clrz
  5499  06A7  1803               	skipnc
  5500  06A8  3E01               	addlw	1
  5501  06A9  1903               	skipnz
  5502  06AA  2EAC               	goto	u2672
  5503  06AB  07EC               	addwf	___flmul@prod+2,f
  5504  06AC                     u2672:
  5505  06AC  0861               	movf	??___flmul+3,w
  5506  06AD  1103               	clrz
  5507  06AE  1803               	skipnc
  5508  06AF  3E01               	addlw	1
  5509  06B0  1903               	skipnz
  5510  06B1  2EB3               	goto	u2673
  5511  06B2  07ED               	addwf	___flmul@prod+3,f
  5512  06B3                     u2673:
  5513  06B3                     l2174:
  5514  06B3  0864               	movf	___flmul@grs,w
  5515  06B4  00DE               	movwf	??___flmul
  5516  06B5  0865               	movf	___flmul@grs+1,w
  5517  06B6  00DF               	movwf	??___flmul+1
  5518  06B7  0866               	movf	___flmul@grs+2,w
  5519  06B8  00E0               	movwf	??___flmul+2
  5520  06B9  0867               	movf	___flmul@grs+3,w
  5521  06BA  00E1               	movwf	??___flmul+3
  5522  06BB  3018               	movlw	24
  5523  06BC                     u2685:
  5524  06BC  1003               	clrc
  5525  06BD  0CE1               	rrf	??___flmul+3,f
  5526  06BE  0CE0               	rrf	??___flmul+2,f
  5527  06BF  0CDF               	rrf	??___flmul+1,f
  5528  06C0  0CDE               	rrf	??___flmul,f
  5529  06C1                     u2680:
  5530  06C1  3EFF               	addlw	-1
  5531  06C2  1D03               	skipz
  5532  06C3  2EBC               	goto	u2685
  5533  06C4  085E               	movf	??___flmul,w
  5534  06C5  07EA               	addwf	___flmul@prod,f
  5535  06C6  085F               	movf	??___flmul+1,w
  5536  06C7  1103               	clrz
  5537  06C8  1803               	skipnc
  5538  06C9  3E01               	addlw	1
  5539  06CA  1903               	skipnz
  5540  06CB  2ECD               	goto	u2691
  5541  06CC  07EB               	addwf	___flmul@prod+1,f
  5542  06CD                     u2691:
  5543  06CD  0860               	movf	??___flmul+2,w
  5544  06CE  1103               	clrz
  5545  06CF  1803               	skipnc
  5546  06D0  3E01               	addlw	1
  5547  06D1  1903               	skipnz
  5548  06D2  2ED4               	goto	u2692
  5549  06D3  07EC               	addwf	___flmul@prod+2,f
  5550  06D4                     u2692:
  5551  06D4  0861               	movf	??___flmul+3,w
  5552  06D5  1103               	clrz
  5553  06D6  1803               	skipnc
  5554  06D7  3E01               	addlw	1
  5555  06D8  1903               	skipnz
  5556  06D9  2EDB               	goto	u2693
  5557  06DA  07ED               	addwf	___flmul@prod+3,f
  5558  06DB                     u2693:
  5559  06DB                     l2176:
  5560  06DB  3008               	movlw	8
  5561  06DC  00DE               	movwf	??___flmul
  5562  06DD                     u2705:
  5563  06DD  1003               	clrc
  5564  06DE  0DE4               	rlf	___flmul@grs,f
  5565  06DF  0DE5               	rlf	___flmul@grs+1,f
  5566  06E0  0DE6               	rlf	___flmul@grs+2,f
  5567  06E1  0DE7               	rlf	___flmul@grs+3,f
  5568  06E2  0BDE               	decfsz	??___flmul,f
  5569  06E3  2EDD               	goto	u2705
  5570  06E4                     l2178:
  5571  06E4  0869               	movf	___flmul@bexp,w
  5572  06E5  0768               	addwf	___flmul@aexp,w
  5573  06E6  00DE               	movwf	??___flmul
  5574  06E7  01DF               	clrf	??___flmul+1
  5575  06E8  0DDF               	rlf	??___flmul+1,f
  5576  06E9  085E               	movf	??___flmul,w
  5577  06EA  3E82               	addlw	130
  5578  06EB  00EE               	movwf	___flmul@temp
  5579  06EC  085F               	movf	??___flmul+1,w
  5580  06ED  1803               	skipnc
  5581  06EE  3E01               	addlw	1
  5582  06EF  3EFF               	addlw	255
  5583  06F0  00EF               	movwf	___flmul@temp+1
  5584  06F1  2F0F               	goto	l2190
  5585  06F2                     l2180:
  5586  06F2  3001               	movlw	1
  5587  06F3  00DE               	movwf	??___flmul
  5588  06F4                     u2715:
  5589  06F4  1003               	clrc
  5590  06F5  0DEA               	rlf	___flmul@prod,f
  5591  06F6  0DEB               	rlf	___flmul@prod+1,f
  5592  06F7  0DEC               	rlf	___flmul@prod+2,f
  5593  06F8  0DED               	rlf	___flmul@prod+3,f
  5594  06F9  0BDE               	decfsz	??___flmul,f
  5595  06FA  2EF4               	goto	u2715
  5596  06FB                     l2182:
  5597  06FB  1FE7               	btfss	___flmul@grs+3,7
  5598  06FC  2EFE               	goto	u2721
  5599  06FD  2EFF               	goto	u2720
  5600  06FE                     u2721:
  5601  06FE  2F00               	goto	l2186
  5602  06FF                     u2720:
  5603  06FF                     l2184:
  5604  06FF  146A               	bsf	___flmul@prod,0
  5605  0700                     l2186:
  5606  0700  3001               	movlw	1
  5607  0701  00DE               	movwf	??___flmul
  5608  0702                     u2735:
  5609  0702  1003               	clrc
  5610  0703  0DE4               	rlf	___flmul@grs,f
  5611  0704  0DE5               	rlf	___flmul@grs+1,f
  5612  0705  0DE6               	rlf	___flmul@grs+2,f
  5613  0706  0DE7               	rlf	___flmul@grs+3,f
  5614  0707  0BDE               	decfsz	??___flmul,f
  5615  0708  2F02               	goto	u2735
  5616  0709                     l2188:
  5617  0709  30FF               	movlw	255
  5618  070A  07EE               	addwf	___flmul@temp,f
  5619  070B  1803               	skipnc
  5620  070C  0AEF               	incf	___flmul@temp+1,f
  5621  070D  30FF               	movlw	255
  5622  070E  07EF               	addwf	___flmul@temp+1,f
  5623  070F                     l2190:
  5624  070F  1FEC               	btfss	___flmul@prod+2,7
  5625  0710  2F12               	goto	u2741
  5626  0711  2F13               	goto	u2740
  5627  0712                     u2741:
  5628  0712  2EF2               	goto	l2180
  5629  0713                     u2740:
  5630  0713                     l2192:
  5631  0713  01E8               	clrf	___flmul@aexp
  5632  0714                     l2194:
  5633  0714  1FE7               	btfss	___flmul@grs+3,7
  5634  0715  2F17               	goto	u2751
  5635  0716  2F18               	goto	u2750
  5636  0717                     u2751:
  5637  0717  2F34               	goto	l2202
  5638  0718                     u2750:
  5639  0718                     l2196:
  5640  0718  30FF               	movlw	255
  5641  0719  0564               	andwf	___flmul@grs,w
  5642  071A  00DE               	movwf	??___flmul
  5643  071B  30FF               	movlw	255
  5644  071C  0565               	andwf	___flmul@grs+1,w
  5645  071D  00DF               	movwf	??___flmul+1
  5646  071E  30FF               	movlw	255
  5647  071F  0566               	andwf	___flmul@grs+2,w
  5648  0720  00E0               	movwf	??___flmul+2
  5649  0721  307F               	movlw	127
  5650  0722  0567               	andwf	___flmul@grs+3,w
  5651  0723  00E1               	movwf	??___flmul+3
  5652  0724  0861               	movf	??___flmul+3,w
  5653  0725  0460               	iorwf	??___flmul+2,w
  5654  0726  045F               	iorwf	??___flmul+1,w
  5655  0727  045E               	iorwf	??___flmul,w
  5656  0728  1903               	skipnz
  5657  0729  2F2B               	goto	u2761
  5658  072A  2F2C               	goto	u2760
  5659  072B                     u2761:
  5660  072B  2F2F               	goto	l719
  5661  072C                     u2760:
  5662  072C                     l2198:
  5663  072C  01E8               	clrf	___flmul@aexp
  5664  072D  0AE8               	incf	___flmul@aexp,f
  5665  072E  2F34               	goto	l2202
  5666  072F                     l719:
  5667  072F  1C6A               	btfss	___flmul@prod,0
  5668  0730  2F32               	goto	u2771
  5669  0731  2F33               	goto	u2770
  5670  0732                     u2771:
  5671  0732  2F34               	goto	l2202
  5672  0733                     u2770:
  5673  0733  2F2C               	goto	l2198
  5674  0734                     l2202:
  5675  0734  0868               	movf	___flmul@aexp,w
  5676  0735  1903               	btfsc	3,2
  5677  0736  2F38               	goto	u2781
  5678  0737  2F39               	goto	u2780
  5679  0738                     u2781:
  5680  0738  2F6A               	goto	l2212
  5681  0739                     u2780:
  5682  0739                     l2204:
  5683  0739  3001               	movlw	1
  5684  073A  07EA               	addwf	___flmul@prod,f
  5685  073B  3000               	movlw	0
  5686  073C  1803               	skipnc
  5687  073D  3001               	movlw	1
  5688  073E  07EB               	addwf	___flmul@prod+1,f
  5689  073F  3000               	movlw	0
  5690  0740  1803               	skipnc
  5691  0741  3001               	movlw	1
  5692  0742  07EC               	addwf	___flmul@prod+2,f
  5693  0743  3000               	movlw	0
  5694  0744  1803               	skipnc
  5695  0745  3001               	movlw	1
  5696  0746  07ED               	addwf	___flmul@prod+3,f
  5697  0747                     l2206:
  5698  0747  1C6D               	btfss	___flmul@prod+3,0
  5699  0748  2F4A               	goto	u2791
  5700  0749  2F4B               	goto	u2790
  5701  074A                     u2791:
  5702  074A  2F6A               	goto	l2212
  5703  074B                     u2790:
  5704  074B                     l2208:
  5705  074B  086A               	movf	___flmul@prod,w
  5706  074C  00DE               	movwf	??___flmul
  5707  074D  086B               	movf	___flmul@prod+1,w
  5708  074E  00DF               	movwf	??___flmul+1
  5709  074F  086C               	movf	___flmul@prod+2,w
  5710  0750  00E0               	movwf	??___flmul+2
  5711  0751  086D               	movf	___flmul@prod+3,w
  5712  0752  00E1               	movwf	??___flmul+3
  5713  0753  3001               	movlw	1
  5714  0754  00E2               	movwf	??___flmul+4
  5715  0755                     u2805:
  5716  0755  0D61               	rlf	??___flmul+3,w
  5717  0756  0CE1               	rrf	??___flmul+3,f
  5718  0757  0CE0               	rrf	??___flmul+2,f
  5719  0758  0CDF               	rrf	??___flmul+1,f
  5720  0759  0CDE               	rrf	??___flmul,f
  5721  075A                     u2800:
  5722  075A  0BE2               	decfsz	??___flmul+4,f
  5723  075B  2F55               	goto	u2805
  5724  075C  0861               	movf	??___flmul+3,w
  5725  075D  00ED               	movwf	___flmul@prod+3
  5726  075E  0860               	movf	??___flmul+2,w
  5727  075F  00EC               	movwf	___flmul@prod+2
  5728  0760  085F               	movf	??___flmul+1,w
  5729  0761  00EB               	movwf	___flmul@prod+1
  5730  0762  085E               	movf	??___flmul,w
  5731  0763  00EA               	movwf	___flmul@prod
  5732  0764                     l2210:
  5733  0764  3001               	movlw	1
  5734  0765  07EE               	addwf	___flmul@temp,f
  5735  0766  1803               	skipnc
  5736  0767  0AEF               	incf	___flmul@temp+1,f
  5737  0768  3000               	movlw	0
  5738  0769  07EF               	addwf	___flmul@temp+1,f
  5739  076A                     l2212:
  5740  076A  086F               	movf	___flmul@temp+1,w
  5741  076B  3A80               	xorlw	128
  5742  076C  00FF               	movwf	btemp+1
  5743  076D  3080               	movlw	128
  5744  076E  027F               	subwf	btemp+1,w
  5745  076F  1D03               	skipz
  5746  0770  2F73               	goto	u2815
  5747  0771  30FF               	movlw	255
  5748  0772  026E               	subwf	___flmul@temp,w
  5749  0773                     u2815:
  5750  0773  1C03               	skipc
  5751  0774  2F76               	goto	u2811
  5752  0775  2F77               	goto	u2810
  5753  0776                     u2811:
  5754  0776  2F82               	goto	l2216
  5755  0777                     u2810:
  5756  0777                     l2214:
  5757  0777  307F               	movlw	127
  5758  0778  1283               	bcf	3,5	;RP0=0, select bank0
  5759  0779  1303               	bcf	3,6	;RP1=0, select bank0
  5760  077A  00ED               	movwf	___flmul@prod+3
  5761  077B  3080               	movlw	128
  5762  077C  00EC               	movwf	___flmul@prod+2
  5763  077D  3000               	movlw	0
  5764  077E  00EB               	movwf	___flmul@prod+1
  5765  077F  3000               	movlw	0
  5766  0780  00EA               	movwf	___flmul@prod
  5767  0781  2FB7               	goto	l725
  5768  0782                     l2216:
  5769  0782  1283               	bcf	3,5	;RP0=0, select bank0
  5770  0783  1303               	bcf	3,6	;RP1=0, select bank0
  5771  0784  086F               	movf	___flmul@temp+1,w
  5772  0785  3A80               	xorlw	128
  5773  0786  00FF               	movwf	btemp+1
  5774  0787  3080               	movlw	128
  5775  0788  027F               	subwf	btemp+1,w
  5776  0789  1D03               	skipz
  5777  078A  2F8D               	goto	u2825
  5778  078B  3001               	movlw	1
  5779  078C  026E               	subwf	___flmul@temp,w
  5780  078D                     u2825:
  5781  078D  1803               	skipnc
  5782  078E  2F90               	goto	u2821
  5783  078F  2F91               	goto	u2820
  5784  0790                     u2821:
  5785  0790  2F9D               	goto	l2222
  5786  0791                     u2820:
  5787  0791                     l2218:
  5788  0791  3000               	movlw	0
  5789  0792  1283               	bcf	3,5	;RP0=0, select bank0
  5790  0793  1303               	bcf	3,6	;RP1=0, select bank0
  5791  0794  00ED               	movwf	___flmul@prod+3
  5792  0795  3000               	movlw	0
  5793  0796  00EC               	movwf	___flmul@prod+2
  5794  0797  3000               	movlw	0
  5795  0798  00EB               	movwf	___flmul@prod+1
  5796  0799  3000               	movlw	0
  5797  079A  00EA               	movwf	___flmul@prod
  5798  079B                     l2220:
  5799  079B  01E3               	clrf	___flmul@sign
  5800  079C  2FB7               	goto	l725
  5801  079D                     l2222:
  5802  079D  1283               	bcf	3,5	;RP0=0, select bank0
  5803  079E  1303               	bcf	3,6	;RP1=0, select bank0
  5804  079F  086E               	movf	___flmul@temp,w
  5805  07A0  00DE               	movwf	??___flmul
  5806  07A1  085E               	movf	??___flmul,w
  5807  07A2  00E9               	movwf	___flmul@bexp
  5808  07A3  30FF               	movlw	255
  5809  07A4  05EA               	andwf	___flmul@prod,f
  5810  07A5  30FF               	movlw	255
  5811  07A6  05EB               	andwf	___flmul@prod+1,f
  5812  07A7  307F               	movlw	127
  5813  07A8  05EC               	andwf	___flmul@prod+2,f
  5814  07A9  3000               	movlw	0
  5815  07AA  05ED               	andwf	___flmul@prod+3,f
  5816  07AB                     l2224:
  5817  07AB  1C69               	btfss	___flmul@bexp,0
  5818  07AC  2FAE               	goto	u2831
  5819  07AD  2FAF               	goto	u2830
  5820  07AE                     u2831:
  5821  07AE  2FB0               	goto	l2228
  5822  07AF                     u2830:
  5823  07AF                     l2226:
  5824  07AF  17EC               	bsf	___flmul@prod+2,7
  5825  07B0                     l2228:
  5826  07B0  0869               	movf	___flmul@bexp,w
  5827  07B1  00DE               	movwf	??___flmul
  5828  07B2  1003               	clrc
  5829  07B3  0C5E               	rrf	??___flmul,w
  5830  07B4  00DF               	movwf	??___flmul+1
  5831  07B5  085F               	movf	??___flmul+1,w
  5832  07B6  00ED               	movwf	___flmul@prod+3
  5833  07B7                     l725:
  5834  07B7  0863               	movf	___flmul@sign,w
  5835  07B8  00DE               	movwf	??___flmul
  5836  07B9  085E               	movf	??___flmul,w
  5837  07BA  04ED               	iorwf	___flmul@prod+3,f
  5838  07BB                     l2230:
  5839  07BB  086D               	movf	___flmul@prod+3,w
  5840  07BC  00D9               	movwf	?___flmul+3
  5841  07BD  086C               	movf	___flmul@prod+2,w
  5842  07BE  00D8               	movwf	?___flmul+2
  5843  07BF  086B               	movf	___flmul@prod+1,w
  5844  07C0  00D7               	movwf	?___flmul+1
  5845  07C1  086A               	movf	___flmul@prod,w
  5846  07C2  00D6               	movwf	?___flmul
  5847  07C3                     l713:
  5848  07C3  0008               	return
  5849  07C4                     __end_of___flmul:
  5850                           
  5851                           	psect	text23
  5852  0865                     __ptext23:	
  5853 ;; *************** function __Umul8_16 *****************
  5854 ;; Defined at:
  5855 ;;		line 4 in file "C:\Program Files\Microchip\xc8\v2.32\pic\sources\c90\common\Umul8_16.c"
  5856 ;; Parameters:    Size  Location     Type
  5857 ;;  multiplier      1    wreg     unsigned char 
  5858 ;;  multiplicand    1    0[COMMON] unsigned char 
  5859 ;; Auto vars:     Size  Location     Type
  5860 ;;  multiplier      1    8[COMMON] unsigned char 
  5861 ;;  word_mpld       2    6[COMMON] unsigned int 
  5862 ;;  product         2    4[COMMON] unsigned int 
  5863 ;; Return value:  Size  Location     Type
  5864 ;;                  2    0[COMMON] unsigned int 
  5865 ;; Registers used:
  5866 ;;		wreg, status,2, status,0
  5867 ;; Tracked objects:
  5868 ;;		On entry : 0/0
  5869 ;;		On exit  : 0/0
  5870 ;;		Unchanged: 0/0
  5871 ;; Data sizes:     COMMON   BANK0   BANK1   BANK3   BANK2
  5872 ;;      Params:         2       0       0       0       0
  5873 ;;      Locals:         5       0       0       0       0
  5874 ;;      Temps:          2       0       0       0       0
  5875 ;;      Totals:         9       0       0       0       0
  5876 ;;Total ram usage:        9 bytes
  5877 ;; Hardware stack levels used: 1
  5878 ;; This function calls:
  5879 ;;		Nothing
  5880 ;; This function is called by:
  5881 ;;		___flmul
  5882 ;; This function uses a non-reentrant model
  5883 ;;
  5884                           
  5885                           
  5886                           ;psect for function __Umul8_16
  5887  0865                     __Umul8_16:
  5888                           
  5889                           ;incstack = 0
  5890                           ; Regs used in __Umul8_16: [wreg+status,2+status,0]
  5891                           ;__Umul8_16@multiplier stored from wreg
  5892  0865  00F8               	movwf	__Umul8_16@multiplier
  5893  0866                     l1874:
  5894  0866  01F4               	clrf	__Umul8_16@product
  5895  0867  01F5               	clrf	__Umul8_16@product+1
  5896  0868                     l1876:
  5897  0868  0870               	movf	__Umul8_16@multiplicand,w
  5898  0869  00F2               	movwf	??__Umul8_16
  5899  086A  01F3               	clrf	??__Umul8_16+1
  5900  086B  0872               	movf	??__Umul8_16,w
  5901  086C  00F6               	movwf	__Umul8_16@word_mpld
  5902  086D  0873               	movf	??__Umul8_16+1,w
  5903  086E  00F7               	movwf	__Umul8_16@word_mpld+1
  5904  086F                     l1878:
  5905  086F  1C78               	btfss	__Umul8_16@multiplier,0
  5906  0870  2872               	goto	u2001
  5907  0871  2873               	goto	u2000
  5908  0872                     u2001:
  5909  0872  2879               	goto	l732
  5910  0873                     u2000:
  5911  0873                     l1880:
  5912  0873  0876               	movf	__Umul8_16@word_mpld,w
  5913  0874  07F4               	addwf	__Umul8_16@product,f
  5914  0875  1803               	skipnc
  5915  0876  0AF5               	incf	__Umul8_16@product+1,f
  5916  0877  0877               	movf	__Umul8_16@word_mpld+1,w
  5917  0878  07F5               	addwf	__Umul8_16@product+1,f
  5918  0879                     l732:
  5919  0879  3001               	movlw	1
  5920  087A                     u2015:
  5921  087A  1003               	clrc
  5922  087B  0DF6               	rlf	__Umul8_16@word_mpld,f
  5923  087C  0DF7               	rlf	__Umul8_16@word_mpld+1,f
  5924  087D  3EFF               	addlw	-1
  5925  087E  1D03               	skipz
  5926  087F  287A               	goto	u2015
  5927  0880  1003               	clrc
  5928  0881  0CF8               	rrf	__Umul8_16@multiplier,f
  5929  0882                     l1882:
  5930  0882  0878               	movf	__Umul8_16@multiplier,w
  5931  0883  1D03               	btfss	3,2
  5932  0884  2886               	goto	u2021
  5933  0885  2887               	goto	u2020
  5934  0886                     u2021:
  5935  0886  286F               	goto	l1878
  5936  0887                     u2020:
  5937  0887                     l1884:
  5938  0887  0875               	movf	__Umul8_16@product+1,w
  5939  0888  00F1               	movwf	?__Umul8_16+1
  5940  0889  0874               	movf	__Umul8_16@product,w
  5941  088A  00F0               	movwf	?__Umul8_16
  5942  088B                     l734:
  5943  088B  0008               	return
  5944  088C                     __end_of__Umul8_16:
  5945                           
  5946                           	psect	text24
  5947  0286                     __ptext24:	
  5948 ;; *************** function ___fldiv *****************
  5949 ;; Defined at:
  5950 ;;		line 8 in file "C:\Program Files\Microchip\xc8\v2.32\pic\sources\c90\common\sprcdiv.c"
  5951 ;; Parameters:    Size  Location     Type
  5952 ;;  a               4   28[BANK0 ] unsigned int 
  5953 ;;  b               4   32[BANK0 ] unsigned int 
  5954 ;; Auto vars:     Size  Location     Type
  5955 ;;  grs             4   48[BANK0 ] unsigned long 
  5956 ;;  rem             4   41[BANK0 ] unsigned long 
  5957 ;;  new_exp         2   46[BANK0 ] int 
  5958 ;;  aexp            1   53[BANK0 ] unsigned char 
  5959 ;;  bexp            1   52[BANK0 ] unsigned char 
  5960 ;;  sign            1   45[BANK0 ] unsigned char 
  5961 ;; Return value:  Size  Location     Type
  5962 ;;                  4   28[BANK0 ] unsigned char 
  5963 ;; Registers used:
  5964 ;;		wreg, status,2, status,0, btemp+1
  5965 ;; Tracked objects:
  5966 ;;		On entry : 0/0
  5967 ;;		On exit  : 0/0
  5968 ;;		Unchanged: 0/0
  5969 ;; Data sizes:     COMMON   BANK0   BANK1   BANK3   BANK2
  5970 ;;      Params:         0       8       0       0       0
  5971 ;;      Locals:         0      13       0       0       0
  5972 ;;      Temps:          0       5       0       0       0
  5973 ;;      Totals:         0      26       0       0       0
  5974 ;;Total ram usage:       26 bytes
  5975 ;; Hardware stack levels used: 1
  5976 ;; This function calls:
  5977 ;;		Nothing
  5978 ;; This function is called by:
  5979 ;;		_PWM1_Duty
  5980 ;;		_PWM2_Duty
  5981 ;; This function uses a non-reentrant model
  5982 ;;
  5983                           
  5984                           
  5985                           ;psect for function ___fldiv
  5986  0286                     ___fldiv:
  5987  0286                     l1952:	
  5988                           ;incstack = 0
  5989                           ; Regs used in ___fldiv: [wreg+status,2+status,0+btemp+1]
  5990                           
  5991  0286  1283               	bcf	3,5	;RP0=0, select bank0
  5992  0287  1303               	bcf	3,6	;RP1=0, select bank0
  5993  0288  0843               	movf	___fldiv@b+3,w
  5994  0289  3980               	andlw	128
  5995  028A  00C4               	movwf	??___fldiv
  5996  028B  0844               	movf	??___fldiv,w
  5997  028C  00CD               	movwf	___fldiv@sign
  5998  028D                     l1954:
  5999  028D  0843               	movf	___fldiv@b+3,w
  6000  028E  00C4               	movwf	??___fldiv
  6001  028F  0744               	addwf	??___fldiv,w
  6002  0290  00C5               	movwf	??___fldiv+1
  6003  0291  0845               	movf	??___fldiv+1,w
  6004  0292  00D4               	movwf	___fldiv@bexp
  6005  0293                     l1956:
  6006  0293  1FC2               	btfss	___fldiv@b+2,7
  6007  0294  2A96               	goto	u2181
  6008  0295  2A97               	goto	u2180
  6009  0296                     u2181:
  6010  0296  2A98               	goto	l1960
  6011  0297                     u2180:
  6012  0297                     l1958:
  6013  0297  1454               	bsf	___fldiv@bexp,0
  6014  0298                     l1960:
  6015  0298  0854               	movf	___fldiv@bexp,w
  6016  0299  1903               	btfsc	3,2
  6017  029A  2A9C               	goto	u2191
  6018  029B  2A9D               	goto	u2190
  6019  029C                     u2191:
  6020  029C  2AAD               	goto	l1970
  6021  029D                     u2190:
  6022  029D                     l1962:
  6023  029D  0A54               	incf	___fldiv@bexp,w
  6024  029E  1D03               	btfss	3,2
  6025  029F  2AA1               	goto	u2201
  6026  02A0  2AA2               	goto	u2200
  6027  02A1                     u2201:
  6028  02A1  2AAA               	goto	l1966
  6029  02A2                     u2200:
  6030  02A2                     l1964:
  6031  02A2  3000               	movlw	0
  6032  02A3  00C3               	movwf	___fldiv@b+3
  6033  02A4  3000               	movlw	0
  6034  02A5  00C2               	movwf	___fldiv@b+2
  6035  02A6  3000               	movlw	0
  6036  02A7  00C1               	movwf	___fldiv@b+1
  6037  02A8  3000               	movlw	0
  6038  02A9  00C0               	movwf	___fldiv@b
  6039  02AA                     l1966:
  6040  02AA  17C2               	bsf	___fldiv@b+2,7
  6041  02AB                     l1968:
  6042  02AB  01C3               	clrf	___fldiv@b+3
  6043  02AC  2AB5               	goto	l1972
  6044  02AD                     l1970:
  6045  02AD  3000               	movlw	0
  6046  02AE  00C3               	movwf	___fldiv@b+3
  6047  02AF  3000               	movlw	0
  6048  02B0  00C2               	movwf	___fldiv@b+2
  6049  02B1  3000               	movlw	0
  6050  02B2  00C1               	movwf	___fldiv@b+1
  6051  02B3  3000               	movlw	0
  6052  02B4  00C0               	movwf	___fldiv@b
  6053  02B5                     l1972:
  6054  02B5  083F               	movf	___fldiv@a+3,w
  6055  02B6  3980               	andlw	128
  6056  02B7  00C4               	movwf	??___fldiv
  6057  02B8  0844               	movf	??___fldiv,w
  6058  02B9  06CD               	xorwf	___fldiv@sign,f
  6059  02BA                     l1974:
  6060  02BA  083F               	movf	___fldiv@a+3,w
  6061  02BB  00C4               	movwf	??___fldiv
  6062  02BC  0744               	addwf	??___fldiv,w
  6063  02BD  00C5               	movwf	??___fldiv+1
  6064  02BE  0845               	movf	??___fldiv+1,w
  6065  02BF  00D5               	movwf	___fldiv@aexp
  6066  02C0                     l1976:
  6067  02C0  1FBE               	btfss	___fldiv@a+2,7
  6068  02C1  2AC3               	goto	u2211
  6069  02C2  2AC4               	goto	u2210
  6070  02C3                     u2211:
  6071  02C3  2AC5               	goto	l1980
  6072  02C4                     u2210:
  6073  02C4                     l1978:
  6074  02C4  1455               	bsf	___fldiv@aexp,0
  6075  02C5                     l1980:
  6076  02C5  0855               	movf	___fldiv@aexp,w
  6077  02C6  1903               	btfsc	3,2
  6078  02C7  2AC9               	goto	u2221
  6079  02C8  2ACA               	goto	u2220
  6080  02C9                     u2221:
  6081  02C9  2ADA               	goto	l1990
  6082  02CA                     u2220:
  6083  02CA                     l1982:
  6084  02CA  0A55               	incf	___fldiv@aexp,w
  6085  02CB  1D03               	btfss	3,2
  6086  02CC  2ACE               	goto	u2231
  6087  02CD  2ACF               	goto	u2230
  6088  02CE                     u2231:
  6089  02CE  2AD7               	goto	l1986
  6090  02CF                     u2230:
  6091  02CF                     l1984:
  6092  02CF  3000               	movlw	0
  6093  02D0  00BF               	movwf	___fldiv@a+3
  6094  02D1  3000               	movlw	0
  6095  02D2  00BE               	movwf	___fldiv@a+2
  6096  02D3  3000               	movlw	0
  6097  02D4  00BD               	movwf	___fldiv@a+1
  6098  02D5  3000               	movlw	0
  6099  02D6  00BC               	movwf	___fldiv@a
  6100  02D7                     l1986:
  6101  02D7  17BE               	bsf	___fldiv@a+2,7
  6102  02D8                     l1988:
  6103  02D8  01BF               	clrf	___fldiv@a+3
  6104  02D9  2AE2               	goto	l673
  6105  02DA                     l1990:
  6106  02DA  3000               	movlw	0
  6107  02DB  00BF               	movwf	___fldiv@a+3
  6108  02DC  3000               	movlw	0
  6109  02DD  00BE               	movwf	___fldiv@a+2
  6110  02DE  3000               	movlw	0
  6111  02DF  00BD               	movwf	___fldiv@a+1
  6112  02E0  3000               	movlw	0
  6113  02E1  00BC               	movwf	___fldiv@a
  6114  02E2                     l673:
  6115  02E2  083F               	movf	___fldiv@a+3,w
  6116  02E3  043E               	iorwf	___fldiv@a+2,w
  6117  02E4  043D               	iorwf	___fldiv@a+1,w
  6118  02E5  043C               	iorwf	___fldiv@a,w
  6119  02E6  1D03               	skipz
  6120  02E7  2AE9               	goto	u2241
  6121  02E8  2AEA               	goto	u2240
  6122  02E9                     u2241:
  6123  02E9  2B03               	goto	l2000
  6124  02EA                     u2240:
  6125  02EA                     l1992:
  6126  02EA  3000               	movlw	0
  6127  02EB  00C3               	movwf	___fldiv@b+3
  6128  02EC  3000               	movlw	0
  6129  02ED  00C2               	movwf	___fldiv@b+2
  6130  02EE  3000               	movlw	0
  6131  02EF  00C1               	movwf	___fldiv@b+1
  6132  02F0  3000               	movlw	0
  6133  02F1  00C0               	movwf	___fldiv@b
  6134  02F2  3080               	movlw	128
  6135  02F3  04C2               	iorwf	___fldiv@b+2,f
  6136  02F4  307F               	movlw	127
  6137  02F5  04C3               	iorwf	___fldiv@b+3,f
  6138  02F6                     l1994:
  6139  02F6  084D               	movf	___fldiv@sign,w
  6140  02F7  00C4               	movwf	??___fldiv
  6141  02F8  0844               	movf	??___fldiv,w
  6142  02F9  04C3               	iorwf	___fldiv@b+3,f
  6143  02FA                     l1996:
  6144  02FA  0843               	movf	___fldiv@b+3,w
  6145  02FB  00BF               	movwf	?___fldiv+3
  6146  02FC  0842               	movf	___fldiv@b+2,w
  6147  02FD  00BE               	movwf	?___fldiv+2
  6148  02FE  0841               	movf	___fldiv@b+1,w
  6149  02FF  00BD               	movwf	?___fldiv+1
  6150  0300  0840               	movf	___fldiv@b,w
  6151  0301  00BC               	movwf	?___fldiv
  6152  0302  2C62               	goto	l675
  6153  0303                     l2000:
  6154  0303  0854               	movf	___fldiv@bexp,w
  6155  0304  1D03               	btfss	3,2
  6156  0305  2B07               	goto	u2251
  6157  0306  2B08               	goto	u2250
  6158  0307                     u2251:
  6159  0307  2B11               	goto	l2006
  6160  0308                     u2250:
  6161  0308                     l2002:
  6162  0308  3000               	movlw	0
  6163  0309  00BF               	movwf	?___fldiv+3
  6164  030A  3000               	movlw	0
  6165  030B  00BE               	movwf	?___fldiv+2
  6166  030C  3000               	movlw	0
  6167  030D  00BD               	movwf	?___fldiv+1
  6168  030E  3000               	movlw	0
  6169  030F  00BC               	movwf	?___fldiv
  6170  0310  2C62               	goto	l675
  6171  0311                     l2006:
  6172  0311  0854               	movf	___fldiv@bexp,w
  6173  0312  00C4               	movwf	??___fldiv
  6174  0313  01C5               	clrf	??___fldiv+1
  6175  0314  0845               	movf	??___fldiv+1,w
  6176  0315  00C7               	movwf	??___fldiv+3
  6177  0316  0855               	movf	___fldiv@aexp,w
  6178  0317  0244               	subwf	??___fldiv,w
  6179  0318  00C6               	movwf	??___fldiv+2
  6180  0319  1C03               	skipc
  6181  031A  03C7               	decf	??___fldiv+3,f
  6182  031B  0846               	movf	??___fldiv+2,w
  6183  031C  3E7F               	addlw	127
  6184  031D  00CE               	movwf	___fldiv@new_exp
  6185  031E  0847               	movf	??___fldiv+3,w
  6186  031F  1803               	skipnc
  6187  0320  3E01               	addlw	1
  6188  0321  3E00               	addlw	0
  6189  0322  00CF               	movwf	___fldiv@new_exp+1
  6190  0323                     l2008:
  6191  0323  0843               	movf	___fldiv@b+3,w
  6192  0324  00CC               	movwf	___fldiv@rem+3
  6193  0325  0842               	movf	___fldiv@b+2,w
  6194  0326  00CB               	movwf	___fldiv@rem+2
  6195  0327  0841               	movf	___fldiv@b+1,w
  6196  0328  00CA               	movwf	___fldiv@rem+1
  6197  0329  0840               	movf	___fldiv@b,w
  6198  032A  00C9               	movwf	___fldiv@rem
  6199  032B                     l2010:
  6200  032B  3000               	movlw	0
  6201  032C  00C3               	movwf	___fldiv@b+3
  6202  032D  3000               	movlw	0
  6203  032E  00C2               	movwf	___fldiv@b+2
  6204  032F  3000               	movlw	0
  6205  0330  00C1               	movwf	___fldiv@b+1
  6206  0331  3000               	movlw	0
  6207  0332  00C0               	movwf	___fldiv@b
  6208  0333                     l2012:
  6209  0333  3000               	movlw	0
  6210  0334  00D3               	movwf	___fldiv@grs+3
  6211  0335  3000               	movlw	0
  6212  0336  00D2               	movwf	___fldiv@grs+2
  6213  0337  3000               	movlw	0
  6214  0338  00D1               	movwf	___fldiv@grs+1
  6215  0339  3000               	movlw	0
  6216  033A  00D0               	movwf	___fldiv@grs
  6217  033B                     l2014:
  6218  033B  01D5               	clrf	___fldiv@aexp
  6219  033C  2B87               	goto	l2034
  6220  033D                     l2016:
  6221  033D  0855               	movf	___fldiv@aexp,w
  6222  033E  1903               	btfsc	3,2
  6223  033F  2B41               	goto	u2261
  6224  0340  2B42               	goto	u2260
  6225  0341                     u2261:
  6226  0341  2B62               	goto	l2026
  6227  0342                     u2260:
  6228  0342                     l2018:
  6229  0342  3001               	movlw	1
  6230  0343  00C4               	movwf	??___fldiv
  6231  0344                     u2275:
  6232  0344  1003               	clrc
  6233  0345  0DC9               	rlf	___fldiv@rem,f
  6234  0346  0DCA               	rlf	___fldiv@rem+1,f
  6235  0347  0DCB               	rlf	___fldiv@rem+2,f
  6236  0348  0DCC               	rlf	___fldiv@rem+3,f
  6237  0349  0BC4               	decfsz	??___fldiv,f
  6238  034A  2B44               	goto	u2275
  6239  034B  3001               	movlw	1
  6240  034C  00C4               	movwf	??___fldiv
  6241  034D                     u2285:
  6242  034D  1003               	clrc
  6243  034E  0DC0               	rlf	___fldiv@b,f
  6244  034F  0DC1               	rlf	___fldiv@b+1,f
  6245  0350  0DC2               	rlf	___fldiv@b+2,f
  6246  0351  0DC3               	rlf	___fldiv@b+3,f
  6247  0352  0BC4               	decfsz	??___fldiv,f
  6248  0353  2B4D               	goto	u2285
  6249  0354                     l2020:
  6250  0354  1FD3               	btfss	___fldiv@grs+3,7
  6251  0355  2B57               	goto	u2291
  6252  0356  2B58               	goto	u2290
  6253  0357                     u2291:
  6254  0357  2B59               	goto	l2024
  6255  0358                     u2290:
  6256  0358                     l2022:
  6257  0358  1440               	bsf	___fldiv@b,0
  6258  0359                     l2024:
  6259  0359  3001               	movlw	1
  6260  035A  00C4               	movwf	??___fldiv
  6261  035B                     u2305:
  6262  035B  1003               	clrc
  6263  035C  0DD0               	rlf	___fldiv@grs,f
  6264  035D  0DD1               	rlf	___fldiv@grs+1,f
  6265  035E  0DD2               	rlf	___fldiv@grs+2,f
  6266  035F  0DD3               	rlf	___fldiv@grs+3,f
  6267  0360  0BC4               	decfsz	??___fldiv,f
  6268  0361  2B5B               	goto	u2305
  6269  0362                     l2026:
  6270  0362  083F               	movf	___fldiv@a+3,w
  6271  0363  024C               	subwf	___fldiv@rem+3,w
  6272  0364  1D03               	skipz
  6273  0365  2B70               	goto	u2315
  6274  0366  083E               	movf	___fldiv@a+2,w
  6275  0367  024B               	subwf	___fldiv@rem+2,w
  6276  0368  1D03               	skipz
  6277  0369  2B70               	goto	u2315
  6278  036A  083D               	movf	___fldiv@a+1,w
  6279  036B  024A               	subwf	___fldiv@rem+1,w
  6280  036C  1D03               	skipz
  6281  036D  2B70               	goto	u2315
  6282  036E  083C               	movf	___fldiv@a,w
  6283  036F  0249               	subwf	___fldiv@rem,w
  6284  0370                     u2315:
  6285  0370  1C03               	skipc
  6286  0371  2B73               	goto	u2311
  6287  0372  2B74               	goto	u2310
  6288  0373                     u2311:
  6289  0373  2B83               	goto	l2032
  6290  0374                     u2310:
  6291  0374                     l2028:
  6292  0374  1753               	bsf	___fldiv@grs+3,6
  6293  0375                     l2030:
  6294  0375  083C               	movf	___fldiv@a,w
  6295  0376  02C9               	subwf	___fldiv@rem,f
  6296  0377  083D               	movf	___fldiv@a+1,w
  6297  0378  1C03               	skipc
  6298  0379  0F3D               	incfsz	___fldiv@a+1,w
  6299  037A  02CA               	subwf	___fldiv@rem+1,f
  6300  037B  083E               	movf	___fldiv@a+2,w
  6301  037C  1C03               	skipc
  6302  037D  0F3E               	incfsz	___fldiv@a+2,w
  6303  037E  02CB               	subwf	___fldiv@rem+2,f
  6304  037F  083F               	movf	___fldiv@a+3,w
  6305  0380  1C03               	skipc
  6306  0381  0F3F               	incfsz	___fldiv@a+3,w
  6307  0382  02CC               	subwf	___fldiv@rem+3,f
  6308  0383                     l2032:
  6309  0383  3001               	movlw	1
  6310  0384  00C4               	movwf	??___fldiv
  6311  0385  0844               	movf	??___fldiv,w
  6312  0386  07D5               	addwf	___fldiv@aexp,f
  6313  0387                     l2034:
  6314  0387  301A               	movlw	26
  6315  0388  0255               	subwf	___fldiv@aexp,w
  6316  0389  1C03               	skipc
  6317  038A  2B8C               	goto	u2321
  6318  038B  2B8D               	goto	u2320
  6319  038C                     u2321:
  6320  038C  2B3D               	goto	l2016
  6321  038D                     u2320:
  6322  038D                     l2036:
  6323  038D  084C               	movf	___fldiv@rem+3,w
  6324  038E  044B               	iorwf	___fldiv@rem+2,w
  6325  038F  044A               	iorwf	___fldiv@rem+1,w
  6326  0390  0449               	iorwf	___fldiv@rem,w
  6327  0391  1903               	skipnz
  6328  0392  2B94               	goto	u2331
  6329  0393  2B95               	goto	u2330
  6330  0394                     u2331:
  6331  0394  2BB4               	goto	l2050
  6332  0395                     u2330:
  6333  0395                     l2038:
  6334  0395  1450               	bsf	___fldiv@grs,0
  6335  0396  2BB4               	goto	l2050
  6336  0397                     l2040:
  6337  0397  3001               	movlw	1
  6338  0398  00C4               	movwf	??___fldiv
  6339  0399                     u2345:
  6340  0399  1003               	clrc
  6341  039A  0DC0               	rlf	___fldiv@b,f
  6342  039B  0DC1               	rlf	___fldiv@b+1,f
  6343  039C  0DC2               	rlf	___fldiv@b+2,f
  6344  039D  0DC3               	rlf	___fldiv@b+3,f
  6345  039E  0BC4               	decfsz	??___fldiv,f
  6346  039F  2B99               	goto	u2345
  6347  03A0                     l2042:
  6348  03A0  1FD3               	btfss	___fldiv@grs+3,7
  6349  03A1  2BA3               	goto	u2351
  6350  03A2  2BA4               	goto	u2350
  6351  03A3                     u2351:
  6352  03A3  2BA5               	goto	l2046
  6353  03A4                     u2350:
  6354  03A4                     l2044:
  6355  03A4  1440               	bsf	___fldiv@b,0
  6356  03A5                     l2046:
  6357  03A5  3001               	movlw	1
  6358  03A6  00C4               	movwf	??___fldiv
  6359  03A7                     u2365:
  6360  03A7  1003               	clrc
  6361  03A8  0DD0               	rlf	___fldiv@grs,f
  6362  03A9  0DD1               	rlf	___fldiv@grs+1,f
  6363  03AA  0DD2               	rlf	___fldiv@grs+2,f
  6364  03AB  0DD3               	rlf	___fldiv@grs+3,f
  6365  03AC  0BC4               	decfsz	??___fldiv,f
  6366  03AD  2BA7               	goto	u2365
  6367  03AE                     l2048:
  6368  03AE  30FF               	movlw	255
  6369  03AF  07CE               	addwf	___fldiv@new_exp,f
  6370  03B0  1803               	skipnc
  6371  03B1  0ACF               	incf	___fldiv@new_exp+1,f
  6372  03B2  30FF               	movlw	255
  6373  03B3  07CF               	addwf	___fldiv@new_exp+1,f
  6374  03B4                     l2050:
  6375  03B4  1FC2               	btfss	___fldiv@b+2,7
  6376  03B5  2BB7               	goto	u2371
  6377  03B6  2BB8               	goto	u2370
  6378  03B7                     u2371:
  6379  03B7  2B97               	goto	l2040
  6380  03B8                     u2370:
  6381  03B8                     l2052:
  6382  03B8  01D5               	clrf	___fldiv@aexp
  6383  03B9                     l2054:
  6384  03B9  1FD3               	btfss	___fldiv@grs+3,7
  6385  03BA  2BBC               	goto	u2381
  6386  03BB  2BBD               	goto	u2380
  6387  03BC                     u2381:
  6388  03BC  2BD9               	goto	l2062
  6389  03BD                     u2380:
  6390  03BD                     l2056:
  6391  03BD  30FF               	movlw	255
  6392  03BE  0550               	andwf	___fldiv@grs,w
  6393  03BF  00C4               	movwf	??___fldiv
  6394  03C0  30FF               	movlw	255
  6395  03C1  0551               	andwf	___fldiv@grs+1,w
  6396  03C2  00C5               	movwf	??___fldiv+1
  6397  03C3  30FF               	movlw	255
  6398  03C4  0552               	andwf	___fldiv@grs+2,w
  6399  03C5  00C6               	movwf	??___fldiv+2
  6400  03C6  307F               	movlw	127
  6401  03C7  0553               	andwf	___fldiv@grs+3,w
  6402  03C8  00C7               	movwf	??___fldiv+3
  6403  03C9  0847               	movf	??___fldiv+3,w
  6404  03CA  0446               	iorwf	??___fldiv+2,w
  6405  03CB  0445               	iorwf	??___fldiv+1,w
  6406  03CC  0444               	iorwf	??___fldiv,w
  6407  03CD  1903               	skipnz
  6408  03CE  2BD0               	goto	u2391
  6409  03CF  2BD1               	goto	u2390
  6410  03D0                     u2391:
  6411  03D0  2BD4               	goto	l689
  6412  03D1                     u2390:
  6413  03D1                     l2058:
  6414  03D1  01D5               	clrf	___fldiv@aexp
  6415  03D2  0AD5               	incf	___fldiv@aexp,f
  6416  03D3  2BD9               	goto	l2062
  6417  03D4                     l689:
  6418  03D4  1C40               	btfss	___fldiv@b,0
  6419  03D5  2BD7               	goto	u2401
  6420  03D6  2BD8               	goto	u2400
  6421  03D7                     u2401:
  6422  03D7  2BD9               	goto	l2062
  6423  03D8                     u2400:
  6424  03D8  2BD1               	goto	l2058
  6425  03D9                     l2062:
  6426  03D9  0855               	movf	___fldiv@aexp,w
  6427  03DA  1903               	btfsc	3,2
  6428  03DB  2BDD               	goto	u2411
  6429  03DC  2BDE               	goto	u2410
  6430  03DD                     u2411:
  6431  03DD  2C0F               	goto	l2072
  6432  03DE                     u2410:
  6433  03DE                     l2064:
  6434  03DE  3001               	movlw	1
  6435  03DF  07C0               	addwf	___fldiv@b,f
  6436  03E0  3000               	movlw	0
  6437  03E1  1803               	skipnc
  6438  03E2  3001               	movlw	1
  6439  03E3  07C1               	addwf	___fldiv@b+1,f
  6440  03E4  3000               	movlw	0
  6441  03E5  1803               	skipnc
  6442  03E6  3001               	movlw	1
  6443  03E7  07C2               	addwf	___fldiv@b+2,f
  6444  03E8  3000               	movlw	0
  6445  03E9  1803               	skipnc
  6446  03EA  3001               	movlw	1
  6447  03EB  07C3               	addwf	___fldiv@b+3,f
  6448  03EC                     l2066:
  6449  03EC  1C43               	btfss	___fldiv@b+3,0
  6450  03ED  2BEF               	goto	u2421
  6451  03EE  2BF0               	goto	u2420
  6452  03EF                     u2421:
  6453  03EF  2C0F               	goto	l2072
  6454  03F0                     u2420:
  6455  03F0                     l2068:
  6456  03F0  0840               	movf	___fldiv@b,w
  6457  03F1  00C4               	movwf	??___fldiv
  6458  03F2  0841               	movf	___fldiv@b+1,w
  6459  03F3  00C5               	movwf	??___fldiv+1
  6460  03F4  0842               	movf	___fldiv@b+2,w
  6461  03F5  00C6               	movwf	??___fldiv+2
  6462  03F6  0843               	movf	___fldiv@b+3,w
  6463  03F7  00C7               	movwf	??___fldiv+3
  6464  03F8  3001               	movlw	1
  6465  03F9  00C8               	movwf	??___fldiv+4
  6466  03FA                     u2435:
  6467  03FA  0D47               	rlf	??___fldiv+3,w
  6468  03FB  0CC7               	rrf	??___fldiv+3,f
  6469  03FC  0CC6               	rrf	??___fldiv+2,f
  6470  03FD  0CC5               	rrf	??___fldiv+1,f
  6471  03FE  0CC4               	rrf	??___fldiv,f
  6472  03FF                     u2430:
  6473  03FF  0BC8               	decfsz	??___fldiv+4,f
  6474  0400  2BFA               	goto	u2435
  6475  0401  0847               	movf	??___fldiv+3,w
  6476  0402  00C3               	movwf	___fldiv@b+3
  6477  0403  0846               	movf	??___fldiv+2,w
  6478  0404  00C2               	movwf	___fldiv@b+2
  6479  0405  0845               	movf	??___fldiv+1,w
  6480  0406  00C1               	movwf	___fldiv@b+1
  6481  0407  0844               	movf	??___fldiv,w
  6482  0408  00C0               	movwf	___fldiv@b
  6483  0409                     l2070:
  6484  0409  3001               	movlw	1
  6485  040A  07CE               	addwf	___fldiv@new_exp,f
  6486  040B  1803               	skipnc
  6487  040C  0ACF               	incf	___fldiv@new_exp+1,f
  6488  040D  3000               	movlw	0
  6489  040E  07CF               	addwf	___fldiv@new_exp+1,f
  6490  040F                     l2072:
  6491  040F  084F               	movf	___fldiv@new_exp+1,w
  6492  0410  3A80               	xorlw	128
  6493  0411  00FF               	movwf	btemp+1
  6494  0412  3080               	movlw	128
  6495  0413  027F               	subwf	btemp+1,w
  6496  0414  1D03               	skipz
  6497  0415  2C18               	goto	u2445
  6498  0416  30FF               	movlw	255
  6499  0417  024E               	subwf	___fldiv@new_exp,w
  6500  0418                     u2445:
  6501  0418  1C03               	skipc
  6502  0419  2C1B               	goto	u2441
  6503  041A  2C1C               	goto	u2440
  6504  041B                     u2441:
  6505  041B  2C2A               	goto	l2076
  6506  041C                     u2440:
  6507  041C                     l2074:
  6508  041C  30FF               	movlw	255
  6509  041D  1283               	bcf	3,5	;RP0=0, select bank0
  6510  041E  1303               	bcf	3,6	;RP1=0, select bank0
  6511  041F  00CE               	movwf	___fldiv@new_exp
  6512  0420  3000               	movlw	0
  6513  0421  00CF               	movwf	___fldiv@new_exp+1
  6514  0422  3000               	movlw	0
  6515  0423  00C3               	movwf	___fldiv@b+3
  6516  0424  3000               	movlw	0
  6517  0425  00C2               	movwf	___fldiv@b+2
  6518  0426  3000               	movlw	0
  6519  0427  00C1               	movwf	___fldiv@b+1
  6520  0428  3000               	movlw	0
  6521  0429  00C0               	movwf	___fldiv@b
  6522  042A                     l2076:
  6523  042A  1283               	bcf	3,5	;RP0=0, select bank0
  6524  042B  1303               	bcf	3,6	;RP1=0, select bank0
  6525  042C  084F               	movf	___fldiv@new_exp+1,w
  6526  042D  3A80               	xorlw	128
  6527  042E  00FF               	movwf	btemp+1
  6528  042F  3080               	movlw	128
  6529  0430  027F               	subwf	btemp+1,w
  6530  0431  1D03               	skipz
  6531  0432  2C35               	goto	u2455
  6532  0433  3001               	movlw	1
  6533  0434  024E               	subwf	___fldiv@new_exp,w
  6534  0435                     u2455:
  6535  0435  1803               	skipnc
  6536  0436  2C38               	goto	u2451
  6537  0437  2C39               	goto	u2450
  6538  0438                     u2451:
  6539  0438  2C46               	goto	l695
  6540  0439                     u2450:
  6541  0439                     l2078:
  6542  0439  1283               	bcf	3,5	;RP0=0, select bank0
  6543  043A  1303               	bcf	3,6	;RP1=0, select bank0
  6544  043B  01CE               	clrf	___fldiv@new_exp
  6545  043C  01CF               	clrf	___fldiv@new_exp+1
  6546  043D                     l2080:
  6547  043D  3000               	movlw	0
  6548  043E  00C3               	movwf	___fldiv@b+3
  6549  043F  3000               	movlw	0
  6550  0440  00C2               	movwf	___fldiv@b+2
  6551  0441  3000               	movlw	0
  6552  0442  00C1               	movwf	___fldiv@b+1
  6553  0443  3000               	movlw	0
  6554  0444  00C0               	movwf	___fldiv@b
  6555  0445                     l2082:
  6556  0445  01CD               	clrf	___fldiv@sign
  6557  0446                     l695:
  6558  0446  1283               	bcf	3,5	;RP0=0, select bank0
  6559  0447  1303               	bcf	3,6	;RP1=0, select bank0
  6560  0448  084E               	movf	___fldiv@new_exp,w
  6561  0449  00C4               	movwf	??___fldiv
  6562  044A  0844               	movf	??___fldiv,w
  6563  044B  00D4               	movwf	___fldiv@bexp
  6564  044C                     l2084:
  6565  044C  1C54               	btfss	___fldiv@bexp,0
  6566  044D  2C4F               	goto	u2461
  6567  044E  2C50               	goto	u2460
  6568  044F                     u2461:
  6569  044F  2C52               	goto	l2088
  6570  0450                     u2460:
  6571  0450                     l2086:
  6572  0450  17C2               	bsf	___fldiv@b+2,7
  6573  0451  2C56               	goto	l697
  6574  0452                     l2088:
  6575  0452  307F               	movlw	127
  6576  0453  00C4               	movwf	??___fldiv
  6577  0454  0844               	movf	??___fldiv,w
  6578  0455  05C2               	andwf	___fldiv@b+2,f
  6579  0456                     l697:
  6580  0456  0854               	movf	___fldiv@bexp,w
  6581  0457  00C4               	movwf	??___fldiv
  6582  0458  1003               	clrc
  6583  0459  0C44               	rrf	??___fldiv,w
  6584  045A  00C5               	movwf	??___fldiv+1
  6585  045B  0845               	movf	??___fldiv+1,w
  6586  045C  00C3               	movwf	___fldiv@b+3
  6587  045D  084D               	movf	___fldiv@sign,w
  6588  045E  00C4               	movwf	??___fldiv
  6589  045F  0844               	movf	??___fldiv,w
  6590  0460  04C3               	iorwf	___fldiv@b+3,f
  6591  0461  2AFA               	goto	l1996
  6592  0462                     l675:
  6593  0462  0008               	return
  6594  0463                     __end_of___fldiv:
  6595                           
  6596                           	psect	text25
  6597  0921                     __ptext25:	
  6598 ;; *************** function _PWM_Init *****************
  6599 ;; Defined at:
  6600 ;;		line 12 in file "PWM.c"
  6601 ;; Parameters:    Size  Location     Type
  6602 ;;  freq            4    6[BANK0 ] long 
  6603 ;; Auto vars:     Size  Location     Type
  6604 ;;		None
  6605 ;; Return value:  Size  Location     Type
  6606 ;;                  1    wreg      void 
  6607 ;; Registers used:
  6608 ;;		wreg, status,2, status,0, pclath, cstack
  6609 ;; Tracked objects:
  6610 ;;		On entry : 0/0
  6611 ;;		On exit  : 0/0
  6612 ;;		Unchanged: 0/0
  6613 ;; Data sizes:     COMMON   BANK0   BANK1   BANK3   BANK2
  6614 ;;      Params:         0       4       0       0       0
  6615 ;;      Locals:         0       0       0       0       0
  6616 ;;      Temps:          4       0       0       0       0
  6617 ;;      Totals:         4       4       0       0       0
  6618 ;;Total ram usage:        8 bytes
  6619 ;; Hardware stack levels used: 1
  6620 ;; Hardware stack levels required when called: 1
  6621 ;; This function calls:
  6622 ;;		___aldiv
  6623 ;; This function is called by:
  6624 ;;		_PWM1_Duty
  6625 ;;		_PWM2_Duty
  6626 ;; This function uses a non-reentrant model
  6627 ;;
  6628                           
  6629                           
  6630                           ;psect for function _PWM_Init
  6631  0921                     _PWM_Init:
  6632  0921                     l1888:	
  6633                           ;incstack = 0
  6634                           ; Regs used in _PWM_Init: [wreg+status,2+status,0+pclath+cstack]
  6635                           
  6636                           
  6637                           ;PWM.c: 12: void PWM_Init(long freq);PWM.c: 13: {;PWM.c: 14:   PR2 = (4000000/(freq*4*4)
      +                          ) - 1;
  6638  0921  1283               	bcf	3,5	;RP0=0, select bank0
  6639  0922  1303               	bcf	3,6	;RP1=0, select bank0
  6640  0923  0826               	movf	PWM_Init@freq,w
  6641  0924  00F9               	movwf	??_PWM_Init
  6642  0925  0827               	movf	PWM_Init@freq+1,w
  6643  0926  00FA               	movwf	??_PWM_Init+1
  6644  0927  0828               	movf	PWM_Init@freq+2,w
  6645  0928  00FB               	movwf	??_PWM_Init+2
  6646  0929  0829               	movf	PWM_Init@freq+3,w
  6647  092A  00FC               	movwf	??_PWM_Init+3
  6648  092B  3002               	movlw	2
  6649  092C                     u2035:
  6650  092C  1003               	clrc
  6651  092D  0DF9               	rlf	??_PWM_Init,f
  6652  092E  0DFA               	rlf	??_PWM_Init+1,f
  6653  092F  0DFB               	rlf	??_PWM_Init+2,f
  6654  0930  0DFC               	rlf	??_PWM_Init+3,f
  6655  0931                     u2030:
  6656  0931  3EFF               	addlw	-1
  6657  0932  1D03               	skipz
  6658  0933  292C               	goto	u2035
  6659  0934  3002               	movlw	2
  6660  0935                     u2045:
  6661  0935  1003               	clrc
  6662  0936  0DF9               	rlf	??_PWM_Init,f
  6663  0937  0DFA               	rlf	??_PWM_Init+1,f
  6664  0938  0DFB               	rlf	??_PWM_Init+2,f
  6665  0939  0DFC               	rlf	??_PWM_Init+3,f
  6666  093A                     u2040:
  6667  093A  3EFF               	addlw	-1
  6668  093B  1D03               	skipz
  6669  093C  2935               	goto	u2045
  6670  093D  087C               	movf	??_PWM_Init+3,w
  6671  093E  00F3               	movwf	___aldiv@divisor+3
  6672  093F  087B               	movf	??_PWM_Init+2,w
  6673  0940  00F2               	movwf	___aldiv@divisor+2
  6674  0941  087A               	movf	??_PWM_Init+1,w
  6675  0942  00F1               	movwf	___aldiv@divisor+1
  6676  0943  0879               	movf	??_PWM_Init,w
  6677  0944  00F0               	movwf	___aldiv@divisor
  6678  0945  3000               	movlw	0
  6679  0946  00F7               	movwf	___aldiv@dividend+3
  6680  0947  303D               	movlw	61
  6681  0948  00F6               	movwf	___aldiv@dividend+2
  6682  0949  3009               	movlw	9
  6683  094A  00F5               	movwf	___aldiv@dividend+1
  6684  094B  3000               	movlw	0
  6685  094C  00F4               	movwf	___aldiv@dividend
  6686  094D  120A  158A  2368  120A  158A  	fcall	___aldiv
  6687  0952  0870               	movf	?___aldiv,w
  6688  0953  3EFF               	addlw	255
  6689  0954  1683               	bsf	3,5	;RP0=1, select bank1
  6690  0955  1303               	bcf	3,6	;RP1=0, select bank1
  6691  0956  0092               	movwf	18	;volatile
  6692  0957                     l35:
  6693  0957  0008               	return
  6694  0958                     __end_of_PWM_Init:
  6695                           
  6696                           	psect	text26
  6697  0B68                     __ptext26:	
  6698 ;; *************** function ___aldiv *****************
  6699 ;; Defined at:
  6700 ;;		line 5 in file "C:\Program Files\Microchip\xc8\v2.32\pic\sources\c90\common\aldiv.c"
  6701 ;; Parameters:    Size  Location     Type
  6702 ;;  divisor         4    0[COMMON] long 
  6703 ;;  dividend        4    4[COMMON] long 
  6704 ;; Auto vars:     Size  Location     Type
  6705 ;;  quotient        4    2[BANK0 ] long 
  6706 ;;  sign            1    1[BANK0 ] unsigned char 
  6707 ;;  counter         1    0[BANK0 ] unsigned char 
  6708 ;; Return value:  Size  Location     Type
  6709 ;;                  4    0[COMMON] long 
  6710 ;; Registers used:
  6711 ;;		wreg, status,2, status,0
  6712 ;; Tracked objects:
  6713 ;;		On entry : 0/0
  6714 ;;		On exit  : 0/0
  6715 ;;		Unchanged: 0/0
  6716 ;; Data sizes:     COMMON   BANK0   BANK1   BANK3   BANK2
  6717 ;;      Params:         8       0       0       0       0
  6718 ;;      Locals:         0       6       0       0       0
  6719 ;;      Temps:          1       0       0       0       0
  6720 ;;      Totals:         9       6       0       0       0
  6721 ;;Total ram usage:       15 bytes
  6722 ;; Hardware stack levels used: 1
  6723 ;; This function calls:
  6724 ;;		Nothing
  6725 ;; This function is called by:
  6726 ;;		_PWM_Init
  6727 ;;		_PWM1_Duty
  6728 ;;		_PWM2_Duty
  6729 ;; This function uses a non-reentrant model
  6730 ;;
  6731                           
  6732                           
  6733                           ;psect for function ___aldiv
  6734  0B68                     ___aldiv:
  6735  0B68                     l1834:	
  6736                           ;incstack = 0
  6737                           ; Regs used in ___aldiv: [wreg+status,2+status,0]
  6738                           
  6739  0B68  1283               	bcf	3,5	;RP0=0, select bank0
  6740  0B69  1303               	bcf	3,6	;RP1=0, select bank0
  6741  0B6A  01A1               	clrf	___aldiv@sign
  6742  0B6B                     l1836:
  6743  0B6B  1FF3               	btfss	___aldiv@divisor+3,7
  6744  0B6C  2B6E               	goto	u1901
  6745  0B6D  2B6F               	goto	u1900
  6746  0B6E                     u1901:
  6747  0B6E  2B7C               	goto	l389
  6748  0B6F                     u1900:
  6749  0B6F                     l1838:
  6750  0B6F  09F0               	comf	___aldiv@divisor,f
  6751  0B70  09F1               	comf	___aldiv@divisor+1,f
  6752  0B71  09F2               	comf	___aldiv@divisor+2,f
  6753  0B72  09F3               	comf	___aldiv@divisor+3,f
  6754  0B73  0AF0               	incf	___aldiv@divisor,f
  6755  0B74  1903               	skipnz
  6756  0B75  0AF1               	incf	___aldiv@divisor+1,f
  6757  0B76  1903               	skipnz
  6758  0B77  0AF2               	incf	___aldiv@divisor+2,f
  6759  0B78  1903               	skipnz
  6760  0B79  0AF3               	incf	___aldiv@divisor+3,f
  6761  0B7A  01A1               	clrf	___aldiv@sign
  6762  0B7B  0AA1               	incf	___aldiv@sign,f
  6763  0B7C                     l389:
  6764  0B7C  1FF7               	btfss	___aldiv@dividend+3,7
  6765  0B7D  2B7F               	goto	u1911
  6766  0B7E  2B80               	goto	u1910
  6767  0B7F                     u1911:
  6768  0B7F  2B8F               	goto	l1844
  6769  0B80                     u1910:
  6770  0B80                     l1840:
  6771  0B80  09F4               	comf	___aldiv@dividend,f
  6772  0B81  09F5               	comf	___aldiv@dividend+1,f
  6773  0B82  09F6               	comf	___aldiv@dividend+2,f
  6774  0B83  09F7               	comf	___aldiv@dividend+3,f
  6775  0B84  0AF4               	incf	___aldiv@dividend,f
  6776  0B85  1903               	skipnz
  6777  0B86  0AF5               	incf	___aldiv@dividend+1,f
  6778  0B87  1903               	skipnz
  6779  0B88  0AF6               	incf	___aldiv@dividend+2,f
  6780  0B89  1903               	skipnz
  6781  0B8A  0AF7               	incf	___aldiv@dividend+3,f
  6782  0B8B                     l1842:
  6783  0B8B  3001               	movlw	1
  6784  0B8C  00F8               	movwf	??___aldiv
  6785  0B8D  0878               	movf	??___aldiv,w
  6786  0B8E  06A1               	xorwf	___aldiv@sign,f
  6787  0B8F                     l1844:
  6788  0B8F  3000               	movlw	0
  6789  0B90  00A5               	movwf	___aldiv@quotient+3
  6790  0B91  3000               	movlw	0
  6791  0B92  00A4               	movwf	___aldiv@quotient+2
  6792  0B93  3000               	movlw	0
  6793  0B94  00A3               	movwf	___aldiv@quotient+1
  6794  0B95  3000               	movlw	0
  6795  0B96  00A2               	movwf	___aldiv@quotient
  6796  0B97                     l1846:
  6797  0B97  0873               	movf	___aldiv@divisor+3,w
  6798  0B98  0472               	iorwf	___aldiv@divisor+2,w
  6799  0B99  0471               	iorwf	___aldiv@divisor+1,w
  6800  0B9A  0470               	iorwf	___aldiv@divisor,w
  6801  0B9B  1903               	skipnz
  6802  0B9C  2B9E               	goto	u1921
  6803  0B9D  2B9F               	goto	u1920
  6804  0B9E                     u1921:
  6805  0B9E  2BEC               	goto	l1866
  6806  0B9F                     u1920:
  6807  0B9F                     l1848:
  6808  0B9F  01A0               	clrf	___aldiv@counter
  6809  0BA0  0AA0               	incf	___aldiv@counter,f
  6810  0BA1  2BAF               	goto	l1852
  6811  0BA2                     l1850:
  6812  0BA2  3001               	movlw	1
  6813  0BA3  00F8               	movwf	??___aldiv
  6814  0BA4                     u1935:
  6815  0BA4  1003               	clrc
  6816  0BA5  0DF0               	rlf	___aldiv@divisor,f
  6817  0BA6  0DF1               	rlf	___aldiv@divisor+1,f
  6818  0BA7  0DF2               	rlf	___aldiv@divisor+2,f
  6819  0BA8  0DF3               	rlf	___aldiv@divisor+3,f
  6820  0BA9  0BF8               	decfsz	??___aldiv,f
  6821  0BAA  2BA4               	goto	u1935
  6822  0BAB  3001               	movlw	1
  6823  0BAC  00F8               	movwf	??___aldiv
  6824  0BAD  0878               	movf	??___aldiv,w
  6825  0BAE  07A0               	addwf	___aldiv@counter,f
  6826  0BAF                     l1852:
  6827  0BAF  1FF3               	btfss	___aldiv@divisor+3,7
  6828  0BB0  2BB2               	goto	u1941
  6829  0BB1  2BB3               	goto	u1940
  6830  0BB2                     u1941:
  6831  0BB2  2BA2               	goto	l1850
  6832  0BB3                     u1940:
  6833  0BB3                     l1854:
  6834  0BB3  3001               	movlw	1
  6835  0BB4  00F8               	movwf	??___aldiv
  6836  0BB5                     u1955:
  6837  0BB5  1003               	clrc
  6838  0BB6  0DA2               	rlf	___aldiv@quotient,f
  6839  0BB7  0DA3               	rlf	___aldiv@quotient+1,f
  6840  0BB8  0DA4               	rlf	___aldiv@quotient+2,f
  6841  0BB9  0DA5               	rlf	___aldiv@quotient+3,f
  6842  0BBA  0BF8               	decfsz	??___aldiv,f
  6843  0BBB  2BB5               	goto	u1955
  6844  0BBC                     l1856:
  6845  0BBC  0873               	movf	___aldiv@divisor+3,w
  6846  0BBD  0277               	subwf	___aldiv@dividend+3,w
  6847  0BBE  1D03               	skipz
  6848  0BBF  2BCA               	goto	u1965
  6849  0BC0  0872               	movf	___aldiv@divisor+2,w
  6850  0BC1  0276               	subwf	___aldiv@dividend+2,w
  6851  0BC2  1D03               	skipz
  6852  0BC3  2BCA               	goto	u1965
  6853  0BC4  0871               	movf	___aldiv@divisor+1,w
  6854  0BC5  0275               	subwf	___aldiv@dividend+1,w
  6855  0BC6  1D03               	skipz
  6856  0BC7  2BCA               	goto	u1965
  6857  0BC8  0870               	movf	___aldiv@divisor,w
  6858  0BC9  0274               	subwf	___aldiv@dividend,w
  6859  0BCA                     u1965:
  6860  0BCA  1C03               	skipc
  6861  0BCB  2BCD               	goto	u1961
  6862  0BCC  2BCE               	goto	u1960
  6863  0BCD                     u1961:
  6864  0BCD  2BDD               	goto	l1862
  6865  0BCE                     u1960:
  6866  0BCE                     l1858:
  6867  0BCE  0870               	movf	___aldiv@divisor,w
  6868  0BCF  02F4               	subwf	___aldiv@dividend,f
  6869  0BD0  0871               	movf	___aldiv@divisor+1,w
  6870  0BD1  1C03               	skipc
  6871  0BD2  0F71               	incfsz	___aldiv@divisor+1,w
  6872  0BD3  02F5               	subwf	___aldiv@dividend+1,f
  6873  0BD4  0872               	movf	___aldiv@divisor+2,w
  6874  0BD5  1C03               	skipc
  6875  0BD6  0F72               	incfsz	___aldiv@divisor+2,w
  6876  0BD7  02F6               	subwf	___aldiv@dividend+2,f
  6877  0BD8  0873               	movf	___aldiv@divisor+3,w
  6878  0BD9  1C03               	skipc
  6879  0BDA  0F73               	incfsz	___aldiv@divisor+3,w
  6880  0BDB  02F7               	subwf	___aldiv@dividend+3,f
  6881  0BDC                     l1860:
  6882  0BDC  1422               	bsf	___aldiv@quotient,0
  6883  0BDD                     l1862:
  6884  0BDD  3001               	movlw	1
  6885  0BDE                     u1975:
  6886  0BDE  1003               	clrc
  6887  0BDF  0CF3               	rrf	___aldiv@divisor+3,f
  6888  0BE0  0CF2               	rrf	___aldiv@divisor+2,f
  6889  0BE1  0CF1               	rrf	___aldiv@divisor+1,f
  6890  0BE2  0CF0               	rrf	___aldiv@divisor,f
  6891  0BE3  3EFF               	addlw	-1
  6892  0BE4  1D03               	skipz
  6893  0BE5  2BDE               	goto	u1975
  6894  0BE6                     l1864:
  6895  0BE6  3001               	movlw	1
  6896  0BE7  02A0               	subwf	___aldiv@counter,f
  6897  0BE8  1D03               	btfss	3,2
  6898  0BE9  2BEB               	goto	u1981
  6899  0BEA  2BEC               	goto	u1980
  6900  0BEB                     u1981:
  6901  0BEB  2BB3               	goto	l1854
  6902  0BEC                     u1980:
  6903  0BEC                     l1866:
  6904  0BEC  0821               	movf	___aldiv@sign,w
  6905  0BED  1903               	btfsc	3,2
  6906  0BEE  2BF0               	goto	u1991
  6907  0BEF  2BF1               	goto	u1990
  6908  0BF0                     u1991:
  6909  0BF0  2BFC               	goto	l1870
  6910  0BF1                     u1990:
  6911  0BF1                     l1868:
  6912  0BF1  09A2               	comf	___aldiv@quotient,f
  6913  0BF2  09A3               	comf	___aldiv@quotient+1,f
  6914  0BF3  09A4               	comf	___aldiv@quotient+2,f
  6915  0BF4  09A5               	comf	___aldiv@quotient+3,f
  6916  0BF5  0AA2               	incf	___aldiv@quotient,f
  6917  0BF6  1903               	skipnz
  6918  0BF7  0AA3               	incf	___aldiv@quotient+1,f
  6919  0BF8  1903               	skipnz
  6920  0BF9  0AA4               	incf	___aldiv@quotient+2,f
  6921  0BFA  1903               	skipnz
  6922  0BFB  0AA5               	incf	___aldiv@quotient+3,f
  6923  0BFC                     l1870:
  6924  0BFC  0825               	movf	___aldiv@quotient+3,w
  6925  0BFD  00F3               	movwf	?___aldiv+3
  6926  0BFE  0824               	movf	___aldiv@quotient+2,w
  6927  0BFF  00F2               	movwf	?___aldiv+2
  6928  0C00  0823               	movf	___aldiv@quotient+1,w
  6929  0C01  00F1               	movwf	?___aldiv+1
  6930  0C02  0822               	movf	___aldiv@quotient,w
  6931  0C03  00F0               	movwf	?___aldiv
  6932  0C04                     l399:
  6933  0C04  0008               	return
  6934  0C05                     __end_of___aldiv:
  6935                           
  6936                           	psect	text27
  6937  08B7                     __ptext27:	
  6938 ;; *************** function _ADC_Read *****************
  6939 ;; Defined at:
  6940 ;;		line 17 in file "adc.c"
  6941 ;; Parameters:    Size  Location     Type
  6942 ;;  channel         1    wreg     unsigned char 
  6943 ;; Auto vars:     Size  Location     Type
  6944 ;;  channel         1    4[COMMON] unsigned char 
  6945 ;; Return value:  Size  Location     Type
  6946 ;;                  2    0[COMMON] unsigned int 
  6947 ;; Registers used:
  6948 ;;		wreg, status,2, status,0
  6949 ;; Tracked objects:
  6950 ;;		On entry : 0/0
  6951 ;;		On exit  : 0/0
  6952 ;;		Unchanged: 0/0
  6953 ;; Data sizes:     COMMON   BANK0   BANK1   BANK3   BANK2
  6954 ;;      Params:         2       0       0       0       0
  6955 ;;      Locals:         1       0       0       0       0
  6956 ;;      Temps:          2       0       0       0       0
  6957 ;;      Totals:         5       0       0       0       0
  6958 ;;Total ram usage:        5 bytes
  6959 ;; Hardware stack levels used: 1
  6960 ;; This function calls:
  6961 ;;		Nothing
  6962 ;; This function is called by:
  6963 ;;		_main
  6964 ;; This function uses a non-reentrant model
  6965 ;;
  6966                           
  6967                           
  6968                           ;psect for function _ADC_Read
  6969  08B7                     _ADC_Read:
  6970                           
  6971                           ;incstack = 0
  6972                           ; Regs used in _ADC_Read: [wreg+status,2+status,0]
  6973                           ;ADC_Read@channel stored from wreg
  6974  08B7  00F4               	movwf	ADC_Read@channel
  6975  08B8                     l2308:
  6976                           
  6977                           ;adc.c: 17: unsigned int ADC_Read(unsigned char channel);adc.c: 18: {;adc.c: 19:    if(c
      +                          hannel > 7)
  6978  08B8  3008               	movlw	8
  6979  08B9  0274               	subwf	ADC_Read@channel,w
  6980  08BA  1C03               	skipc
  6981  08BB  28BD               	goto	u3061
  6982  08BC  28BE               	goto	u3060
  6983  08BD                     u3061:
  6984  08BD  28C1               	goto	l2314
  6985  08BE                     u3060:
  6986  08BE                     l2310:
  6987                           
  6988                           ;adc.c: 20:      return 0;
  6989  08BE  01F0               	clrf	?_ADC_Read
  6990  08BF  01F1               	clrf	?_ADC_Read+1
  6991  08C0  28EA               	goto	l74
  6992  08C1                     l2314:
  6993                           
  6994                           ;adc.c: 22:    ADCON0 &= 0xC5;
  6995  08C1  30C5               	movlw	197
  6996  08C2  00F2               	movwf	??_ADC_Read
  6997  08C3  0872               	movf	??_ADC_Read,w
  6998  08C4  1283               	bcf	3,5	;RP0=0, select bank0
  6999  08C5  1303               	bcf	3,6	;RP1=0, select bank0
  7000  08C6  059F               	andwf	31,f	;volatile
  7001                           
  7002                           ;adc.c: 23:    ADCON0 |= channel<<3;
  7003  08C7  0874               	movf	ADC_Read@channel,w	;volatile
  7004  08C8  00F2               	movwf	??_ADC_Read
  7005  08C9  3002               	movlw	2
  7006  08CA                     u3075:
  7007  08CA  1003               	clrc
  7008  08CB  0DF2               	rlf	??_ADC_Read,f
  7009  08CC  3EFF               	addlw	-1
  7010  08CD  1D03               	skipz
  7011  08CE  28CA               	goto	u3075
  7012  08CF  1003               	clrc
  7013  08D0  0D72               	rlf	??_ADC_Read,w
  7014  08D1  00F3               	movwf	??_ADC_Read+1
  7015  08D2  0873               	movf	??_ADC_Read+1,w
  7016  08D3  049F               	iorwf	31,f	;volatile
  7017  08D4                     l2316:
  7018                           
  7019                           ;adc.c: 24:    _delay((unsigned long)((2)*(4000000/4000.0)));
  7020  08D4  3003               	movlw	3
  7021  08D5  00F3               	movwf	??_ADC_Read+1
  7022  08D6  3097               	movlw	151
  7023  08D7  00F2               	movwf	??_ADC_Read
  7024  08D8                     u3377:
  7025  08D8  0BF2               	decfsz	??_ADC_Read,f
  7026  08D9  28D8               	goto	u3377
  7027  08DA  0BF3               	decfsz	??_ADC_Read+1,f
  7028  08DB  28D8               	goto	u3377
  7029  08DC  28DD               	nop2
  7030  08DD                     l2318:
  7031                           
  7032                           ;adc.c: 25:    GO_nDONE = 1;
  7033  08DD  1283               	bcf	3,5	;RP0=0, select bank0
  7034  08DE  1303               	bcf	3,6	;RP1=0, select bank0
  7035  08DF  151F               	bsf	31,2	;volatile
  7036  08E0                     l75:	
  7037                           ;adc.c: 26:    while(GO_nDONE);
  7038                           
  7039  08E0  191F               	btfsc	31,2	;volatile
  7040  08E1  28E3               	goto	u3081
  7041  08E2  28E4               	goto	u3080
  7042  08E3                     u3081:
  7043  08E3  28E0               	goto	l75
  7044  08E4                     u3080:
  7045  08E4                     l2320:
  7046                           
  7047                           ;adc.c: 27:    return ((unsigned int)(ADRESH<<8)+ADRESL);
  7048  08E4  081E               	movf	30,w	;volatile
  7049  08E5  00F1               	movwf	?_ADC_Read+1
  7050  08E6  1683               	bsf	3,5	;RP0=1, select bank1
  7051  08E7  1303               	bcf	3,6	;RP1=0, select bank1
  7052  08E8  081E               	movf	30,w	;volatile
  7053  08E9  00F0               	movwf	?_ADC_Read
  7054  08EA                     l74:
  7055  08EA  0008               	return
  7056  08EB                     __end_of_ADC_Read:
  7057                           
  7058                           	psect	text28
  7059  17B7                     __ptext28:	
  7060 ;; *************** function _ADC_Init *****************
  7061 ;; Defined at:
  7062 ;;		line 11 in file "adc.c"
  7063 ;; Parameters:    Size  Location     Type
  7064 ;;		None
  7065 ;; Auto vars:     Size  Location     Type
  7066 ;;		None
  7067 ;; Return value:  Size  Location     Type
  7068 ;;                  1    wreg      void 
  7069 ;; Registers used:
  7070 ;;		wreg
  7071 ;; Tracked objects:
  7072 ;;		On entry : 0/0
  7073 ;;		On exit  : 0/0
  7074 ;;		Unchanged: 0/0
  7075 ;; Data sizes:     COMMON   BANK0   BANK1   BANK3   BANK2
  7076 ;;      Params:         0       0       0       0       0
  7077 ;;      Locals:         0       0       0       0       0
  7078 ;;      Temps:          0       0       0       0       0
  7079 ;;      Totals:         0       0       0       0       0
  7080 ;;Total ram usage:        0 bytes
  7081 ;; Hardware stack levels used: 1
  7082 ;; This function calls:
  7083 ;;		Nothing
  7084 ;; This function is called by:
  7085 ;;		_main
  7086 ;; This function uses a non-reentrant model
  7087 ;;
  7088                           
  7089                           
  7090                           ;psect for function _ADC_Init
  7091  17B7                     _ADC_Init:
  7092  17B7                     l2306:	
  7093                           ;incstack = 0
  7094                           ; Regs used in _ADC_Init: [wreg]
  7095                           
  7096                           
  7097                           ;adc.c: 13:    ADCON1 = 0x80;
  7098  17B7  3080               	movlw	128
  7099  17B8  1683               	bsf	3,5	;RP0=1, select bank1
  7100  17B9  1303               	bcf	3,6	;RP1=0, select bank1
  7101  17BA  009F               	movwf	31	;volatile
  7102                           
  7103                           ;adc.c: 14:    ADCON0 = 0xC1;
  7104  17BB  30C1               	movlw	193
  7105  17BC  1283               	bcf	3,5	;RP0=0, select bank0
  7106  17BD  1303               	bcf	3,6	;RP1=0, select bank0
  7107  17BE  009F               	movwf	31	;volatile
  7108  17BF                     l70:
  7109  17BF  0008               	return
  7110  17C0                     __end_of_ADC_Init:
  7111  007E                     btemp	set	126	;btemp
  7112  007E                     wtemp0	set	126
  7113                           
  7114                           	psect	config
  7115                           
  7116                           ;Config register CONFIG @ 0x2007
  7117                           ;	Oscillator Selection bits
  7118                           ;	FOSC = HS, HS oscillator
  7119                           ;	Watchdog Timer Enable bit
  7120                           ;	WDTE = OFF, WDT disabled
  7121                           ;	Power-up Timer Enable bit
  7122                           ;	PWRTE = OFF, PWRT disabled
  7123                           ;	Brown-out Reset Enable bit
  7124                           ;	BOREN = OFF, BOR disabled
  7125                           ;	Low-Voltage (Single-Supply) In-Circuit Serial Programming Enable bit
  7126                           ;	LVP = OFF, RB3 is digital I/O, HV on MCLR must be used for programming
  7127                           ;	Data EEPROM Memory Code Protection bit
  7128                           ;	CPD = OFF, Data EEPROM code protection off
  7129                           ;	Flash Program Memory Write Enable bits
  7130                           ;	WRT = OFF, Write protection off; all program memory may be written to by EECON control
  7131                           ;	In-Circuit Debugger Mode bit
  7132                           ;	DEBUG = 0x1, unprogrammed default
  7133                           ;	Flash Program Memory Code Protection bit
  7134                           ;	CP = OFF, Code protection off
  7135  2007                     	org	8199
  7136  2007  3F3A               	dw	16186

Data Sizes:
    Strings     20
    Constant    10
    Data        6
    BSS         78
    Persistent  0
    Stack       0

Auto Spaces:
    Space          Size  Autos    Used
    COMMON           14     14      14
    BANK0            80     80      80
    BANK1            80     20      72
    BANK3            96      0      32
    BANK2            96      0       0

Pointer List with Targets:

    sprintf@f	PTR const unsigned char  size(1) Largest target is 3
		 -> STR_6(CODE[3]), STR_4(CODE[3]), STR_2(CODE[3]), STR_1(CODE[3]), 

    sprintf@sp	PTR unsigned char  size(2) Largest target is 32
		 -> kp_string(BANK3[32]), setPoint_string(BANK1[32]), 

    sprintf@ap	PTR void [1] size(1) Largest target is 2
		 -> ?_sprintf(BANK0[2]), 

    lcd_str@str	PTR const unsigned char  size(2) Largest target is 32
		 -> STR_8(CODE[6]), STR_7(CODE[6]), kp_string(BANK3[32]), STR_5(CODE[3]), 
		 -> STR_3(CODE[2]), setPoint_string(BANK1[32]), 


Critical Paths under _main in COMMON

    _main->___fltol
    _lcd_init->_lcd_cmd
    _imprimirTemperatura->___lwdiv
    _sprintf->___lwdiv
    ___lwdiv->___lwmod
    _lcd_str->_lcd_dat
    _lcd_dat->_lcd_wr
    _lcd_cmd->_lcd_wr
    _controleMaximoMinimo->___fltol
    ___wmul->_ADC_Read
    _PWM2_Duty->___fltol
    _PWM1_Duty->___fltol
    ___xxtofl->___fltol
    ___fltol->__Umul8_16
    ___fltol->___aldiv
    ___flmul->___fltol
    ___fldiv->___fltol
    _PWM_Init->___aldiv

Critical Paths under _main in BANK0

    _main->___flmul
    _iniciarLcd->_imprimirValoresLcd
    _imprimirValoresLcd->_imprimirTemperatura
    _imprimirTemperatura->_sprintf
    _controleMaximoMinimo->___fltol
    _PWM2_Duty->___flmul
    _PWM1_Duty->___flmul
    ___xxtofl->_controleMaximoMinimo
    ___fltol->___aldiv
    ___flmul->___fldiv
    ___fldiv->___xxtofl
    _PWM_Init->___aldiv

Critical Paths under _main in BANK1

    _main->_PWM1_Duty
    _main->_PWM2_Duty

Critical Paths under _main in BANK3

    None.

Critical Paths under _main in BANK2

    None.

Call Graph Tables:

 ---------------------------------------------------------------------------------
 (Depth) Function   	        Calls       Base Space   Used Autos Params    Refs
 ---------------------------------------------------------------------------------
 (0) _main                                                14    14      0   37622
                                              6 BANK1     14    14      0
                           _ADC_Init
                           _ADC_Read
                          _PWM1_Duty
                         _PWM1_Start
                          _PWM2_Duty
                         _PWM2_Start
                            ___awdiv
                            ___flmul
                            ___fltol
                             ___wmul
                           ___xxtofl
                   _controlarValores
               _controleMaximoMinimo
                 _imprimirValoresLcd
                         _iniciarLcd
 ---------------------------------------------------------------------------------
 (1) _iniciarLcd                                           0     0      0    9081
                 _imprimirValoresLcd
                            _lcd_cmd
                           _lcd_init
                            _lcd_str
 ---------------------------------------------------------------------------------
 (2) _lcd_init                                             0     0      0      44
                            _lcd_cmd
 ---------------------------------------------------------------------------------
 (2) _imprimirValoresLcd                                   1     1      0    8251
                                             25 BANK0      1     1      0
                _imprimirTemperatura
                            _lcd_cmd
                            _lcd_str
                            _sprintf
 ---------------------------------------------------------------------------------
 (3) _imprimirTemperatura                                 11     9      2    5011
                                             14 BANK0     11     9      2
                            ___lwdiv
                            ___lwmod
                            _lcd_cmd
                            _lcd_str
                            _sprintf
 ---------------------------------------------------------------------------------
 (3) _sprintf                                             22    17      5    2454
                                              0 BANK0     14     9      5
                            ___lwdiv
                            ___lwmod
 ---------------------------------------------------------------------------------
 (4) ___lwmod                                              6     2      4     767
                                              0 COMMON     6     2      4
 ---------------------------------------------------------------------------------
 (4) ___lwdiv                                              8     4      4     770
                                              6 COMMON     8     4      4
                            ___lwmod (ARG)
 ---------------------------------------------------------------------------------
 (2) _lcd_str                                              4     2      2     742
                                              2 COMMON     4     2      2
                            _lcd_dat
 ---------------------------------------------------------------------------------
 (3) _lcd_dat                                              1     1      0      44
                                              1 COMMON     1     1      0
                             _lcd_wr
 ---------------------------------------------------------------------------------
 (3) _lcd_cmd                                              1     1      0      44
                                              1 COMMON     1     1      0
                             _lcd_wr
 ---------------------------------------------------------------------------------
 (4) _lcd_wr                                               1     1      0      22
                                              0 COMMON     1     1      0
 ---------------------------------------------------------------------------------
 (1) _controleMaximoMinimo                                 2     0      2     296
                                             12 BANK0      2     0      2
                            ___fltol (ARG)
 ---------------------------------------------------------------------------------
 (1) _controlarValores                                     1     1      0       0
                                              0 COMMON     1     1      0
 ---------------------------------------------------------------------------------
 (1) ___wmul                                               6     2      4     244
                                              5 COMMON     6     2      4
                           _ADC_Read (ARG)
 ---------------------------------------------------------------------------------
 (1) ___awdiv                                              9     5      4     452
                                              0 COMMON     9     5      4
 ---------------------------------------------------------------------------------
 (1) _PWM2_Start                                           0     0      0       0
 ---------------------------------------------------------------------------------
 (1) _PWM2_Duty                                            6     2      4    7504
                                              0 BANK1      6     2      4
                           _PWM_Init
                            ___aldiv
                            ___fldiv
                            ___flmul
                            ___fltol
                           ___xxtofl
 ---------------------------------------------------------------------------------
 (1) _PWM1_Start                                           0     0      0       0
 ---------------------------------------------------------------------------------
 (1) _PWM1_Duty                                            6     2      4    7504
                                              0 BANK1      6     2      4
                           _PWM_Init
                            ___aldiv
                            ___fldiv
                            ___flmul
                            ___fltol
                           ___xxtofl
 ---------------------------------------------------------------------------------
 (1) ___xxtofl                                            14    10      4     854
                                             14 BANK0     14    10      4
                            ___aldiv (ARG)
                            ___awdiv (ARG)
                            ___fltol (ARG)
               _controleMaximoMinimo (ARG)
 ---------------------------------------------------------------------------------
 (1) ___fltol                                             11     7      4     533
                                              9 COMMON     5     5      0
                                              6 BANK0      6     2      4
                          __Umul8_16 (ARG)
                            ___aldiv (ARG)
 ---------------------------------------------------------------------------------
 (1) ___flmul                                             26    18      8    2721
                                             54 BANK0     26    18      8
                          __Umul8_16
                            ___aldiv (ARG)
                            ___fldiv (ARG)
                            ___fltol (ARG)
                           ___xxtofl (ARG)
 ---------------------------------------------------------------------------------
 (2) __Umul8_16                                            9     7      2     799
                                              0 COMMON     9     7      2
 ---------------------------------------------------------------------------------
 (2) ___fldiv                                             26    18      8    1425
                                             28 BANK0     26    18      8
                            ___fltol (ARG)
                           ___xxtofl (ARG)
 ---------------------------------------------------------------------------------
 (2) _PWM_Init                                             8     4      4     930
                                              9 COMMON     4     4      0
                                              6 BANK0      4     0      4
                            ___aldiv
 ---------------------------------------------------------------------------------
 (2) ___aldiv                                             15     7      8     756
                                              0 COMMON     9     1      8
                                              0 BANK0      6     6      0
 ---------------------------------------------------------------------------------
 (1) _ADC_Read                                             5     3      2      44
                                              0 COMMON     5     3      2
 ---------------------------------------------------------------------------------
 (1) _ADC_Init                                             0     0      0       0
 ---------------------------------------------------------------------------------
 Estimated maximum stack depth 4
 ---------------------------------------------------------------------------------

 Call Graph Graphs:

 _main (ROOT)
   _ADC_Init
   _ADC_Read
   _PWM1_Duty
     _PWM_Init
       ___aldiv
     ___aldiv
     ___fldiv
       ___fltol (ARG)
         __Umul8_16 (ARG)
         ___aldiv (ARG)
       ___xxtofl (ARG)
         ___aldiv (ARG)
         ___awdiv (ARG)
         ___fltol (ARG)
         _controleMaximoMinimo (ARG)
           ___fltol (ARG)
     ___flmul
       __Umul8_16
       ___aldiv (ARG)
       ___fldiv (ARG)
       ___fltol (ARG)
       ___xxtofl (ARG)
     ___fltol
     ___xxtofl
   _PWM1_Start
   _PWM2_Duty
     _PWM_Init
     ___aldiv
     ___fldiv
     ___flmul
     ___fltol
     ___xxtofl
   _PWM2_Start
   ___awdiv
   ___flmul
   ___fltol
   ___wmul
     _ADC_Read (ARG)
   ___xxtofl
   _controlarValores
   _controleMaximoMinimo
   _imprimirValoresLcd
     _imprimirTemperatura
       ___lwdiv
         ___lwmod (ARG)
       ___lwmod
       _lcd_cmd
         _lcd_wr
       _lcd_str
         _lcd_dat
           _lcd_wr
       _sprintf
         ___lwdiv
         ___lwmod
     _lcd_cmd
     _lcd_str
     _sprintf
   _iniciarLcd
     _imprimirValoresLcd
     _lcd_cmd
     _lcd_init
       _lcd_cmd
     _lcd_str

 Address spaces:
Name               Size   Autos  Total    Cost      Usage
BANK3               60      0      20       9       33.3%
BITBANK3            60      0       0       8        0.0%
SFR3                 0      0       0       4        0.0%
BITSFR3              0      0       0       4        0.0%
BANK2               60      0       0      11        0.0%
BITBANK2            60      0       0      10        0.0%
SFR2                 0      0       0       5        0.0%
BITSFR2              0      0       0       5        0.0%
BANK1               50     14      48       7       90.0%
BITBANK1            50      0       0       6        0.0%
SFR1                 0      0       0       2        0.0%
BITSFR1              0      0       0       2        0.0%
BANK0               50     50      50       5      100.0%
BITBANK0            50      0       0       4        0.0%
SFR0                 0      0       0       1        0.0%
BITSFR0              0      0       0       1        0.0%
COMMON               E      E       E       1      100.0%
BITCOMMON            E      0       0       0        0.0%
CODE                 0      0       0       0        0.0%
DATA                 0      0      C6      12        0.0%
ABS                  0      0      C6       3        0.0%
NULL                 0      0       0       0        0.0%
STACK                0      0       0       2        0.0%
EEDATA             100      0       0       0        0.0%


Microchip Technology PIC Macro Assembler V2.32 build 20210201212658 
Symbol Table                                                                                   Sun Jun 13 16:14:20 2021

   imprimirTemperatura@tempSet 002E                   ___fldiv@aexp 0055                   ___fldiv@bexp 0054  
                            pc 0002                   ___fldiv@sign 004D                             l35 0957  
                           l43 0E35                             l70 17BF                             l46 17C8  
                           l39 0D6D                             l49 17D3                             l74 08EA  
                           l75 08E0                   ___awdiv@sign 0076                             _kp 00E2  
                           fsr 0004            ___wmul@multiplicand 0077            __Umul8_16@word_mpld 0076  
                          l201 083F                            l210 08B6                            l204 0920  
                          l134 0F0A                            l320 0FFF                            l153 0C2A  
                          l162 0CA1                            l170 17FF                            l324 084C  
                          l156 0C53                            l180 09D1                            l165 0CA5  
                          l510 0B67                            l326 0864                            l159 0C7C  
                          l520 0B67                            l177 0AEB                            l195 17AE  
                          l517 0B52                            l198 17E3                            l606 0991  
                          l713 07C3                            l732 0879                            l389 0B7C  
                          l725 07B7                            l477 0A7C                            l734 088B  
                          l399 0C04                            l719 072F                            l673 02E2  
                          l770 008E                            l675 0462                            l771 009A  
                          l763 0072                            l596 0A15                            l757 002D  
                          l695 0446                            l759 00C4                            l697 0456  
                          l689 03D4                            _RB0 0030                            _RB1 0031  
                          _RB2 0032                            _RB3 0033                            _PR2 0092  
 __end_of_controleMaximoMinimo 1800                            fsr0 0004                            indf 0000  
         ?_imprimirTemperatura 002E                   ___flmul@aexp 0068                   ___flmul@bexp 0069  
                 ___flmul@sign 0063                   ___flmul@temp 006E                   ___flmul@prod 006A  
                 ___fltol@exp1 002B                           l2000 0303                           l2010 032B  
                         l2002 0308                           l2020 0354                           l2012 0333  
                         l2100 0474                           l2030 0375                           l2022 0358  
                         l2014 033B                           l2006 0311                           l2110 0489  
                         l2102 0475                           l2040 0397                           l2032 0383  
                         l2024 0359                           l2016 033D                           l2008 0323  
                         l2120 04A1                           l2112 0491                           l2104 047A  
                         l2042 03A0                           l2050 03B4                           l2018 0342  
                         l2026 0362                           l2034 0387                           l2210 0764  
                         l2202 0734                           l2130 04BD                           l2122 04A6  
                         l2114 0496                           l2106 047F                           l2052 03B8  
                         l2044 03A4                           l2036 038D                           l2028 0374  
                         l2220 079B                           l2204 0739                           l2212 076A  
                         l2140 04E0                           l2132 04C2                           l2124 04AB  
                         l2116 049C                           l2108 0487                           l2300 0E27  
                         l2310 08BE                           l2070 0409                           l2062 03D9  
                         l2054 03B9                           l2046 03A5                           l2038 0395  
                         l2230 07BB                           l2222 079D                           l2214 0777  
                         l2206 0747                           l2150 056E                           l2142 04ED  
                         l2134 04C7                           l2126 04B3                           l2118 04A0  
                         l2302 17C0                           l2320 08E4                           l2080 043D  
                         l2064 03DE                           l2072 040F                           l2056 03BD  
                         l2048 03AE                           l2224 07AB                           l2216 0782  
                         l2208 074B                           l2160 05D0                           l2152 058A  
                         l2144 050A                           l2128 04B5                           l2240 0025  
                         l2304 17C9                           l2400 0840                           l2306 17B7  
                         l2314 08C1                           l2082 0445                           l2074 041C  
                         l2066 03EC                           l2058 03D1                           l2226 07AF  
                         l2218 0791                           l2170 0660                           l2162 05ED  
                         l2154 0593                           l2146 0526                           l2138 04D0  
                         l2250 0050                           l2242 0035                           l2234 000C  
                         l2410 0860                           l2402 0842                           l2330 0C17  
                         l2316 08D4                           l2308 08B8                           l2084 044C  
                         l2076 042A                           l2068 03F0                           l2228 07B0  
                         l2180 06F2                           l2172 068D                           l2164 0606  
                         l2156 05A3                           l2148 0552                           l2260 0084  
                         l2252 0057                           l2236 0011                           l2420 0A20  
                         l2404 0846                           l2340 0C3B                           l2332 0C1D  
                         l2324 0C05                           l1700 09EC                           l2318 08DD  
                         l2086 0450                           l2078 0439                           l2182 06FB  
                         l2190 070F                           l2174 06B3                           l2166 0623  
                         l2158 05C0                           l2094 0463                           l2270 00B7  
                         l2262 0088                           l2254 005B                           l2246 003E  
                         l2238 0015                           l2430 0A31                           l2422 0A22  
                         l2414 0A16                           l2406 0853                           l2350 0C5F  
                         l2342 0C40                           l2334 0C24                           l2326 0C0D  
                         l1702 09FD                           l1710 0A11                           l2088 0452  
                         l2192 0713                           l2184 06FF                           l2176 06DB  
                         l2168 0650                           l2096 046A                           l2272 00BB  
                         l2264 0092                           l2256 0069                           l2248 0043  
                         l2280 0CB9                           l2440 0A49                           l2432 0A37  
                         l2424 0A26                           l2416 0A17                           l2408 085A  
                         l2360 0C80                           l2352 0C64                           l2344 0C46  
                         l2336 0C2E                           l2328 0C12                           l1704 0A03  
                         l1720 0968                           l1800 0FF9                           l2194 0714  
                         l2186 0700                           l2178 06E4                           l2098 0470  
                         l2274 00BC                           l2266 009C                           l2258 0079  
                         l2282 0CC4                           l2290 0D6E                           l2442 0A5A  
                         l2434 0A3A                           l2450 0A6E                           l2426 0A2B  
                         l2418 0A1B                           l2370 0C9D                           l2362 0C88  
                         l2354 0C69                           l2346 0C4D                           l2338 0C36  
                         l1810 088E                           l1706 0A04                           l1730 0987  
                         l1722 096C                           l1714 0958                           l2196 0718  
                         l2188 0709                           l2268 00B2                           l2284 0D50  
                         l2292 0D81                           l2452 0A73                           l2444 0A60  
                         l2436 0A41                           l2428 0A2F                           l2364 0C8D  
                         l2356 0C6F                           l2348 0C57                           l2380 17FF  
                         l2372 17E4                           l1740 17DE                           l1812 089F  
                         l1708 0A0B                           l1724 0970                           l1716 095E  
                         l1732 098D                           l1820 0EB7                           l1900 0AAB  
                         l2460 00CB                           l2198 072C                           l2286 0D53  
                         l2278 0CA6                           l2294 0D8C                           l2454 0A78  
                         l2446 0A61                           l2438 0A45                           l2366 0C92  
                         l2358 0C76                           l2374 17EA                           l1742 17E1  
                         l1814 08A3                           l1726 097A                           l1718 0961  
                         l2518 0F3B                           l1750 0F18                           l1830 0EF8  
                         l1822 0EC0                           l1902 0AB5                           l1910 0AE5  
                         l2390 09B5                           l2470 00D8                           l2462 00CC  
                         l1840 0B80                           l2288 0D5F                           l2296 0E18  
                         l2448 0A68                           l2368 0C98                           l2376 17EC  
                         l1744 17E2                           l1736 17D5                           l1680 0834  
                         l1808 088C                           l1728 0980                           l1760 0F46  
                         l1752 0F21                           l1832 0F01                           l1824 0ED3  
                         l1816 0E36                           l1904 0ABB                           l1912 08EB  
                         l2392 09BB                           l2384 0992                           l2480 011D  
                         l2472 00DD                           l2464 00CD                           l1850 0BA2  
                         l1842 0B8B                           l1834 0B68                           l1930 0B22  
                         l1922 0B02                           l2298 0E1B                           l2378 17F9  
                         l1738 17D8                           l1682 083A                           l1690 09D4  
                         l1770 0F5F                           l1762 0F4E                           l1754 0F28  
                         l1746 0F0B                           l1826 0EDC                           l1818 0EA4  
                         l1906 0AD6                           l1914 08F0                           l2394 09C0  
                         l2386 099D                           l2490 023A                           l2482 0161  
                         l2474 00E2                           l2466 00CE                           l2458 00C5  
                         l1860 0BDC                           l1852 0BAF                           l1844 0B8F  
                         l1836 0B6B                           l1932 0B26                           l1940 0B40  
                         l1924 0B17                           l1916 0AEC                           l1676 17AA  
                         l1684 083D                           l1692 09DA                           l1780 0F7D  
                         l1764 0F52                           l1748 0F12                           l1828 0EE5  
                         l1908 0ADF                           l2396 09C6                           l2388 09A6  
                         l2492 0261                           l2484 01B5                           l2476 00E7  
                         l2468 00D3                           l1870 0BFC                           l1862 0BDD  
                         l1854 0BB3                           l1846 0B97                           l1838 0B6F  
                         l1950 0B5C                           l1926 0B18                           l1918 0AF9  
                         l1686 083E                           l1678 0831                           l1694 09DD  
                         l1790 0FA1                           l1782 0F87                           l1766 0F56  
                         l1758 0F29                           l2398 09CB                           l2494 026E  
                         l2486 01D0                           l2478 0111                           l1864 0BE6  
                         l1856 0BBC                           l1848 0B9F                           l1960 0298  
                         l1952 0286                           l1880 0873                           l1928 0B20  
                         l1696 09E4                           l1688 09D2                           l1792 0FCF  
                         l1784 0F8D                           l1776 0F61                           l1768 0F5A  
                         l2496 027D                           l2488 01EB                           l1858 0BCE  
                         l1866 0BEC                           l1962 029D                           l1970 02AD  
                         l1954 028D                           l1882 0882                           l1874 0866  
                         l1946 0B47                           l1938 0B2E                           l1698 09E8  
                         l1794 0FD8                           l1786 0F96                           l1890 0A7D  
                         l1868 0BF1                           l1980 02C5                           l1972 02B5  
                         l1964 02A2                           l1956 0293                           l1884 0887  
                         l1876 0868                           l1948 0B57                           l1796 0FDE  
                         l1788 0F9C                           l1892 0A85                           l1982 02CA  
                         l1990 02DA                           l1974 02BA                           l1966 02AA  
                         l1958 0297                           l1878 086F                           l1798 0FE7  
                         l1894 0A8F                           l1888 0921                           l1992 02EA  
                         l1984 02CF                           l1976 02C0                           l1968 02AB  
                         l1896 0A9E                           l1994 02F6                           l1986 02D7  
                         l1978 02C4                           l1898 0AA4                           l1996 02FA  
                         l1988 02D8                           STR_1 0829                           STR_2 0829  
                         STR_3 082C                           STR_4 0829                           STR_5 0826  
                         STR_6 0829                           STR_7 0820                           STR_8 081A  
                         u2000 0873                           u2001 0872                           u2020 0887  
                         u2100 0B26                           u2021 0886                           u2101 0B25  
                         u2030 0931                           u2110 0B2D                           u2015 087A  
                         u2111 0B2C                           u2040 093A                           u2200 02A2  
                         u2201 02A1                           u2210 02C4                           u2130 0B3F  
                         u2050 0A85                           u2035 092C                           u2211 02C3  
                         u2131 0B3E                           u2051 0A84                           u2220 02CA  
                         u2140 0B46                           u3004 0D5F                           u3020 0D8C  
                         u3100 0C17                           u2060 0A8F                           u2045 0935  
                         u2221 02C9                           u2141 0B45                           u2125 0B2F  
                         u3021 0D8B                           u3101 0C16                           u2061 0A8E  
                         u2310 0374                           u2230 02CF                           u3030 0E24  
                         u3110 0C1D                           u2070 0AB5                           u2311 0373  
                         u2231 02CE                           u3015 0D64                           u3031 0E20  
                         u3111 0C1C                           u2071 0AB4                           u2400 03D8  
                         u2320 038D                           u2240 02EA                           u2160 0B57  
                         u2080 0AF9                           u3200 0C98                           u3120 0C3B  
                         u2401 03D7                           u2321 038C                           u2305 035B  
                         u2241 02E9                           u2161 0B56                           u2081 0AF8  
                         u3201 0C97                           u3121 0C3A                           u2065 0A8B  
                         u2410 03DE                           u2330 0395                           u2250 0308  
                         u2170 0B5C                           u2090 0B10                           u3130 0C40  
                         u3210 17EA                           u2411 03DD                           u2331 0394  
                         u2315 0370                           u2251 0307                           u2171 0B5B  
                         u2155 0B49                           u3131 0C3F                           u3211 17E9  
                         u2075 0AB1                           u3060 08BE                           u2420 03F0  
                         u2260 0342                           u2180 0297                           u2500 04A0  
                         u3044 0E27                           u3140 0C46                           u3220 17F9  
                         u3061 08BD                           u2421 03EF                           u2261 0341  
                         u2181 0296                           u2501 049F                           u3141 0C45  
                         u3221 17F8                           u2430 03FF                           u2350 03A4  
                         u2190 029D                           u2510 04A6                           u3310 0A49  
                         u3230 0846                           u3150 0C64                           u1710 09EC  
                         u2351 03A3                           u2191 029C                           u2511 04A5  
                         u2095 0B0B                           u3055 0E2C                           u3311 0A48  
                         u3231 0845                           u3151 0C63                           u1711 09EB  
                         u3080 08E4                           u2440 041C                           u2520 04AB  
                         u3160 0C69                           u3081 08E3                           u2441 041B  
                         u2345 0399                           u2601 05B2                           u2521 04AA  
                         u3305 0A3B                           u3161 0C68                           u3225 17F5  
                         u1705 09DE                           u2450 0439                           u2370 03B8  
                         u2290 0358                           u2602 05B9                           u2530 04C2  
                         u3330 0A5A                           u3170 0C6F                           u3090 0C12  
                         u1730 09FD                           u1810 098D                           u3075 08CA  
                         u2451 0438                           u2435 03FA                           u2371 03B7  
                         u2291 0357                           u2275 0344                           u2611 05DF  
                         u2603 05C0                           u2531 04C1                           u3331 0A59  
                         u3171 0C6E                           u3091 0C11                           u1731 09FC  
                         u1811 098C                           u1900 0B6F                           u2460 0450  
                         u2380 03BD                           u2612 05E6                           u2540 04C7  
                         u3260 0860                           u3180 0C8D                           u1820 0F18  
                         u1901 0B6E                           u2461 044F                           u2445 0418  
                         u2381 03BC                           u2365 03A7                           u2285 034D  
                         u2613 05ED                           u2541 04C6                           u3325 0A4A  
                         u3261 085F                           u3245 084D                           u3181 0C8C  
                         u1725 09ED                           u1805 0981                           u1821 0F17  
                         u1910 0B80                           u2390 03D1                           u2470 0474  
                         u3350 0A6E                           u3270 0A1B                           u3190 0C92  
                         u1750 0A11                           u1830 0F56                           u1911 0B7F  
                         u2455 0435                           u2391 03D0                           u2631 0615  
                         u2551 0518                           u2471 0473                           u3351 0A6D  
                         u3335 0A56                           u3271 0A1A                           u3255 0854  
                         u3191 0C91                           u1751 0A10                           u1735 09F9  
                         u1831 0F55                           u1920 0B9F                           u2800 075A  
                         u2720 06FF                           u2632 061C                           u2552 051F  
                         u2480 047A                           u3360 0A73                           u3280 0A26  
                         u1760 095E                           u1840 0F7C                           u1921 0B9E  
                         u2721 06FE                           u2705 06DD                           u2641 0642  
                         u2633 0623                           u2625 05EF                           u2561 0534  
                         u2553 0526                           u2481 0479                           u3361 0A72  
                         u3345 0A62                           u3281 0A25                           u1745 0A05  
                         u1761 095D                           u1841 0F7B                           u2810 0777  
                         u2642 0649                           u2562 053B                           u2490 047F  
                         u3290 0A37                           u1690 09DA                           u1850 0F87  
                         u2811 0776                           u2715 06F4                           u2651 066F  
                         u2643 0650                           u2571 0560                           u2563 0542  
                         u2491 047E                           u3291 0A36                           u1691 09D9  
                         u1851 0F86                           u1940 0BB3                           u2820 0791  
                         u2740 0713                           u2660 0699                           u2652 0676  
                         u2572 0567                           u2900 0078                           u1780 0970  
                         u1860 0F8D                           u1941 0BB2                           u2821 0790  
                         u2805 0755                           u2741 0712                           u2653 067D  
                         u2581 057C                           u2573 056E                           u2901 0077  
                         u1781 096F                           u1861 0F8C                           u1845 0F78  
                         u2830 07AF                           u2750 0718                           u2582 0583  
                         u1790 097A                           u1870 0FE7                           u1935 0BA4  
                         u2831 07AE                           u2815 0773                           u2751 0717  
                         u2735 0702                           u2671 06A5                           u2583 058A  
                         u1791 0979                           u1775 0962                           u1871 0FE6  
                         u1960 0BCE                           u2760 072C                           u2680 06C1  
                         u2672 06AC                           u2920 0088                           u2840 0011  
                         u1880 0FF9                           u3377 08D8                           u1961 0BCD  
                         u2825 078D                           u2761 072B                           u2673 06B3  
                         u2665 0694                           u2921 0087                           u2841 0010  
                         u1881 0FF8                           u2770 0733                           u2930 008E  
                         u2850 0015                           u1890 08B6                           u1955 0BB5  
                         u2771 0732                           u2691 06CD                           u2595 058C  
                         u2931 008D                           u2915 007D                           u2851 0014  
                         u1891 08B5                           u1795 0976                           u1980 0BEC  
                         u2780 0739                           u2692 06D4                           u2940 0092  
                         u2860 0035                           u1981 0BEB                           u1965 0BCA  
                         u2781 0738                           u2693 06DB                           u2685 06BC  
                         u2941 0091                           u2861 0034                           u1990 0BF1  
                         u2790 074B                           u2950 00A7                           u1991 0BF0  
                         u1975 0BDE                           u2791 074A                           u2960 00B7  
                         u2880 0056                           u2961 00B6                           u2881 0055  
                         u2970 00BB                           u2971 00BA                           u2955 00A2  
                         u2875 0048                           u2980 0CC4                           u2981 0CC3  
                         u2990 0D5C                           u2895 006A                           u2991 0D58  
                         _main 00C5                           _menu 00E6                           btemp 007E  
             __end_of_ADC_Init 17C0               __end_of_ADC_Read 08EB                           start 0000  
              ___fldiv@new_exp 004E                  ___fltol@sign1 002A                __end_of___aldiv 0C05  
                        ?_main 0070                          _CCP1X 00BD                __end_of___fldiv 0463  
                        _CCP1Y 00BC                          _CCP2X 00ED                          _CCP2Y 00EC  
              __end_of___awdiv 0A7D                __end_of___flmul 07C4                __end_of___fltol 0B68  
              ___awdiv@divisor 0070                __end_of___lwdiv 0A16                __end_of___lwmod 0992  
              ___awdiv@counter 0075                          _PORTD 0008                          _TRISA 0085  
                        _TRISB 0086                          _TRISC 0087                          _TRISD 0088  
                        _TRISE 0089          ??_imprimirTemperatura 0030       __end_of_controlarValores 0CA6  
              __end_of_lcd_dat 0840                __end_of_lcd_cmd 17E4                __end_of_lcd_str 08B7  
           __size_of_PWM1_Duty 00C8                    ?_PWM1_Start 0070             __size_of_PWM2_Duty 00C8  
                  ?_PWM2_Start 0070                __end_of_dpowers 081A                          pclath 000A  
             __end_of_PWM_Init 0958                          status 0003                          wtemp0 007E  
              __end_of_sprintf 1000                __initialization 07C4                   __end_of_main 0286  
                       ??_main 00D4             _setPointReferencia 00A2                         _ADCON0 001F  
                       _ADCON1 009F                         _CCP1M2 00BA                         _CCP1M3 00BB  
                       _CCP2M2 00EA                         _CCP2M3 00EB                         _ADRESH 001E  
                       _ADRESL 009E                         _CCPR1L 0015                         _CCPR2L 001B  
             ___awdiv@dividend 0072                         _TMR2ON 0092                         _TRISC1 0439  
                       _TRISC2 043A               __end_of___xxtofl 00C5           _controleMaximoMinimo 17E4  
             __end_of_lcd_init 0921              __end_of_PWM1_Duty 0D6E              __end_of_PWM2_Duty 0E36  
                    ??___aldiv 0078     __end_of_imprimirValoresLcd 0AEC                         ___wmul 0840  
                    ??___fldiv 0044                      ??___awdiv 0074            __size_of_PWM1_Start 0009  
                    ??___flmul 005E                      ??___fltol 0079            __size_of_PWM2_Start 000B  
                    ??___lwdiv 007A                      ??___lwmod 0074                         _lcd_wr 17A9  
              ADC_Read@channel 0074               ___awdiv@quotient 0077                      ??_lcd_dat 0071  
                    ??_lcd_cmd 0071                         main@up 00DC                      ??_lcd_str 0074  
           __size_of__Umul8_16 0027                   PWM_Init@freq 0026                      ?_ADC_Init 0070  
                    ?_ADC_Read 0070                      ??_sprintf 0025                   ___xxtofl@arg 0038  
                 ___xxtofl@exp 0037                   ___xxtofl@val 002E        __end_of__initialization 07FC  
                   ___fltol@f1 0026          ?_controleMaximoMinimo 002C                 __pcstackCOMMON 0070  
                 __pidataBANK1 0003                      ?_PWM_Init 0026                     ??_ADC_Init 0070  
                   ??_ADC_Read 0072                     __pbssBANK1 00A0                     __pbssBANK3 0190  
            __end_of__Umul8_16 088C                     __pmaintext 00C5                        ?___wmul 0075  
                      ?_lcd_wr 0070                     ??_PWM_Init 0079                        _T2CKPS0 0090  
                      _T2CKPS1 0091                      ?___xxtofl 002E                   ??_PWM1_Start 0070  
            ?_controlarValores 0070                   ??_PWM2_Start 0070                      ?_lcd_init 0070  
           ??_controlarValores 0070                     __stringtab 0800         ??_controleMaximoMinimo 007E  
                   _iniciarLcd 0992                        ___aldiv 0B68                        ___fldiv 0286  
                      ___awdiv 0A16                        ___flmul 0463                        ___fltol 0AEC  
              __size_of___wmul 0025                        ___lwdiv 09D2                        ___lwmod 0958  
           __end_of_PWM1_Start 17C9             __end_of_PWM2_Start 17D4                __size_of_lcd_wr 0006  
  __end_of_imprimirTemperatura 0F0B                        __ptext1 0992                        __ptext2 08EB  
                      __ptext3 0A7D                        __ptext4 0E36                        __ptext5 0F0B  
                      __ptext6 0958                        __ptext7 09D2                        __ptext8 088C  
                      __ptext9 0830                        _lcd_dat 0830                        _lcd_cmd 17D4  
                      _lcd_str 088C                        _dpowers 0810                     ??___xxtofl 0032  
             ___aldiv@dividend 0074                        _sprintf 0F0B                        clrloop0 17B0  
                   ??_lcd_init 0072           end_of_initialization 07FC               ___aldiv@quotient 0022  
                    _PWM1_Duty 0CA6                      _PWM2_Duty 0D6E                      _PORTEbits 0009  
                ___xxtofl@sign 0036      controleMaximoMinimo@valor 002C             _imprimirValoresLcd 0A7D  
                   lcd_dat@val 0071                     lcd_cmd@val 0071                    ___fldiv@grs 0050  
                  ___fldiv@rem 0049              __size_of_ADC_Init 0009              __size_of_ADC_Read 0034  
                 _kpReferencia 00A0            ?_imprimirValoresLcd 0070                    ___flmul@grs 0064  
                   main@cooler 00E0                     lcd_str@str 0072                    ?_iniciarLcd 0070  
               __end_of___wmul 0865                _setPoint_string 00AE           ??_imprimirValoresLcd 0039  
                   ?_PWM1_Duty 00CE                     ?_PWM2_Duty 00CE                 __end_of_lcd_wr 17AF  
            __size_of_PWM_Init 0037            start_initialization 07C4                       ??___wmul 0079  
                    __Umul8_16 0865                       ??_lcd_wr 0070                    __pdataBANK1 00E2  
                    ___fldiv@a 003C                      ___fldiv@b 0040                      ___flmul@a 005A  
                    ___flmul@b 0056                      ___latbits 0002                  __pcstackBANK0 0020  
                __pcstackBANK1 00CE            __size_of_iniciarLcd 0040              __size_of___xxtofl 00BC  
            __size_of_lcd_init 0036                    sprintf@flag 0029                    sprintf@prec 002A  
             ___lwdiv@dividend 0078      __size_of_controlarValores 00A1                       ?___aldiv 0070  
                     ?___fldiv 003C                       ?___awdiv 0070                       ?___flmul 0056  
                     ?___fltol 0026                     ?__Umul8_16 0070                       ?___lwdiv 0076  
                     ?___lwmod 0070                    ??_PWM1_Duty 00D2                    ??_PWM2_Duty 00D2  
                    __pstrings 0800                       ?_lcd_dat 0070                       ?_lcd_cmd 0070  
                     ?_lcd_str 0072                       _ADC_Init 17B7                       _ADC_Read 08B7  
    imprimirTemperatura@dezena 0035               ___lwdiv@quotient 007B      imprimirTemperatura@milhar 0031  
                     ?_sprintf 0020                      _kp_string 0190                ___aldiv@divisor 0070  
              ___aldiv@counter 0020                 ___wmul@product 0079                      clear_ram0 17AF  
__size_of_controleMaximoMinimo 001C                  PWM1_Duty@freq 00D0                  PWM1_Duty@duty 00CE  
                     _GO_nDONE 00FA                  PWM2_Duty@freq 00D0                  PWM2_Duty@duty 00CE  
      controlarValores@S1Atual 00AC        controlarValores@S2Atual 00AA        controlarValores@S3Atual 00A8  
      controlarValores@S4Atual 00A6                    __stringbase 080F                       _PWM_Init 0921  
            ___wmul@multiplier 0075                      lcd_wr@val 0070   __size_of_imprimirTemperatura 00D5  
   controlarValores@S1Anterior 00AD     controlarValores@S2Anterior 00AB     controlarValores@S3Anterior 00A9  
   controlarValores@S4Anterior 00A7                   ??_iniciarLcd 007E                    ??__Umul8_16 0072  
             __size_of___aldiv 009D               __size_of___fldiv 01DD               __size_of___awdiv 0067  
             __size_of___flmul 0361               __size_of___fltol 007C               __size_of___lwdiv 0044  
             __size_of___lwmod 003A             __end_of__stringtab 0810               __size_of_lcd_dat 0010  
             __size_of_lcd_cmd 0010               __size_of_lcd_str 002B                     sprintf@val 002B  
                     ___xxtofl 0009                       _main$841 00DA                ___lwdiv@divisor 0076  
              ___lwdiv@counter 007D                       __ptext10 17D4                       __ptext11 17A9  
                     __ptext20 0009                       __ptext12 17E4                       __ptext21 0AEC  
                     __ptext13 0C05                       __ptext22 0463                       __ptext14 0840  
                     __ptext23 0865                       __ptext15 0A16                       __ptext24 0286  
                     __ptext16 17C9                       __ptext25 0921                       __ptext17 0D6E  
                     __ptext26 0B68                       __ptext18 17C0                       __ptext27 08B7  
                     __ptext19 0CA6                       __ptext28 17B7             __end_of_iniciarLcd 09D2  
                     _lcd_init 08EB               __size_of_sprintf 00F5                  __size_of_main 01C1  
                     _setPoint 00E4               _controlarValores 0C05                       main@erro 00D6  
                     lcd_str@i 0075    __size_of_imprimirValoresLcd 006F                      sprintf@ap 0028  
                    sprintf@sp 0020               ___lwmod@dividend 0072                      stringcode 080A  
       __Umul8_16@multiplicand 0070                    _temperatura 00A4                       sprintf@c 002D  
                     sprintf@f 0022                ___lwmod@divisor 0070                ___lwmod@counter 0075  
                     stringdir 080A                       stringtab 0800                   ___aldiv@sign 0021  
                   _PWM1_Start 17C0                     _PWM2_Start 17C9        _imprimirTemperatura$840 0037  
         __Umul8_16@multiplier 0078     imprimirTemperatura@centena 0033            _imprimirTemperatura 0E36  
            __Umul8_16@product 0074  
