

Microchip MPLAB XC8 Assembler V2.32 build 20210201212658 
                                                                                               Sat Jun 12 21:27:43 2021

Microchip MPLAB XC8 C Compiler v2.32 (Free license) build 20210201212658 Og1 
     1                           	processor	16F877A
     2                           	pagewidth 120
     3                           	opt	flic
     4                           	psect	strings,global,class=STRING,delta=2,noexec
     5                           	psect	cinit,global,class=CODE,merge=1,delta=2
     6                           	psect	bssBANK0,global,class=BANK0,space=1,delta=1,noexec
     7                           	psect	bssBANK1,global,class=BANK1,space=1,delta=1,noexec
     8                           	psect	cstackBANK1,global,class=BANK1,space=1,delta=1,noexec
     9                           	psect	cstackCOMMON,global,class=COMMON,space=1,delta=1,noexec
    10                           	psect	cstackBANK0,global,class=BANK0,space=1,delta=1,noexec
    11                           	psect	maintext,global,class=CODE,split=1,delta=2
    12                           	psect	text1,local,class=CODE,merge=1,delta=2
    13                           	psect	text2,local,class=CODE,merge=1,delta=2
    14                           	psect	text3,local,class=CODE,merge=1,delta=2
    15                           	psect	text4,local,class=CODE,merge=1,delta=2,group=1
    16                           	psect	text5,local,class=CODE,merge=1,delta=2,group=1
    17                           	psect	text6,local,class=CODE,merge=1,delta=2,group=1
    18                           	psect	text7,local,class=CODE,merge=1,delta=2,group=1
    19                           	psect	text8,local,class=CODE,merge=1,delta=2
    20                           	psect	text9,local,class=CODE,merge=1,delta=2
    21                           	psect	text10,local,class=CODE,merge=1,delta=2
    22                           	psect	text11,local,class=CODE,merge=1,delta=2
    23                           	psect	text12,local,class=CODE,merge=1,delta=2,group=1
    24                           	psect	text13,local,class=CODE,merge=1,delta=2,group=1
    25                           	psect	text14,local,class=CODE,merge=1,delta=2,group=1
    26                           	psect	text15,local,class=CODE,merge=1,delta=2,group=1
    27                           	psect	text16,local,class=CODE,merge=1,delta=2,group=1
    28                           	psect	text17,local,class=CODE,merge=1,delta=2
    29                           	psect	text18,local,class=CODE,merge=1,delta=2,group=1
    30                           	psect	text19,local,class=CODE,merge=1,delta=2
    31                           	psect	text20,local,class=CODE,merge=1,delta=2
    32                           	psect	config,global,abs,ovrld,class=CONFIG,space=4,delta=2,noexec
    33                           	dabs	1,0x7E,2
    34  0000                     
    35                           ; Version 2.20
    36                           ; Generated 12/02/2020 GMT
    37                           ; 
    38                           ; Copyright © 2020, Microchip Technology Inc. and its subsidiaries ("Microchip")
    39                           ; All rights reserved.
    40                           ; 
    41                           ; This software is developed by Microchip Technology Inc. and its subsidiaries ("Microch
      +                          ip").
    42                           ; 
    43                           ; Redistribution and use in source and binary forms, with or without modification, are
    44                           ; permitted provided that the following conditions are met:
    45                           ; 
    46                           ;     1. Redistributions of source code must retain the above copyright notice, this lis
      +                          t of
    47                           ;        conditions and the following disclaimer.
    48                           ; 
    49                           ;     2. Redistributions in binary form must reproduce the above copyright notice, this 
      +                          list
    50                           ;        of conditions and the following disclaimer in the documentation and/or other
    51                           ;        materials provided with the distribution.
    52                           ; 
    53                           ;     3. Microchip's name may not be used to endorse or promote products derived from th
      +                          is
    54                           ;        software without specific prior written permission.
    55                           ; 
    56                           ; THIS SOFTWARE IS PROVIDED BY MICROCHIP "AS IS" AND ANY EXPRESS OR IMPLIED WARRANTIES,
    57                           ; INCLUDING, BUT NOT LIMITED TO, THE IMPLIED WARRANTIES OF MERCHANTABILITY AND FITNESS F
      +                          OR
    58                           ; PURPOSE ARE DISCLAIMED.  IN NO EVENT SHALL MICROCHIP BE LIABLE FOR ANY DIRECT, INDIREC
      +                          T,
    59                           ; INCIDENTAL, SPECIAL, EXEMPLARY, OR CONSEQUENTIAL DAMAGES (INCLUDING BUT NOT LIMITED TO
    60                           ; PROCUREMENT OF SUBSTITUTE GOODS OR SERVICES; LOSS OF USE, DATA OR PROFITS; OR BUSINESS
    61                           ; INTERRUPTION) HOWSOEVER CAUSED AND ON ANY THEORY OF LIABILITY, WHETHER IN CONTRACT, ST
      +                          RICT
    62                           ; LIABILITY, OR TORT (INCLUDING NEGLIGENCE OR OTHERWISE) ARISING IN ANY WAY OUT OF THE U
      +                          SE OF
    63                           ; THIS SOFTWARE, EVEN IF ADVISED OF THE POSSIBILITY OF SUCH DAMAGE.
    64                           ; 
    65                           ; 
    66                           ; Code-generator required, PIC16F877A Definitions
    67                           ; 
    68                           ; SFR Addresses
    69  0000                     	;# 
    70  0001                     	;# 
    71  0002                     	;# 
    72  0003                     	;# 
    73  0004                     	;# 
    74  0005                     	;# 
    75  0006                     	;# 
    76  0007                     	;# 
    77  0008                     	;# 
    78  0009                     	;# 
    79  000A                     	;# 
    80  000B                     	;# 
    81  000C                     	;# 
    82  000D                     	;# 
    83  000E                     	;# 
    84  000E                     	;# 
    85  000F                     	;# 
    86  0010                     	;# 
    87  0011                     	;# 
    88  0012                     	;# 
    89  0013                     	;# 
    90  0014                     	;# 
    91  0015                     	;# 
    92  0015                     	;# 
    93  0016                     	;# 
    94  0017                     	;# 
    95  0018                     	;# 
    96  0019                     	;# 
    97  001A                     	;# 
    98  001B                     	;# 
    99  001B                     	;# 
   100  001C                     	;# 
   101  001D                     	;# 
   102  001E                     	;# 
   103  001F                     	;# 
   104  0081                     	;# 
   105  0085                     	;# 
   106  0086                     	;# 
   107  0087                     	;# 
   108  0088                     	;# 
   109  0089                     	;# 
   110  008C                     	;# 
   111  008D                     	;# 
   112  008E                     	;# 
   113  0091                     	;# 
   114  0092                     	;# 
   115  0093                     	;# 
   116  0094                     	;# 
   117  0098                     	;# 
   118  0099                     	;# 
   119  009C                     	;# 
   120  009D                     	;# 
   121  009E                     	;# 
   122  009F                     	;# 
   123  010C                     	;# 
   124  010D                     	;# 
   125  010E                     	;# 
   126  010F                     	;# 
   127  018C                     	;# 
   128  018D                     	;# 
   129  0000                     	;# 
   130  0001                     	;# 
   131  0002                     	;# 
   132  0003                     	;# 
   133  0004                     	;# 
   134  0005                     	;# 
   135  0006                     	;# 
   136  0007                     	;# 
   137  0008                     	;# 
   138  0009                     	;# 
   139  000A                     	;# 
   140  000B                     	;# 
   141  000C                     	;# 
   142  000D                     	;# 
   143  000E                     	;# 
   144  000E                     	;# 
   145  000F                     	;# 
   146  0010                     	;# 
   147  0011                     	;# 
   148  0012                     	;# 
   149  0013                     	;# 
   150  0014                     	;# 
   151  0015                     	;# 
   152  0015                     	;# 
   153  0016                     	;# 
   154  0017                     	;# 
   155  0018                     	;# 
   156  0019                     	;# 
   157  001A                     	;# 
   158  001B                     	;# 
   159  001B                     	;# 
   160  001C                     	;# 
   161  001D                     	;# 
   162  001E                     	;# 
   163  001F                     	;# 
   164  0081                     	;# 
   165  0085                     	;# 
   166  0086                     	;# 
   167  0087                     	;# 
   168  0088                     	;# 
   169  0089                     	;# 
   170  008C                     	;# 
   171  008D                     	;# 
   172  008E                     	;# 
   173  0091                     	;# 
   174  0092                     	;# 
   175  0093                     	;# 
   176  0094                     	;# 
   177  0098                     	;# 
   178  0099                     	;# 
   179  009C                     	;# 
   180  009D                     	;# 
   181  009E                     	;# 
   182  009F                     	;# 
   183  010C                     	;# 
   184  010D                     	;# 
   185  010E                     	;# 
   186  010F                     	;# 
   187  018C                     	;# 
   188  018D                     	;# 
   189  0000                     	;# 
   190  0001                     	;# 
   191  0002                     	;# 
   192  0003                     	;# 
   193  0004                     	;# 
   194  0005                     	;# 
   195  0006                     	;# 
   196  0007                     	;# 
   197  0008                     	;# 
   198  0009                     	;# 
   199  000A                     	;# 
   200  000B                     	;# 
   201  000C                     	;# 
   202  000D                     	;# 
   203  000E                     	;# 
   204  000E                     	;# 
   205  000F                     	;# 
   206  0010                     	;# 
   207  0011                     	;# 
   208  0012                     	;# 
   209  0013                     	;# 
   210  0014                     	;# 
   211  0015                     	;# 
   212  0015                     	;# 
   213  0016                     	;# 
   214  0017                     	;# 
   215  0018                     	;# 
   216  0019                     	;# 
   217  001A                     	;# 
   218  001B                     	;# 
   219  001B                     	;# 
   220  001C                     	;# 
   221  001D                     	;# 
   222  001E                     	;# 
   223  001F                     	;# 
   224  0081                     	;# 
   225  0085                     	;# 
   226  0086                     	;# 
   227  0087                     	;# 
   228  0088                     	;# 
   229  0089                     	;# 
   230  008C                     	;# 
   231  008D                     	;# 
   232  008E                     	;# 
   233  0091                     	;# 
   234  0092                     	;# 
   235  0093                     	;# 
   236  0094                     	;# 
   237  0098                     	;# 
   238  0099                     	;# 
   239  009C                     	;# 
   240  009D                     	;# 
   241  009E                     	;# 
   242  009F                     	;# 
   243  010C                     	;# 
   244  010D                     	;# 
   245  010E                     	;# 
   246  010F                     	;# 
   247  018C                     	;# 
   248  018D                     	;# 
   249  0000                     	;# 
   250  0001                     	;# 
   251  0002                     	;# 
   252  0003                     	;# 
   253  0004                     	;# 
   254  0005                     	;# 
   255  0006                     	;# 
   256  0007                     	;# 
   257  0008                     	;# 
   258  0009                     	;# 
   259  000A                     	;# 
   260  000B                     	;# 
   261  000C                     	;# 
   262  000D                     	;# 
   263  000E                     	;# 
   264  000E                     	;# 
   265  000F                     	;# 
   266  0010                     	;# 
   267  0011                     	;# 
   268  0012                     	;# 
   269  0013                     	;# 
   270  0014                     	;# 
   271  0015                     	;# 
   272  0015                     	;# 
   273  0016                     	;# 
   274  0017                     	;# 
   275  0018                     	;# 
   276  0019                     	;# 
   277  001A                     	;# 
   278  001B                     	;# 
   279  001B                     	;# 
   280  001C                     	;# 
   281  001D                     	;# 
   282  001E                     	;# 
   283  001F                     	;# 
   284  0081                     	;# 
   285  0085                     	;# 
   286  0086                     	;# 
   287  0087                     	;# 
   288  0088                     	;# 
   289  0089                     	;# 
   290  008C                     	;# 
   291  008D                     	;# 
   292  008E                     	;# 
   293  0091                     	;# 
   294  0092                     	;# 
   295  0093                     	;# 
   296  0094                     	;# 
   297  0098                     	;# 
   298  0099                     	;# 
   299  009C                     	;# 
   300  009D                     	;# 
   301  009E                     	;# 
   302  009F                     	;# 
   303  010C                     	;# 
   304  010D                     	;# 
   305  010E                     	;# 
   306  010F                     	;# 
   307  018C                     	;# 
   308  018D                     	;# 
   309                           
   310                           	psect	strings
   311  0800                     __pstrings:
   312  0800                     stringtab:
   313  0800                     __stringtab:
   314  0800                     stringcode:	
   315                           ;	String table - string pointers are 1 byte each
   316                           
   317  0800                     stringdir:
   318  0800  3008               	movlw	high stringdir
   319  0801  008A               	movwf	10
   320  0802  0804               	movf	4,w
   321  0803  0A84               	incf	4,f
   322  0804  0782               	addwf	2,f
   323  0805                     __stringbase:
   324  0805  3400               	retlw	0
   325  0806                     __end_of__stringtab:
   326  0806                     _digito:
   327  0806  343F               	retlw	63
   328  0807  3406               	retlw	6
   329  0808  345B               	retlw	91
   330  0809  344F               	retlw	79
   331  080A  3466               	retlw	102
   332  080B  346D               	retlw	109
   333  080C  347D               	retlw	125
   334  080D  3407               	retlw	7
   335  080E  347F               	retlw	127
   336  080F  346F               	retlw	111
   337  0810                     __end_of_digito:
   338  0008                     _PORTD	set	8
   339  001E                     _ADRESH	set	30
   340  001F                     _ADCON0	set	31
   341  001B                     _CCPR2L	set	27
   342  0015                     _CCPR1L	set	21
   343  0033                     _RB3	set	51
   344  0032                     _RB2	set	50
   345  0031                     _RB1	set	49
   346  0030                     _RB0	set	48
   347  0034                     _RB4	set	52
   348  0035                     _RB5	set	53
   349  0036                     _RB6	set	54
   350  0037                     _RB7	set	55
   351  00FA                     _GO_nDONE	set	250
   352  0091                     _T2CKPS1	set	145
   353  0090                     _T2CKPS0	set	144
   354  00EA                     _CCP2M2	set	234
   355  00EB                     _CCP2M3	set	235
   356  0092                     _TMR2ON	set	146
   357  00BA                     _CCP1M2	set	186
   358  00BB                     _CCP1M3	set	187
   359  00EC                     _CCP2Y	set	236
   360  00ED                     _CCP2X	set	237
   361  00BC                     _CCP1Y	set	188
   362  00BD                     _CCP1X	set	189
   363  0089                     _TRISE	set	137
   364  0088                     _TRISD	set	136
   365  0087                     _TRISC	set	135
   366  0086                     _TRISB	set	134
   367  0085                     _TRISA	set	133
   368  009E                     _ADRESL	set	158
   369  009F                     _ADCON1	set	159
   370  0092                     _PR2	set	146
   371  0439                     _TRISC1	set	1081
   372  043A                     _TRISC2	set	1082
   373                           
   374                           	psect	cinit
   375  07F0                     start_initialization:	
   376                           ; #config settings
   377                           
   378  07F0                     __initialization:
   379                           
   380                           ; Clear objects allocated to BANK0
   381  07F0  1283               	bcf	3,5	;RP0=0, select bank0
   382  07F1  1303               	bcf	3,6	;RP1=0, select bank0
   383  07F2  01EF               	clrf	__pbssBANK0& (0+127)
   384                           
   385                           ; Clear objects allocated to BANK1
   386  07F3  1683               	bsf	3,5	;RP0=1, select bank1
   387  07F4  1303               	bcf	3,6	;RP1=0, select bank1
   388  07F5  01B2               	clrf	__pbssBANK1& (0+127)
   389  07F6  01B3               	clrf	(__pbssBANK1+1)& (0+127)
   390  07F7  01B4               	clrf	(__pbssBANK1+2)& (0+127)
   391  07F8  01B5               	clrf	(__pbssBANK1+3)& (0+127)
   392  07F9  01B6               	clrf	(__pbssBANK1+4)& (0+127)
   393  07FA  01B7               	clrf	(__pbssBANK1+5)& (0+127)
   394  07FB  01B8               	clrf	(__pbssBANK1+6)& (0+127)
   395  07FC                     end_of_initialization:	
   396                           ;End of C runtime variable initialization code
   397                           
   398  07FC                     __end_of__initialization:
   399  07FC  0183               	clrf	3
   400  07FD  120A  118A  28C9   	ljmp	_main	;jump to C main() function
   401                           
   402                           	psect	bssBANK0
   403  006F                     __pbssBANK0:
   404  006F                     controlarSetPoint@S1Atual:
   405  006F                     	ds	1
   406                           
   407                           	psect	bssBANK1
   408  00B2                     __pbssBANK1:
   409  00B2                     controlarSetPoint@S4Atual:
   410  00B2                     	ds	1
   411  00B3                     controlarSetPoint@S4Anterior:
   412  00B3                     	ds	1
   413  00B4                     controlarSetPoint@S3Atual:
   414  00B4                     	ds	1
   415  00B5                     controlarSetPoint@S3Anterior:
   416  00B5                     	ds	1
   417  00B6                     controlarSetPoint@S2Atual:
   418  00B6                     	ds	1
   419  00B7                     controlarSetPoint@S2Anterior:
   420  00B7                     	ds	1
   421  00B8                     controlarSetPoint@S1Anterior:
   422  00B8                     	ds	1
   423                           
   424                           	psect	cstackBANK1
   425  00A0                     __pcstackBANK1:
   426  00A0                     ?_PWM1_Duty:
   427  00A0                     ?_PWM2_Duty:	
   428                           ; 1 bytes @ 0x0
   429                           
   430  00A0                     PWM1_Duty@duty:	
   431                           ; 1 bytes @ 0x0
   432                           
   433  00A0                     PWM2_Duty@duty:	
   434                           ; 2 bytes @ 0x0
   435                           
   436                           
   437                           ; 2 bytes @ 0x0
   438  00A0                     	ds	2
   439  00A2                     PWM1_Duty@freq:
   440  00A2                     PWM2_Duty@freq:	
   441                           ; 2 bytes @ 0x2
   442                           
   443                           
   444                           ; 2 bytes @ 0x2
   445  00A2                     	ds	2
   446  00A4                     ??_PWM1_Duty:
   447  00A4                     ??_PWM2_Duty:	
   448                           ; 1 bytes @ 0x4
   449                           
   450                           
   451                           ; 1 bytes @ 0x4
   452  00A4                     	ds	2
   453  00A6                     ??_main:
   454                           
   455                           ; 1 bytes @ 0x6
   456  00A6                     	ds	2
   457  00A8                     main@erro:
   458                           
   459                           ; 2 bytes @ 0x8
   460  00A8                     	ds	2
   461  00AA                     main@temperatura:
   462                           
   463                           ; 2 bytes @ 0xA
   464  00AA                     	ds	2
   465  00AC                     main@cooler:
   466                           
   467                           ; 2 bytes @ 0xC
   468  00AC                     	ds	2
   469  00AE                     main@up:
   470                           
   471                           ; 2 bytes @ 0xE
   472  00AE                     	ds	2
   473  00B0                     main@setPoint:
   474                           
   475                           ; 2 bytes @ 0x10
   476  00B0                     	ds	2
   477                           
   478                           	psect	cstackCOMMON
   479  0070                     __pcstackCOMMON:
   480  0070                     ?_PWM1_Start:
   481  0070                     ??_PWM1_Start:	
   482                           ; 1 bytes @ 0x0
   483                           
   484  0070                     ?_PWM2_Start:	
   485                           ; 1 bytes @ 0x0
   486                           
   487  0070                     ??_PWM2_Start:	
   488                           ; 1 bytes @ 0x0
   489                           
   490  0070                     ?_ADC_Init:	
   491                           ; 1 bytes @ 0x0
   492                           
   493  0070                     ??_ADC_Init:	
   494                           ; 1 bytes @ 0x0
   495                           
   496  0070                     ?_main:	
   497                           ; 1 bytes @ 0x0
   498                           
   499  0070                     ?__Umul8_16:	
   500                           ; 1 bytes @ 0x0
   501                           
   502  0070                     ?_ADC_Read:	
   503                           ; 2 bytes @ 0x0
   504                           
   505  0070                     ?_controlarSetPoint:	
   506                           ; 2 bytes @ 0x0
   507                           
   508  0070                     ?_controleMaximoMinimo:	
   509                           ; 2 bytes @ 0x0
   510                           
   511  0070                     ?___awdiv:	
   512                           ; 2 bytes @ 0x0
   513                           
   514  0070                     ?___lwmod:	
   515                           ; 2 bytes @ 0x0
   516                           
   517  0070                     ?___aldiv:	
   518                           ; 2 bytes @ 0x0
   519                           
   520  0070                     __Umul8_16@multiplicand:	
   521                           ; 4 bytes @ 0x0
   522                           
   523  0070                     controlarSetPoint@setPoint:	
   524                           ; 1 bytes @ 0x0
   525                           
   526  0070                     controleMaximoMinimo@valor:	
   527                           ; 2 bytes @ 0x0
   528                           
   529  0070                     ___awdiv@divisor:	
   530                           ; 2 bytes @ 0x0
   531                           
   532  0070                     ___lwmod@divisor:	
   533                           ; 2 bytes @ 0x0
   534                           
   535  0070                     ___aldiv@divisor:	
   536                           ; 2 bytes @ 0x0
   537                           
   538                           
   539                           ; 4 bytes @ 0x0
   540  0070                     	ds	2
   541  0072                     ??__Umul8_16:
   542  0072                     ??_ADC_Read:	
   543                           ; 1 bytes @ 0x2
   544                           
   545  0072                     ??_controlarSetPoint:	
   546                           ; 1 bytes @ 0x2
   547                           
   548  0072                     ??_controleMaximoMinimo:	
   549                           ; 1 bytes @ 0x2
   550                           
   551  0072                     ___awdiv@dividend:	
   552                           ; 1 bytes @ 0x2
   553                           
   554  0072                     ___lwmod@dividend:	
   555                           ; 2 bytes @ 0x2
   556                           
   557                           
   558                           ; 2 bytes @ 0x2
   559  0072                     	ds	2
   560  0074                     ??___awdiv:
   561  0074                     ??___lwmod:	
   562                           ; 1 bytes @ 0x4
   563                           
   564  0074                     ADC_Read@channel:	
   565                           ; 1 bytes @ 0x4
   566                           
   567  0074                     __Umul8_16@product:	
   568                           ; 1 bytes @ 0x4
   569                           
   570  0074                     ___aldiv@dividend:	
   571                           ; 2 bytes @ 0x4
   572                           
   573                           
   574                           ; 4 bytes @ 0x4
   575  0074                     	ds	1
   576  0075                     ?___wmul:
   577  0075                     ___awdiv@counter:	
   578                           ; 2 bytes @ 0x5
   579                           
   580  0075                     ___lwmod@counter:	
   581                           ; 1 bytes @ 0x5
   582                           
   583  0075                     ___wmul@multiplier:	
   584                           ; 1 bytes @ 0x5
   585                           
   586                           
   587                           ; 2 bytes @ 0x5
   588  0075                     	ds	1
   589  0076                     ?___lwdiv:
   590  0076                     ___awdiv@sign:	
   591                           ; 2 bytes @ 0x6
   592                           
   593  0076                     ___lwdiv@divisor:	
   594                           ; 1 bytes @ 0x6
   595                           
   596  0076                     __Umul8_16@word_mpld:	
   597                           ; 2 bytes @ 0x6
   598                           
   599                           
   600                           ; 2 bytes @ 0x6
   601  0076                     	ds	1
   602  0077                     ___wmul@multiplicand:
   603  0077                     ___awdiv@quotient:	
   604                           ; 2 bytes @ 0x7
   605                           
   606                           
   607                           ; 2 bytes @ 0x7
   608  0077                     	ds	1
   609  0078                     ??___aldiv:
   610  0078                     __Umul8_16@multiplier:	
   611                           ; 1 bytes @ 0x8
   612                           
   613  0078                     ___lwdiv@dividend:	
   614                           ; 1 bytes @ 0x8
   615                           
   616                           
   617                           ; 2 bytes @ 0x8
   618  0078                     	ds	1
   619  0079                     ??_PWM_Init:
   620  0079                     ??___wmul:	
   621                           ; 1 bytes @ 0x9
   622                           
   623  0079                     ??___xxtofl:	
   624                           ; 1 bytes @ 0x9
   625                           
   626  0079                     ___wmul@product:	
   627                           ; 1 bytes @ 0x9
   628                           
   629                           
   630                           ; 2 bytes @ 0x9
   631  0079                     	ds	1
   632  007A                     ??___lwdiv:
   633                           
   634                           ; 1 bytes @ 0xA
   635  007A                     	ds	1
   636  007B                     ___lwdiv@quotient:
   637                           
   638                           ; 2 bytes @ 0xB
   639  007B                     	ds	2
   640  007D                     ___lwdiv@counter:
   641                           
   642                           ; 1 bytes @ 0xD
   643  007D                     	ds	1
   644                           
   645                           	psect	cstackBANK0
   646  0020                     __pcstackBANK0:
   647  0020                     ?_atualizaDisplay:
   648  0020                     ___aldiv@counter:	
   649                           ; 1 bytes @ 0x0
   650                           
   651  0020                     atualizaDisplay@tempSet:	
   652                           ; 1 bytes @ 0x0
   653                           
   654                           
   655                           ; 2 bytes @ 0x0
   656  0020                     	ds	1
   657  0021                     ___aldiv@sign:
   658                           
   659                           ; 1 bytes @ 0x1
   660  0021                     	ds	1
   661  0022                     ??_atualizaDisplay:
   662  0022                     ___aldiv@quotient:	
   663                           ; 1 bytes @ 0x2
   664                           
   665                           
   666                           ; 4 bytes @ 0x2
   667  0022                     	ds	2
   668  0024                     atualizaDisplay@milhar:
   669                           
   670                           ; 2 bytes @ 0x4
   671  0024                     	ds	2
   672  0026                     ?_PWM_Init:
   673  0026                     ?___xxtofl:	
   674                           ; 1 bytes @ 0x6
   675                           
   676  0026                     atualizaDisplay@centena:	
   677                           ; 4 bytes @ 0x6
   678                           
   679  0026                     PWM_Init@freq:	
   680                           ; 2 bytes @ 0x6
   681                           
   682  0026                     ___xxtofl@val:	
   683                           ; 4 bytes @ 0x6
   684                           
   685                           
   686                           ; 4 bytes @ 0x6
   687  0026                     	ds	2
   688  0028                     atualizaDisplay@dezena:
   689                           
   690                           ; 2 bytes @ 0x8
   691  0028                     	ds	2
   692  002A                     ___xxtofl@sign:
   693  002A                     atualizaDisplay@unidade:	
   694                           ; 1 bytes @ 0xA
   695                           
   696                           
   697                           ; 2 bytes @ 0xA
   698  002A                     	ds	1
   699  002B                     ___xxtofl@exp:
   700                           
   701                           ; 1 bytes @ 0xB
   702  002B                     	ds	1
   703  002C                     _atualizaDisplay$753:
   704  002C                     ___xxtofl@arg:	
   705                           ; 2 bytes @ 0xC
   706                           
   707                           
   708                           ; 4 bytes @ 0xC
   709  002C                     	ds	2
   710  002E                     _atualizaDisplay$752:
   711                           
   712                           ; 2 bytes @ 0xE
   713  002E                     	ds	2
   714  0030                     ?___fldiv:
   715  0030                     ___fldiv@a:	
   716                           ; 4 bytes @ 0x10
   717                           
   718                           
   719                           ; 4 bytes @ 0x10
   720  0030                     	ds	4
   721  0034                     ___fldiv@b:
   722                           
   723                           ; 4 bytes @ 0x14
   724  0034                     	ds	4
   725  0038                     ??___fldiv:
   726                           
   727                           ; 1 bytes @ 0x18
   728  0038                     	ds	5
   729  003D                     ___fldiv@rem:
   730                           
   731                           ; 4 bytes @ 0x1D
   732  003D                     	ds	4
   733  0041                     ___fldiv@sign:
   734                           
   735                           ; 1 bytes @ 0x21
   736  0041                     	ds	1
   737  0042                     ___fldiv@new_exp:
   738                           
   739                           ; 2 bytes @ 0x22
   740  0042                     	ds	2
   741  0044                     ___fldiv@grs:
   742                           
   743                           ; 4 bytes @ 0x24
   744  0044                     	ds	4
   745  0048                     ___fldiv@bexp:
   746                           
   747                           ; 1 bytes @ 0x28
   748  0048                     	ds	1
   749  0049                     ___fldiv@aexp:
   750                           
   751                           ; 1 bytes @ 0x29
   752  0049                     	ds	1
   753  004A                     ?___flmul:
   754  004A                     ___flmul@b:	
   755                           ; 4 bytes @ 0x2A
   756                           
   757                           
   758                           ; 4 bytes @ 0x2A
   759  004A                     	ds	4
   760  004E                     ___flmul@a:
   761                           
   762                           ; 4 bytes @ 0x2E
   763  004E                     	ds	4
   764  0052                     ??___flmul:
   765                           
   766                           ; 1 bytes @ 0x32
   767  0052                     	ds	5
   768  0057                     ___flmul@sign:
   769                           
   770                           ; 1 bytes @ 0x37
   771  0057                     	ds	1
   772  0058                     ___flmul@grs:
   773                           
   774                           ; 4 bytes @ 0x38
   775  0058                     	ds	4
   776  005C                     ___flmul@aexp:
   777                           
   778                           ; 1 bytes @ 0x3C
   779  005C                     	ds	1
   780  005D                     ___flmul@bexp:
   781                           
   782                           ; 1 bytes @ 0x3D
   783  005D                     	ds	1
   784  005E                     ___flmul@prod:
   785                           
   786                           ; 4 bytes @ 0x3E
   787  005E                     	ds	4
   788  0062                     ___flmul@temp:
   789                           
   790                           ; 2 bytes @ 0x42
   791  0062                     	ds	2
   792  0064                     ?___fltol:
   793  0064                     ___fltol@f1:	
   794                           ; 4 bytes @ 0x44
   795                           
   796                           
   797                           ; 4 bytes @ 0x44
   798  0064                     	ds	4
   799  0068                     ??___fltol:
   800                           
   801                           ; 1 bytes @ 0x48
   802  0068                     	ds	5
   803  006D                     ___fltol@sign1:
   804                           
   805                           ; 1 bytes @ 0x4D
   806  006D                     	ds	1
   807  006E                     ___fltol@exp1:
   808                           
   809                           ; 1 bytes @ 0x4E
   810  006E                     	ds	1
   811                           
   812                           	psect	maintext
   813  00C9                     __pmaintext:	
   814 ;;
   815 ;;Main: autosize = 0, tempsize = 2, incstack = 0, save=0
   816 ;;
   817 ;; *************** function _main *****************
   818 ;; Defined at:
   819 ;;		line 111 in file "main.c"
   820 ;; Parameters:    Size  Location     Type
   821 ;;		None
   822 ;; Auto vars:     Size  Location     Type
   823 ;;  up              2   14[BANK1 ] int 
   824 ;;  kp              2    0        int 
   825 ;;  erro            2    8[BANK1 ] int 
   826 ;;  setPoint        2   16[BANK1 ] int 
   827 ;;  cooler          2   12[BANK1 ] int 
   828 ;;  temperatura     2   10[BANK1 ] int 
   829 ;; Return value:  Size  Location     Type
   830 ;;                  1    wreg      void 
   831 ;; Registers used:
   832 ;;		wreg, fsr0l, fsr0h, status,2, status,0, btemp+1, pclath, cstack
   833 ;; Tracked objects:
   834 ;;		On entry : B00/0
   835 ;;		On exit  : 0/0
   836 ;;		Unchanged: 0/0
   837 ;; Data sizes:     COMMON   BANK0   BANK1   BANK3   BANK2
   838 ;;      Params:         0       0       0       0       0
   839 ;;      Locals:         0       0      10       0       0
   840 ;;      Temps:          0       0       2       0       0
   841 ;;      Totals:         0       0      12       0       0
   842 ;;Total ram usage:       12 bytes
   843 ;; Hardware stack levels required when called: 3
   844 ;; This function calls:
   845 ;;		_ADC_Init
   846 ;;		_ADC_Read
   847 ;;		_PWM1_Duty
   848 ;;		_PWM1_Start
   849 ;;		_PWM2_Duty
   850 ;;		_PWM2_Start
   851 ;;		___awdiv
   852 ;;		___wmul
   853 ;;		_atualizaDisplay
   854 ;;		_controlarSetPoint
   855 ;;		_controleMaximoMinimo
   856 ;; This function is called by:
   857 ;;		Startup code after reset
   858 ;; This function uses a non-reentrant model
   859 ;;
   860                           
   861                           
   862                           ;psect for function _main
   863  00C9                     _main:
   864  00C9                     l2100:	
   865                           ;incstack = 0
   866                           ; Regs used in _main: [wreg-fsr0h+status,2+status,0+btemp+1+pclath+cstack]
   867                           
   868                           
   869                           ;main.c: 112:     TRISA = 0xFF;
   870  00C9  30FF               	movlw	255
   871  00CA  1683               	bsf	3,5	;RP0=1, select bank1
   872  00CB  1303               	bcf	3,6	;RP1=0, select bank1
   873  00CC  0085               	movwf	5	;volatile
   874                           
   875                           ;main.c: 113:     TRISB = 0x0F;
   876  00CD  300F               	movlw	15
   877  00CE  0086               	movwf	6	;volatile
   878  00CF                     l2102:
   879                           
   880                           ;main.c: 114:     TRISC = 0x00;
   881  00CF  0187               	clrf	7	;volatile
   882  00D0                     l2104:
   883                           
   884                           ;main.c: 115:     TRISD = 0x00;
   885  00D0  0188               	clrf	8	;volatile
   886  00D1                     l2106:
   887                           
   888                           ;main.c: 116:     TRISE = 0x00;
   889  00D1  0189               	clrf	9	;volatile
   890  00D2                     l2108:
   891                           
   892                           ;main.c: 117:     int temperatura;;main.c: 118:     int cooler;;main.c: 119:     int set
      +                          Point = 4200;
   893  00D2  3068               	movlw	104
   894  00D3  00B0               	movwf	main@setPoint^(0+128)
   895  00D4  3010               	movlw	16
   896  00D5  00B1               	movwf	(main@setPoint^(0+128)+1)
   897  00D6                     l2110:
   898                           
   899                           ;main.c: 121:     ADC_Init();
   900  00D6  120A  158A  231B  120A  118A  	fcall	_ADC_Init
   901  00DB                     l2112:
   902                           
   903                           ;main.c: 122:     PWM1_Start();
   904  00DB  120A  118A  2004  120A  118A  	fcall	_PWM1_Start
   905  00E0                     l2114:
   906                           
   907                           ;main.c: 123:     PWM2_Start();
   908  00E0  120A  158A  2324  120A  118A  	fcall	_PWM2_Start
   909  00E5                     l2116:
   910                           
   911                           ;main.c: 126:         setPoint = controlarSetPoint(setPoint);
   912  00E5  1683               	bsf	3,5	;RP0=1, select bank1
   913  00E6  1303               	bcf	3,6	;RP1=0, select bank1
   914  00E7  0831               	movf	(main@setPoint+1)^(0+128),w
   915  00E8  00F1               	movwf	controlarSetPoint@setPoint+1
   916  00E9  0830               	movf	main@setPoint^(0+128),w
   917  00EA  00F0               	movwf	controlarSetPoint@setPoint
   918  00EB  120A  158A  24E3  120A  118A  	fcall	_controlarSetPoint
   919  00F0  0871               	movf	?_controlarSetPoint+1,w
   920  00F1  1683               	bsf	3,5	;RP0=1, select bank1
   921  00F2  1303               	bcf	3,6	;RP1=0, select bank1
   922  00F3  00B1               	movwf	(main@setPoint+1)^(0+128)
   923  00F4  0870               	movf	?_controlarSetPoint,w
   924  00F5  00B0               	movwf	main@setPoint^(0+128)
   925  00F6                     l2118:
   926                           
   927                           ;main.c: 127:         temperatura = (ADC_Read(0)*10/8 - 150);
   928  00F6  3000               	movlw	0
   929  00F7  120A  158A  2393  120A  118A  	fcall	_ADC_Read
   930  00FC  0871               	movf	?_ADC_Read+1,w
   931  00FD  00F6               	movwf	___wmul@multiplier+1
   932  00FE  0870               	movf	?_ADC_Read,w
   933  00FF  00F5               	movwf	___wmul@multiplier
   934  0100  300A               	movlw	10
   935  0101  00F7               	movwf	___wmul@multiplicand
   936  0102  3000               	movlw	0
   937  0103  00F8               	movwf	___wmul@multiplicand+1
   938  0104  120A  158A  2347  120A  118A  	fcall	___wmul
   939  0109  0875               	movf	?___wmul,w
   940  010A  1683               	bsf	3,5	;RP0=1, select bank1
   941  010B  1303               	bcf	3,6	;RP1=0, select bank1
   942  010C  00A6               	movwf	??_main^(0+128)
   943  010D  0876               	movf	?___wmul+1,w
   944  010E  00A7               	movwf	(??_main^(0+128)+1)
   945  010F  1003               	clrc
   946  0110  0CA7               	rrf	(??_main^(0+128)+1),f
   947  0111  0CA6               	rrf	??_main^(0+128),f
   948  0112  1003               	clrc
   949  0113  0CA7               	rrf	(??_main^(0+128)+1),f
   950  0114  0CA6               	rrf	??_main^(0+128),f
   951  0115  1003               	clrc
   952  0116  0CA7               	rrf	(??_main^(0+128)+1),f
   953  0117  0CA6               	rrf	??_main^(0+128),f
   954  0118  0826               	movf	??_main^(0+128),w
   955  0119  3E6A               	addlw	106
   956  011A  00AA               	movwf	main@temperatura^(0+128)
   957  011B  0827               	movf	(??_main+1)^(0+128),w
   958  011C  1803               	skipnc
   959  011D  3E01               	addlw	1
   960  011E  3EFF               	addlw	255
   961  011F  00AB               	movwf	(main@temperatura+1)^(0+128)
   962  0120                     l2120:
   963                           
   964                           ;main.c: 128:         cooler = (unsigned int)ADC_Read(1);
   965  0120  3001               	movlw	1
   966  0121  120A  158A  2393  120A  118A  	fcall	_ADC_Read
   967  0126  0871               	movf	?_ADC_Read+1,w
   968  0127  1683               	bsf	3,5	;RP0=1, select bank1
   969  0128  1303               	bcf	3,6	;RP1=0, select bank1
   970  0129  00AD               	movwf	(main@cooler+1)^(0+128)
   971  012A  0870               	movf	?_ADC_Read,w
   972  012B  00AC               	movwf	main@cooler^(0+128)
   973  012C                     l2122:
   974                           
   975                           ;main.c: 129:         int erro = (setPoint/10) - temperatura;
   976  012C  300A               	movlw	10
   977  012D  00F0               	movwf	___awdiv@divisor
   978  012E  3000               	movlw	0
   979  012F  00F1               	movwf	___awdiv@divisor+1
   980  0130  0831               	movf	(main@setPoint+1)^(0+128),w
   981  0131  00F3               	movwf	___awdiv@dividend+1
   982  0132  0830               	movf	main@setPoint^(0+128),w
   983  0133  00F2               	movwf	___awdiv@dividend
   984  0134  120A  158A  247C  120A  118A  	fcall	___awdiv
   985  0139  1683               	bsf	3,5	;RP0=1, select bank1
   986  013A  1303               	bcf	3,6	;RP1=0, select bank1
   987  013B  082A               	movf	main@temperatura^(0+128),w
   988  013C  0270               	subwf	?___awdiv,w
   989  013D  00A8               	movwf	main@erro^(0+128)
   990  013E  082B               	movf	(main@temperatura+1)^(0+128),w
   991  013F  1C03               	skipc
   992  0140  0A2B               	incf	(main@temperatura+1)^(0+128),w
   993  0141  0271               	subwf	?___awdiv+1,w
   994  0142  00A9               	movwf	(main@erro+1)^(0+128)
   995  0143                     l2124:
   996  0143                     l2126:
   997                           
   998                           ;main.c: 131:         int up = kp * erro;
   999  0143  3064               	movlw	100
  1000  0144  00F5               	movwf	___wmul@multiplier
  1001  0145  3000               	movlw	0
  1002  0146  00F6               	movwf	___wmul@multiplier+1
  1003  0147  0829               	movf	(main@erro+1)^(0+128),w
  1004  0148  00F8               	movwf	___wmul@multiplicand+1
  1005  0149  0828               	movf	main@erro^(0+128),w
  1006  014A  00F7               	movwf	___wmul@multiplicand
  1007  014B  120A  158A  2347  120A  118A  	fcall	___wmul
  1008  0150  0876               	movf	?___wmul+1,w
  1009  0151  1683               	bsf	3,5	;RP0=1, select bank1
  1010  0152  1303               	bcf	3,6	;RP1=0, select bank1
  1011  0153  00AF               	movwf	(main@up+1)^(0+128)
  1012  0154  0875               	movf	?___wmul,w
  1013  0155  00AE               	movwf	main@up^(0+128)
  1014  0156                     l2128:
  1015                           
  1016                           ;main.c: 133:         cooler = controleMaximoMinimo(cooler);
  1017  0156  082D               	movf	(main@cooler+1)^(0+128),w
  1018  0157  00F1               	movwf	controleMaximoMinimo@valor+1
  1019  0158  082C               	movf	main@cooler^(0+128),w
  1020  0159  00F0               	movwf	controleMaximoMinimo@valor
  1021  015A  120A  158A  232F  120A  118A  	fcall	_controleMaximoMinimo
  1022  015F  0871               	movf	?_controleMaximoMinimo+1,w
  1023  0160  1683               	bsf	3,5	;RP0=1, select bank1
  1024  0161  1303               	bcf	3,6	;RP1=0, select bank1
  1025  0162  00AD               	movwf	(main@cooler+1)^(0+128)
  1026  0163  0870               	movf	?_controleMaximoMinimo,w
  1027  0164  00AC               	movwf	main@cooler^(0+128)
  1028  0165                     l2130:
  1029                           
  1030                           ;main.c: 134:         temperatura = controleMaximoMinimo(temperatura);
  1031  0165  082B               	movf	(main@temperatura+1)^(0+128),w
  1032  0166  00F1               	movwf	controleMaximoMinimo@valor+1
  1033  0167  082A               	movf	main@temperatura^(0+128),w
  1034  0168  00F0               	movwf	controleMaximoMinimo@valor
  1035  0169  120A  158A  232F  120A  118A  	fcall	_controleMaximoMinimo
  1036  016E  0871               	movf	?_controleMaximoMinimo+1,w
  1037  016F  1683               	bsf	3,5	;RP0=1, select bank1
  1038  0170  1303               	bcf	3,6	;RP1=0, select bank1
  1039  0171  00AB               	movwf	(main@temperatura+1)^(0+128)
  1040  0172  0870               	movf	?_controleMaximoMinimo,w
  1041  0173  00AA               	movwf	main@temperatura^(0+128)
  1042  0174                     l2132:
  1043                           
  1044                           ;main.c: 135:         up = controleMaximoMinimo(up);
  1045  0174  082F               	movf	(main@up+1)^(0+128),w
  1046  0175  00F1               	movwf	controleMaximoMinimo@valor+1
  1047  0176  082E               	movf	main@up^(0+128),w
  1048  0177  00F0               	movwf	controleMaximoMinimo@valor
  1049  0178  120A  158A  232F  120A  118A  	fcall	_controleMaximoMinimo
  1050  017D  0871               	movf	?_controleMaximoMinimo+1,w
  1051  017E  1683               	bsf	3,5	;RP0=1, select bank1
  1052  017F  1303               	bcf	3,6	;RP1=0, select bank1
  1053  0180  00AF               	movwf	(main@up+1)^(0+128)
  1054  0181  0870               	movf	?_controleMaximoMinimo,w
  1055  0182  00AE               	movwf	main@up^(0+128)
  1056  0183                     l2134:
  1057                           
  1058                           ;main.c: 137:         PWM1_Duty(up, 4000);
  1059  0183  082F               	movf	(main@up+1)^(0+128),w
  1060  0184  00A1               	movwf	(PWM1_Duty@duty+1)^(0+128)
  1061  0185  082E               	movf	main@up^(0+128),w
  1062  0186  00A0               	movwf	PWM1_Duty@duty^(0+128)
  1063  0187  30A0               	movlw	160
  1064  0188  00A2               	movwf	PWM1_Duty@freq^(0+128)
  1065  0189  300F               	movlw	15
  1066  018A  00A3               	movwf	(PWM1_Duty@freq^(0+128)+1)
  1067  018B  120A  158A  2670  120A  118A  	fcall	_PWM1_Duty
  1068  0190                     l2136:
  1069                           
  1070                           ;main.c: 138:         PWM2_Duty(cooler, 4000);
  1071  0190  1683               	bsf	3,5	;RP0=1, select bank1
  1072  0191  1303               	bcf	3,6	;RP1=0, select bank1
  1073  0192  082D               	movf	(main@cooler+1)^(0+128),w
  1074  0193  00A1               	movwf	(PWM2_Duty@duty+1)^(0+128)
  1075  0194  082C               	movf	main@cooler^(0+128),w
  1076  0195  00A0               	movwf	PWM2_Duty@duty^(0+128)
  1077  0196  30A0               	movlw	160
  1078  0197  00A2               	movwf	PWM2_Duty@freq^(0+128)
  1079  0198  300F               	movlw	15
  1080  0199  00A3               	movwf	(PWM2_Duty@freq^(0+128)+1)
  1081  019A  120A  158A  2738  120A  118A  	fcall	_PWM2_Duty
  1082  019F                     l2138:
  1083                           
  1084                           ;main.c: 139:         atualizaDisplay(setPoint);
  1085  019F  1683               	bsf	3,5	;RP0=1, select bank1
  1086  01A0  1303               	bcf	3,6	;RP1=0, select bank1
  1087  01A1  0831               	movf	(main@setPoint+1)^(0+128),w
  1088  01A2  1283               	bcf	3,5	;RP0=0, select bank0
  1089  01A3  1303               	bcf	3,6	;RP1=0, select bank0
  1090  01A4  00A1               	movwf	atualizaDisplay@tempSet+1
  1091  01A5  1683               	bsf	3,5	;RP0=1, select bank1
  1092  01A6  1303               	bcf	3,6	;RP1=0, select bank1
  1093  01A7  0830               	movf	main@setPoint^(0+128),w
  1094  01A8  1283               	bcf	3,5	;RP0=0, select bank0
  1095  01A9  1303               	bcf	3,6	;RP1=0, select bank0
  1096  01AA  00A0               	movwf	atualizaDisplay@tempSet
  1097  01AB  120A  118A  21B4  120A  118A  	fcall	_atualizaDisplay
  1098  01B0  28E5               	goto	l2116
  1099  01B1  120A  118A  2800   	ljmp	start
  1100  01B4                     __end_of_main:
  1101                           
  1102                           	psect	text1
  1103  0B2F                     __ptext1:	
  1104 ;; *************** function _controleMaximoMinimo *****************
  1105 ;; Defined at:
  1106 ;;		line 99 in file "main.c"
  1107 ;; Parameters:    Size  Location     Type
  1108 ;;  valor           2    0[COMMON] int 
  1109 ;; Auto vars:     Size  Location     Type
  1110 ;;		None
  1111 ;; Return value:  Size  Location     Type
  1112 ;;                  2    0[COMMON] int 
  1113 ;; Registers used:
  1114 ;;		wreg, status,2, btemp+1
  1115 ;; Tracked objects:
  1116 ;;		On entry : 0/0
  1117 ;;		On exit  : 0/0
  1118 ;;		Unchanged: 0/0
  1119 ;; Data sizes:     COMMON   BANK0   BANK1   BANK3   BANK2
  1120 ;;      Params:         2       0       0       0       0
  1121 ;;      Locals:         0       0       0       0       0
  1122 ;;      Temps:          0       0       0       0       0
  1123 ;;      Totals:         2       0       0       0       0
  1124 ;;Total ram usage:        2 bytes
  1125 ;; Hardware stack levels used: 1
  1126 ;; This function calls:
  1127 ;;		Nothing
  1128 ;; This function is called by:
  1129 ;;		_main
  1130 ;; This function uses a non-reentrant model
  1131 ;;
  1132                           
  1133                           
  1134                           ;psect for function _controleMaximoMinimo
  1135  0B2F                     _controleMaximoMinimo:
  1136  0B2F                     l2030:	
  1137                           ;incstack = 0
  1138                           ; Regs used in _controleMaximoMinimo: [wreg+status,2+btemp+1]
  1139                           
  1140                           
  1141                           ;main.c: 100:     if (valor < 0){
  1142  0B2F  1FF1               	btfss	controleMaximoMinimo@valor+1,7
  1143  0B30  2B32               	goto	u2911
  1144  0B31  2B33               	goto	u2910
  1145  0B32                     u2911:
  1146  0B32  2B35               	goto	l2034
  1147  0B33                     u2910:
  1148  0B33                     l2032:
  1149                           
  1150                           ;main.c: 101:         valor = 0;
  1151  0B33  01F0               	clrf	controleMaximoMinimo@valor
  1152  0B34  01F1               	clrf	controleMaximoMinimo@valor+1
  1153  0B35                     l2034:
  1154                           
  1155                           ;main.c: 104:     if (valor > 1023){
  1156  0B35  0871               	movf	controleMaximoMinimo@valor+1,w
  1157  0B36  3A80               	xorlw	128
  1158  0B37  00FF               	movwf	btemp+1
  1159  0B38  3084               	movlw	132
  1160  0B39  027F               	subwf	btemp+1,w
  1161  0B3A  1D03               	skipz
  1162  0B3B  2B3E               	goto	u2925
  1163  0B3C  3000               	movlw	0
  1164  0B3D  0270               	subwf	controleMaximoMinimo@valor,w
  1165  0B3E                     u2925:
  1166  0B3E  1C03               	skipc
  1167  0B3F  2B41               	goto	u2921
  1168  0B40  2B42               	goto	u2920
  1169  0B41                     u2921:
  1170  0B41  2B46               	goto	l2038
  1171  0B42                     u2920:
  1172  0B42                     l2036:
  1173                           
  1174                           ;main.c: 105:         valor = 1023;
  1175  0B42  30FF               	movlw	255
  1176  0B43  00F0               	movwf	controleMaximoMinimo@valor
  1177  0B44  3003               	movlw	3
  1178  0B45  00F1               	movwf	controleMaximoMinimo@valor+1
  1179  0B46                     l2038:
  1180  0B46                     l152:	
  1181                           ;main.c: 108:     return valor;
  1182                           
  1183  0B46  0008               	return
  1184  0B47                     __end_of_controleMaximoMinimo:
  1185                           
  1186                           	psect	text2
  1187  0CE3                     __ptext2:	
  1188 ;; *************** function _controlarSetPoint *****************
  1189 ;; Defined at:
  1190 ;;		line 57 in file "main.c"
  1191 ;; Parameters:    Size  Location     Type
  1192 ;;  setPoint        2    0[COMMON] int 
  1193 ;; Auto vars:     Size  Location     Type
  1194 ;;		None
  1195 ;; Return value:  Size  Location     Type
  1196 ;;                  2    0[COMMON] int 
  1197 ;; Registers used:
  1198 ;;		wreg, status,2, status,0
  1199 ;; Tracked objects:
  1200 ;;		On entry : 0/0
  1201 ;;		On exit  : 0/0
  1202 ;;		Unchanged: 0/0
  1203 ;; Data sizes:     COMMON   BANK0   BANK1   BANK3   BANK2
  1204 ;;      Params:         2       0       0       0       0
  1205 ;;      Locals:         0       0       0       0       0
  1206 ;;      Temps:          1       0       0       0       0
  1207 ;;      Totals:         3       0       0       0       0
  1208 ;;Total ram usage:        3 bytes
  1209 ;; Hardware stack levels used: 1
  1210 ;; This function calls:
  1211 ;;		Nothing
  1212 ;; This function is called by:
  1213 ;;		_main
  1214 ;; This function uses a non-reentrant model
  1215 ;;
  1216                           
  1217                           
  1218                           ;psect for function _controlarSetPoint
  1219  0CE3                     _controlarSetPoint:
  1220  0CE3                     l1994:	
  1221                           ;incstack = 0
  1222                           ; Regs used in _controlarSetPoint: [wreg+status,2+status,0]
  1223                           
  1224                           
  1225                           ;main.c: 58:     static char S1Anterior;;main.c: 59:     static char S1Atual;;main.c: 60
      +                          :     static char S2Anterior;;main.c: 61:     static char S2Atual;;main.c: 62:     stati
      +                          c char S3Anterior;;main.c: 63:     static char S3Atual;;main.c: 64:     static char S4An
      +                          terior;;main.c: 65:     static char S4Atual;;main.c: 67:     S1Atual = RB0;
  1226  0CE3  3000               	movlw	0
  1227  0CE4  1283               	bcf	3,5	;RP0=0, select bank0
  1228  0CE5  1303               	bcf	3,6	;RP1=0, select bank0
  1229  0CE6  1806               	btfsc	6,0	;volatile
  1230  0CE7  3001               	movlw	1
  1231  0CE8  00EF               	movwf	controlarSetPoint@S1Atual
  1232  0CE9                     l1996:
  1233                           
  1234                           ;main.c: 69:     if((S1Atual)&&(!S1Anterior)){
  1235  0CE9  086F               	movf	controlarSetPoint@S1Atual,w
  1236  0CEA  1903               	btfsc	3,2
  1237  0CEB  2CED               	goto	u2831
  1238  0CEC  2CEE               	goto	u2830
  1239  0CED                     u2831:
  1240  0CED  2CFB               	goto	l143
  1241  0CEE                     u2830:
  1242  0CEE                     l1998:
  1243  0CEE  1683               	bsf	3,5	;RP0=1, select bank1
  1244  0CEF  1303               	bcf	3,6	;RP1=0, select bank1
  1245  0CF0  0838               	movf	controlarSetPoint@S1Anterior^(0+128),w
  1246  0CF1  1D03               	btfss	3,2
  1247  0CF2  2CF4               	goto	u2841
  1248  0CF3  2CF5               	goto	u2840
  1249  0CF4                     u2841:
  1250  0CF4  2CFB               	goto	l143
  1251  0CF5                     u2840:
  1252  0CF5                     l2000:
  1253                           
  1254                           ;main.c: 70:         setPoint += 100;
  1255  0CF5  3064               	movlw	100
  1256  0CF6  07F0               	addwf	controlarSetPoint@setPoint,f
  1257  0CF7  1803               	skipnc
  1258  0CF8  0AF1               	incf	controlarSetPoint@setPoint+1,f
  1259  0CF9  3000               	movlw	0
  1260  0CFA  07F1               	addwf	controlarSetPoint@setPoint+1,f
  1261  0CFB                     l143:	
  1262                           ;main.c: 71:     }
  1263                           
  1264                           
  1265                           ;main.c: 73:     S1Anterior = S1Atual;
  1266  0CFB  1283               	bcf	3,5	;RP0=0, select bank0
  1267  0CFC  086F               	movf	controlarSetPoint@S1Atual,w
  1268  0CFD  00F2               	movwf	??_controlarSetPoint
  1269  0CFE  0872               	movf	??_controlarSetPoint,w
  1270  0CFF  1683               	bsf	3,5	;RP0=1, select bank1
  1271  0D00  1303               	bcf	3,6	;RP1=0, select bank1
  1272  0D01  00B8               	movwf	controlarSetPoint@S1Anterior^(0+128)
  1273  0D02                     l2002:
  1274                           
  1275                           ;main.c: 74:     S2Atual = RB1;
  1276  0D02  3000               	movlw	0
  1277  0D03  1283               	bcf	3,5	;RP0=0, select bank0
  1278  0D04  1303               	bcf	3,6	;RP1=0, select bank0
  1279  0D05  1886               	btfsc	6,1	;volatile
  1280  0D06  3001               	movlw	1
  1281  0D07  1683               	bsf	3,5	;RP0=1, select bank1
  1282  0D08  1303               	bcf	3,6	;RP1=0, select bank1
  1283  0D09  00B6               	movwf	controlarSetPoint@S2Atual^(0+128)
  1284  0D0A                     l2004:
  1285                           
  1286                           ;main.c: 76:     if((S2Atual)&&(!S2Anterior)){
  1287  0D0A  0836               	movf	controlarSetPoint@S2Atual^(0+128),w
  1288  0D0B  1903               	btfsc	3,2
  1289  0D0C  2D0E               	goto	u2851
  1290  0D0D  2D0F               	goto	u2850
  1291  0D0E                     u2851:
  1292  0D0E  2D1A               	goto	l144
  1293  0D0F                     u2850:
  1294  0D0F                     l2006:
  1295  0D0F  0837               	movf	controlarSetPoint@S2Anterior^(0+128),w
  1296  0D10  1D03               	btfss	3,2
  1297  0D11  2D13               	goto	u2861
  1298  0D12  2D14               	goto	u2860
  1299  0D13                     u2861:
  1300  0D13  2D1A               	goto	l144
  1301  0D14                     u2860:
  1302  0D14                     l2008:
  1303                           
  1304                           ;main.c: 77:         setPoint -= 100;
  1305  0D14  309C               	movlw	156
  1306  0D15  07F0               	addwf	controlarSetPoint@setPoint,f
  1307  0D16  1803               	skipnc
  1308  0D17  0AF1               	incf	controlarSetPoint@setPoint+1,f
  1309  0D18  30FF               	movlw	255
  1310  0D19  07F1               	addwf	controlarSetPoint@setPoint+1,f
  1311  0D1A                     l144:	
  1312                           ;main.c: 78:     }
  1313                           
  1314                           
  1315                           ;main.c: 80:     S2Anterior = S2Atual;
  1316  0D1A  0836               	movf	controlarSetPoint@S2Atual^(0+128),w
  1317  0D1B  00F2               	movwf	??_controlarSetPoint
  1318  0D1C  0872               	movf	??_controlarSetPoint,w
  1319  0D1D  00B7               	movwf	controlarSetPoint@S2Anterior^(0+128)
  1320  0D1E                     l2010:
  1321                           
  1322                           ;main.c: 81:     S3Atual = RB2;
  1323  0D1E  3000               	movlw	0
  1324  0D1F  1283               	bcf	3,5	;RP0=0, select bank0
  1325  0D20  1303               	bcf	3,6	;RP1=0, select bank0
  1326  0D21  1906               	btfsc	6,2	;volatile
  1327  0D22  3001               	movlw	1
  1328  0D23  1683               	bsf	3,5	;RP0=1, select bank1
  1329  0D24  1303               	bcf	3,6	;RP1=0, select bank1
  1330  0D25  00B4               	movwf	controlarSetPoint@S3Atual^(0+128)
  1331  0D26                     l2012:
  1332                           
  1333                           ;main.c: 83:     if((S3Atual)&&(!S3Anterior)){
  1334  0D26  0834               	movf	controlarSetPoint@S3Atual^(0+128),w
  1335  0D27  1903               	btfsc	3,2
  1336  0D28  2D2A               	goto	u2871
  1337  0D29  2D2B               	goto	u2870
  1338  0D2A                     u2871:
  1339  0D2A  2D36               	goto	l145
  1340  0D2B                     u2870:
  1341  0D2B                     l2014:
  1342  0D2B  0835               	movf	controlarSetPoint@S3Anterior^(0+128),w
  1343  0D2C  1D03               	btfss	3,2
  1344  0D2D  2D2F               	goto	u2881
  1345  0D2E  2D30               	goto	u2880
  1346  0D2F                     u2881:
  1347  0D2F  2D36               	goto	l145
  1348  0D30                     u2880:
  1349  0D30                     l2016:
  1350                           
  1351                           ;main.c: 84:         setPoint += 10;
  1352  0D30  300A               	movlw	10
  1353  0D31  07F0               	addwf	controlarSetPoint@setPoint,f
  1354  0D32  1803               	skipnc
  1355  0D33  0AF1               	incf	controlarSetPoint@setPoint+1,f
  1356  0D34  3000               	movlw	0
  1357  0D35  07F1               	addwf	controlarSetPoint@setPoint+1,f
  1358  0D36                     l145:	
  1359                           ;main.c: 85:     }
  1360                           
  1361                           
  1362                           ;main.c: 87:     S3Anterior = S3Atual;
  1363  0D36  0834               	movf	controlarSetPoint@S3Atual^(0+128),w
  1364  0D37  00F2               	movwf	??_controlarSetPoint
  1365  0D38  0872               	movf	??_controlarSetPoint,w
  1366  0D39  00B5               	movwf	controlarSetPoint@S3Anterior^(0+128)
  1367  0D3A                     l2018:
  1368                           
  1369                           ;main.c: 88:     S4Atual = RB3;
  1370  0D3A  3000               	movlw	0
  1371  0D3B  1283               	bcf	3,5	;RP0=0, select bank0
  1372  0D3C  1303               	bcf	3,6	;RP1=0, select bank0
  1373  0D3D  1986               	btfsc	6,3	;volatile
  1374  0D3E  3001               	movlw	1
  1375  0D3F  1683               	bsf	3,5	;RP0=1, select bank1
  1376  0D40  1303               	bcf	3,6	;RP1=0, select bank1
  1377  0D41  00B2               	movwf	controlarSetPoint@S4Atual^(0+128)
  1378  0D42                     l2020:
  1379                           
  1380                           ;main.c: 90:     if((S4Atual)&&(!S4Anterior)){
  1381  0D42  0832               	movf	controlarSetPoint@S4Atual^(0+128),w
  1382  0D43  1903               	btfsc	3,2
  1383  0D44  2D46               	goto	u2891
  1384  0D45  2D47               	goto	u2890
  1385  0D46                     u2891:
  1386  0D46  2D52               	goto	l146
  1387  0D47                     u2890:
  1388  0D47                     l2022:
  1389  0D47  0833               	movf	controlarSetPoint@S4Anterior^(0+128),w
  1390  0D48  1D03               	btfss	3,2
  1391  0D49  2D4B               	goto	u2901
  1392  0D4A  2D4C               	goto	u2900
  1393  0D4B                     u2901:
  1394  0D4B  2D52               	goto	l146
  1395  0D4C                     u2900:
  1396  0D4C                     l2024:
  1397                           
  1398                           ;main.c: 91:         setPoint -= 10;
  1399  0D4C  30F6               	movlw	246
  1400  0D4D  07F0               	addwf	controlarSetPoint@setPoint,f
  1401  0D4E  1803               	skipnc
  1402  0D4F  0AF1               	incf	controlarSetPoint@setPoint+1,f
  1403  0D50  30FF               	movlw	255
  1404  0D51  07F1               	addwf	controlarSetPoint@setPoint+1,f
  1405  0D52                     l146:	
  1406                           ;main.c: 92:     }
  1407                           
  1408                           
  1409                           ;main.c: 94:     S4Anterior = S4Atual;
  1410  0D52  0832               	movf	controlarSetPoint@S4Atual^(0+128),w
  1411  0D53  00F2               	movwf	??_controlarSetPoint
  1412  0D54  0872               	movf	??_controlarSetPoint,w
  1413  0D55  00B3               	movwf	controlarSetPoint@S4Anterior^(0+128)
  1414  0D56                     l2026:
  1415  0D56                     l147:	
  1416                           ;main.c: 96:     return setPoint;
  1417                           
  1418  0D56  0008               	return
  1419  0D57                     __end_of_controlarSetPoint:
  1420                           
  1421                           	psect	text3
  1422  01B4                     __ptext3:	
  1423 ;; *************** function _atualizaDisplay *****************
  1424 ;; Defined at:
  1425 ;;		line 34 in file "main.c"
  1426 ;; Parameters:    Size  Location     Type
  1427 ;;  tempSet         2    0[BANK0 ] unsigned int 
  1428 ;; Auto vars:     Size  Location     Type
  1429 ;;  unidade         2   10[BANK0 ] int 
  1430 ;;  dezena          2    8[BANK0 ] int 
  1431 ;;  centena         2    6[BANK0 ] int 
  1432 ;;  milhar          2    4[BANK0 ] int 
  1433 ;; Return value:  Size  Location     Type
  1434 ;;                  1    wreg      void 
  1435 ;; Registers used:
  1436 ;;		wreg, fsr0l, fsr0h, status,2, status,0, pclath, cstack
  1437 ;; Tracked objects:
  1438 ;;		On entry : 0/0
  1439 ;;		On exit  : 0/0
  1440 ;;		Unchanged: 0/0
  1441 ;; Data sizes:     COMMON   BANK0   BANK1   BANK3   BANK2
  1442 ;;      Params:         0       2       0       0       0
  1443 ;;      Locals:         0      12       0       0       0
  1444 ;;      Temps:          0       2       0       0       0
  1445 ;;      Totals:         0      16       0       0       0
  1446 ;;Total ram usage:       16 bytes
  1447 ;; Hardware stack levels used: 1
  1448 ;; Hardware stack levels required when called: 1
  1449 ;; This function calls:
  1450 ;;		___lwdiv
  1451 ;;		___lwmod
  1452 ;; This function is called by:
  1453 ;;		_main
  1454 ;; This function uses a non-reentrant model
  1455 ;;
  1456                           
  1457                           
  1458                           ;psect for function _atualizaDisplay
  1459  01B4                     _atualizaDisplay:
  1460  01B4                     l1960:	
  1461                           ;incstack = 0
  1462                           ; Regs used in _atualizaDisplay: [wreg-fsr0h+status,2+status,0+pclath+cstack]
  1463                           
  1464                           
  1465                           ;main.c: 35:     int milhar = tempSet/1000;
  1466  01B4  30E8               	movlw	232
  1467  01B5  00F6               	movwf	___lwdiv@divisor
  1468  01B6  3003               	movlw	3
  1469  01B7  00F7               	movwf	___lwdiv@divisor+1
  1470  01B8  1283               	bcf	3,5	;RP0=0, select bank0
  1471  01B9  1303               	bcf	3,6	;RP1=0, select bank0
  1472  01BA  0821               	movf	atualizaDisplay@tempSet+1,w
  1473  01BB  00F9               	movwf	___lwdiv@dividend+1
  1474  01BC  0820               	movf	atualizaDisplay@tempSet,w
  1475  01BD  00F8               	movwf	___lwdiv@dividend
  1476  01BE  120A  158A  2438  120A  118A  	fcall	___lwdiv
  1477  01C3  0877               	movf	?___lwdiv+1,w
  1478  01C4  1283               	bcf	3,5	;RP0=0, select bank0
  1479  01C5  1303               	bcf	3,6	;RP1=0, select bank0
  1480  01C6  00A5               	movwf	atualizaDisplay@milhar+1
  1481  01C7  0876               	movf	?___lwdiv,w
  1482  01C8  00A4               	movwf	atualizaDisplay@milhar
  1483                           
  1484                           ;main.c: 36:     int centena = (tempSet%1000)/100;
  1485  01C9  3064               	movlw	100
  1486  01CA  00F6               	movwf	___lwdiv@divisor
  1487  01CB  3000               	movlw	0
  1488  01CC  00F7               	movwf	___lwdiv@divisor+1
  1489  01CD  0821               	movf	atualizaDisplay@tempSet+1,w
  1490  01CE  00F3               	movwf	___lwmod@dividend+1
  1491  01CF  0820               	movf	atualizaDisplay@tempSet,w
  1492  01D0  00F2               	movwf	___lwmod@dividend
  1493  01D1  30E8               	movlw	232
  1494  01D2  00F0               	movwf	___lwmod@divisor
  1495  01D3  3003               	movlw	3
  1496  01D4  00F1               	movwf	___lwmod@divisor+1
  1497  01D5  120A  158A  23FE  120A  118A  	fcall	___lwmod
  1498  01DA  0871               	movf	?___lwmod+1,w
  1499  01DB  00F9               	movwf	___lwdiv@dividend+1
  1500  01DC  0870               	movf	?___lwmod,w
  1501  01DD  00F8               	movwf	___lwdiv@dividend
  1502  01DE  120A  158A  2438  120A  118A  	fcall	___lwdiv
  1503  01E3  0877               	movf	?___lwdiv+1,w
  1504  01E4  1283               	bcf	3,5	;RP0=0, select bank0
  1505  01E5  1303               	bcf	3,6	;RP1=0, select bank0
  1506  01E6  00A7               	movwf	atualizaDisplay@centena+1
  1507  01E7  0876               	movf	?___lwdiv,w
  1508  01E8  00A6               	movwf	atualizaDisplay@centena
  1509                           
  1510                           ;main.c: 37:     int dezena = ((tempSet%1000)%100)/10;
  1511  01E9  0821               	movf	atualizaDisplay@tempSet+1,w
  1512  01EA  00F3               	movwf	___lwmod@dividend+1
  1513  01EB  0820               	movf	atualizaDisplay@tempSet,w
  1514  01EC  00F2               	movwf	___lwmod@dividend
  1515  01ED  30E8               	movlw	232
  1516  01EE  00F0               	movwf	___lwmod@divisor
  1517  01EF  3003               	movlw	3
  1518  01F0  00F1               	movwf	___lwmod@divisor+1
  1519  01F1  120A  158A  23FE  120A  118A  	fcall	___lwmod
  1520  01F6  0871               	movf	?___lwmod+1,w
  1521  01F7  1283               	bcf	3,5	;RP0=0, select bank0
  1522  01F8  1303               	bcf	3,6	;RP1=0, select bank0
  1523  01F9  00AF               	movwf	_atualizaDisplay$752+1
  1524  01FA  0870               	movf	?___lwmod,w
  1525  01FB  00AE               	movwf	_atualizaDisplay$752
  1526                           
  1527                           ;main.c: 37:     int dezena = ((tempSet%1000)%100)/10;
  1528  01FC  300A               	movlw	10
  1529  01FD  00F6               	movwf	___lwdiv@divisor
  1530  01FE  3000               	movlw	0
  1531  01FF  00F7               	movwf	___lwdiv@divisor+1
  1532  0200  082F               	movf	_atualizaDisplay$752+1,w
  1533  0201  00F3               	movwf	___lwmod@dividend+1
  1534  0202  082E               	movf	_atualizaDisplay$752,w
  1535  0203  00F2               	movwf	___lwmod@dividend
  1536  0204  3064               	movlw	100
  1537  0205  00F0               	movwf	___lwmod@divisor
  1538  0206  3000               	movlw	0
  1539  0207  00F1               	movwf	___lwmod@divisor+1
  1540  0208  120A  158A  23FE  120A  118A  	fcall	___lwmod
  1541  020D  0871               	movf	?___lwmod+1,w
  1542  020E  00F9               	movwf	___lwdiv@dividend+1
  1543  020F  0870               	movf	?___lwmod,w
  1544  0210  00F8               	movwf	___lwdiv@dividend
  1545  0211  120A  158A  2438  120A  118A  	fcall	___lwdiv
  1546  0216  0877               	movf	?___lwdiv+1,w
  1547  0217  1283               	bcf	3,5	;RP0=0, select bank0
  1548  0218  1303               	bcf	3,6	;RP1=0, select bank0
  1549  0219  00A9               	movwf	atualizaDisplay@dezena+1
  1550  021A  0876               	movf	?___lwdiv,w
  1551  021B  00A8               	movwf	atualizaDisplay@dezena
  1552                           
  1553                           ;main.c: 38:     int unidade = ((tempSet%1000)%100)%10;
  1554  021C  0821               	movf	atualizaDisplay@tempSet+1,w
  1555  021D  00F3               	movwf	___lwmod@dividend+1
  1556  021E  0820               	movf	atualizaDisplay@tempSet,w
  1557  021F  00F2               	movwf	___lwmod@dividend
  1558  0220  30E8               	movlw	232
  1559  0221  00F0               	movwf	___lwmod@divisor
  1560  0222  3003               	movlw	3
  1561  0223  00F1               	movwf	___lwmod@divisor+1
  1562  0224  120A  158A  23FE  120A  118A  	fcall	___lwmod
  1563  0229  0871               	movf	?___lwmod+1,w
  1564  022A  1283               	bcf	3,5	;RP0=0, select bank0
  1565  022B  1303               	bcf	3,6	;RP1=0, select bank0
  1566  022C  00AF               	movwf	_atualizaDisplay$752+1
  1567  022D  0870               	movf	?___lwmod,w
  1568  022E  00AE               	movwf	_atualizaDisplay$752
  1569                           
  1570                           ;main.c: 38:     int unidade = ((tempSet%1000)%100)%10;
  1571  022F  082F               	movf	_atualizaDisplay$752+1,w
  1572  0230  00F3               	movwf	___lwmod@dividend+1
  1573  0231  082E               	movf	_atualizaDisplay$752,w
  1574  0232  00F2               	movwf	___lwmod@dividend
  1575  0233  3064               	movlw	100
  1576  0234  00F0               	movwf	___lwmod@divisor
  1577  0235  3000               	movlw	0
  1578  0236  00F1               	movwf	___lwmod@divisor+1
  1579  0237  120A  158A  23FE  120A  118A  	fcall	___lwmod
  1580  023C  0871               	movf	?___lwmod+1,w
  1581  023D  1283               	bcf	3,5	;RP0=0, select bank0
  1582  023E  1303               	bcf	3,6	;RP1=0, select bank0
  1583  023F  00AD               	movwf	_atualizaDisplay$753+1
  1584  0240  0870               	movf	?___lwmod,w
  1585  0241  00AC               	movwf	_atualizaDisplay$753
  1586                           
  1587                           ;main.c: 38:     int unidade = ((tempSet%1000)%100)%10;
  1588  0242  300A               	movlw	10
  1589  0243  00F0               	movwf	___lwmod@divisor
  1590  0244  3000               	movlw	0
  1591  0245  00F1               	movwf	___lwmod@divisor+1
  1592  0246  082D               	movf	_atualizaDisplay$753+1,w
  1593  0247  00F3               	movwf	___lwmod@dividend+1
  1594  0248  082C               	movf	_atualizaDisplay$753,w
  1595  0249  00F2               	movwf	___lwmod@dividend
  1596  024A  120A  158A  23FE  120A  118A  	fcall	___lwmod
  1597  024F  0871               	movf	?___lwmod+1,w
  1598  0250  1283               	bcf	3,5	;RP0=0, select bank0
  1599  0251  1303               	bcf	3,6	;RP1=0, select bank0
  1600  0252  00AB               	movwf	atualizaDisplay@unidade+1
  1601  0253  0870               	movf	?___lwmod,w
  1602  0254  00AA               	movwf	atualizaDisplay@unidade
  1603  0255                     l1962:
  1604                           
  1605                           ;main.c: 39:     PORTD = digito[milhar];
  1606  0255  0824               	movf	atualizaDisplay@milhar,w
  1607  0256  3E01               	addlw	low ((_digito-__stringbase)| (0+32768))
  1608  0257  0084               	movwf	4
  1609  0258  120A  158A  2000  120A  118A  	fcall	stringdir
  1610  025D  0088               	movwf	8	;volatile
  1611  025E                     l1964:
  1612                           
  1613                           ;main.c: 40:     RB7 = 1;
  1614  025E  1786               	bsf	6,7	;volatile
  1615  025F                     l1966:
  1616                           
  1617                           ;main.c: 41:     _delay((unsigned long)((10)*(4000000/4000.0)));
  1618  025F  300D               	movlw	13
  1619  0260  1283               	bcf	3,5	;RP0=0, select bank0
  1620  0261  1303               	bcf	3,6	;RP1=0, select bank0
  1621  0262  00A3               	movwf	??_atualizaDisplay+1
  1622  0263  30FB               	movlw	251
  1623  0264  00A2               	movwf	??_atualizaDisplay
  1624  0265                     u3077:
  1625  0265  0BA2               	decfsz	??_atualizaDisplay,f
  1626  0266  2A65               	goto	u3077
  1627  0267  0BA3               	decfsz	??_atualizaDisplay+1,f
  1628  0268  2A65               	goto	u3077
  1629  0269                     l1968:
  1630                           
  1631                           ;main.c: 42:     RB7 = 0;
  1632  0269  1283               	bcf	3,5	;RP0=0, select bank0
  1633  026A  1303               	bcf	3,6	;RP1=0, select bank0
  1634  026B  1386               	bcf	6,7	;volatile
  1635  026C                     l1970:
  1636                           
  1637                           ;main.c: 43:     PORTD = digito[centena];
  1638  026C  0826               	movf	atualizaDisplay@centena,w
  1639  026D  3E01               	addlw	low ((_digito-__stringbase)| (0+32768))
  1640  026E  0084               	movwf	4
  1641  026F  120A  158A  2000  120A  118A  	fcall	stringdir
  1642  0274  0088               	movwf	8	;volatile
  1643  0275                     l1972:
  1644                           
  1645                           ;main.c: 44:     RB6 = 1;
  1646  0275  1706               	bsf	6,6	;volatile
  1647  0276                     l1974:
  1648                           
  1649                           ;main.c: 45:     _delay((unsigned long)((10)*(4000000/4000.0)));
  1650  0276  300D               	movlw	13
  1651  0277  1283               	bcf	3,5	;RP0=0, select bank0
  1652  0278  1303               	bcf	3,6	;RP1=0, select bank0
  1653  0279  00A3               	movwf	??_atualizaDisplay+1
  1654  027A  30FB               	movlw	251
  1655  027B  00A2               	movwf	??_atualizaDisplay
  1656  027C                     u3087:
  1657  027C  0BA2               	decfsz	??_atualizaDisplay,f
  1658  027D  2A7C               	goto	u3087
  1659  027E  0BA3               	decfsz	??_atualizaDisplay+1,f
  1660  027F  2A7C               	goto	u3087
  1661  0280                     l1976:
  1662                           
  1663                           ;main.c: 46:     RB6 = 0;
  1664  0280  1283               	bcf	3,5	;RP0=0, select bank0
  1665  0281  1303               	bcf	3,6	;RP1=0, select bank0
  1666  0282  1306               	bcf	6,6	;volatile
  1667  0283                     l1978:
  1668                           
  1669                           ;main.c: 47:     PORTD = digito[dezena];
  1670  0283  0828               	movf	atualizaDisplay@dezena,w
  1671  0284  3E01               	addlw	low ((_digito-__stringbase)| (0+32768))
  1672  0285  0084               	movwf	4
  1673  0286  120A  158A  2000  120A  118A  	fcall	stringdir
  1674  028B  0088               	movwf	8	;volatile
  1675  028C                     l1980:
  1676                           
  1677                           ;main.c: 48:     RB5 = 1;
  1678  028C  1686               	bsf	6,5	;volatile
  1679  028D                     l1982:
  1680                           
  1681                           ;main.c: 49:     _delay((unsigned long)((10)*(4000000/4000.0)));
  1682  028D  300D               	movlw	13
  1683  028E  1283               	bcf	3,5	;RP0=0, select bank0
  1684  028F  1303               	bcf	3,6	;RP1=0, select bank0
  1685  0290  00A3               	movwf	??_atualizaDisplay+1
  1686  0291  30FB               	movlw	251
  1687  0292  00A2               	movwf	??_atualizaDisplay
  1688  0293                     u3097:
  1689  0293  0BA2               	decfsz	??_atualizaDisplay,f
  1690  0294  2A93               	goto	u3097
  1691  0295  0BA3               	decfsz	??_atualizaDisplay+1,f
  1692  0296  2A93               	goto	u3097
  1693  0297                     l1984:
  1694                           
  1695                           ;main.c: 50:     RB5 = 0;
  1696  0297  1283               	bcf	3,5	;RP0=0, select bank0
  1697  0298  1303               	bcf	3,6	;RP1=0, select bank0
  1698  0299  1286               	bcf	6,5	;volatile
  1699  029A                     l1986:
  1700                           
  1701                           ;main.c: 51:     PORTD = digito[unidade];
  1702  029A  082A               	movf	atualizaDisplay@unidade,w
  1703  029B  3E01               	addlw	low ((_digito-__stringbase)| (0+32768))
  1704  029C  0084               	movwf	4
  1705  029D  120A  158A  2000  120A  118A  	fcall	stringdir
  1706  02A2  0088               	movwf	8	;volatile
  1707  02A3                     l1988:
  1708                           
  1709                           ;main.c: 52:     RB4 = 1;
  1710  02A3  1606               	bsf	6,4	;volatile
  1711  02A4                     l1990:
  1712                           
  1713                           ;main.c: 53:     _delay((unsigned long)((10)*(4000000/4000.0)));
  1714  02A4  300D               	movlw	13
  1715  02A5  1283               	bcf	3,5	;RP0=0, select bank0
  1716  02A6  1303               	bcf	3,6	;RP1=0, select bank0
  1717  02A7  00A3               	movwf	??_atualizaDisplay+1
  1718  02A8  30FB               	movlw	251
  1719  02A9  00A2               	movwf	??_atualizaDisplay
  1720  02AA                     u3107:
  1721  02AA  0BA2               	decfsz	??_atualizaDisplay,f
  1722  02AB  2AAA               	goto	u3107
  1723  02AC  0BA3               	decfsz	??_atualizaDisplay+1,f
  1724  02AD  2AAA               	goto	u3107
  1725  02AE                     l1992:
  1726                           
  1727                           ;main.c: 54:     RB4 = 0;
  1728  02AE  1283               	bcf	3,5	;RP0=0, select bank0
  1729  02AF  1303               	bcf	3,6	;RP1=0, select bank0
  1730  02B0  1206               	bcf	6,4	;volatile
  1731  02B1                     l124:
  1732  02B1  0008               	return
  1733  02B2                     __end_of_atualizaDisplay:
  1734                           
  1735                           	psect	text4
  1736  0BFE                     __ptext4:	
  1737 ;; *************** function ___lwmod *****************
  1738 ;; Defined at:
  1739 ;;		line 5 in file "C:\Program Files\Microchip\xc8\v2.32\pic\sources\c90\common\lwmod.c"
  1740 ;; Parameters:    Size  Location     Type
  1741 ;;  divisor         2    0[COMMON] unsigned int 
  1742 ;;  dividend        2    2[COMMON] unsigned int 
  1743 ;; Auto vars:     Size  Location     Type
  1744 ;;  counter         1    5[COMMON] unsigned char 
  1745 ;; Return value:  Size  Location     Type
  1746 ;;                  2    0[COMMON] unsigned int 
  1747 ;; Registers used:
  1748 ;;		wreg, status,2, status,0
  1749 ;; Tracked objects:
  1750 ;;		On entry : 0/0
  1751 ;;		On exit  : 0/0
  1752 ;;		Unchanged: 0/0
  1753 ;; Data sizes:     COMMON   BANK0   BANK1   BANK3   BANK2
  1754 ;;      Params:         4       0       0       0       0
  1755 ;;      Locals:         1       0       0       0       0
  1756 ;;      Temps:          1       0       0       0       0
  1757 ;;      Totals:         6       0       0       0       0
  1758 ;;Total ram usage:        6 bytes
  1759 ;; Hardware stack levels used: 1
  1760 ;; This function calls:
  1761 ;;		Nothing
  1762 ;; This function is called by:
  1763 ;;		_atualizaDisplay
  1764 ;; This function uses a non-reentrant model
  1765 ;;
  1766                           
  1767                           
  1768                           ;psect for function ___lwmod
  1769  0BFE                     ___lwmod:
  1770  0BFE                     l1566:	
  1771                           ;incstack = 0
  1772                           ; Regs used in ___lwmod: [wreg+status,2+status,0]
  1773                           
  1774  0BFE  0870               	movf	___lwmod@divisor,w
  1775  0BFF  0471               	iorwf	___lwmod@divisor+1,w
  1776  0C00  1903               	btfsc	3,2
  1777  0C01  2C03               	goto	u1861
  1778  0C02  2C04               	goto	u1860
  1779  0C03                     u1861:
  1780  0C03  2C33               	goto	l1584
  1781  0C04                     u1860:
  1782  0C04                     l1568:
  1783  0C04  01F5               	clrf	___lwmod@counter
  1784  0C05  0AF5               	incf	___lwmod@counter,f
  1785  0C06  2C12               	goto	l1574
  1786  0C07                     l1570:
  1787  0C07  3001               	movlw	1
  1788  0C08                     u1875:
  1789  0C08  1003               	clrc
  1790  0C09  0DF0               	rlf	___lwmod@divisor,f
  1791  0C0A  0DF1               	rlf	___lwmod@divisor+1,f
  1792  0C0B  3EFF               	addlw	-1
  1793  0C0C  1D03               	skipz
  1794  0C0D  2C08               	goto	u1875
  1795  0C0E                     l1572:
  1796  0C0E  3001               	movlw	1
  1797  0C0F  00F4               	movwf	??___lwmod
  1798  0C10  0874               	movf	??___lwmod,w
  1799  0C11  07F5               	addwf	___lwmod@counter,f
  1800  0C12                     l1574:
  1801  0C12  1FF1               	btfss	___lwmod@divisor+1,7
  1802  0C13  2C15               	goto	u1881
  1803  0C14  2C16               	goto	u1880
  1804  0C15                     u1881:
  1805  0C15  2C07               	goto	l1570
  1806  0C16                     u1880:
  1807  0C16                     l1576:
  1808  0C16  0871               	movf	___lwmod@divisor+1,w
  1809  0C17  0273               	subwf	___lwmod@dividend+1,w
  1810  0C18  1D03               	skipz
  1811  0C19  2C1C               	goto	u1895
  1812  0C1A  0870               	movf	___lwmod@divisor,w
  1813  0C1B  0272               	subwf	___lwmod@dividend,w
  1814  0C1C                     u1895:
  1815  0C1C  1C03               	skipc
  1816  0C1D  2C1F               	goto	u1891
  1817  0C1E  2C20               	goto	u1890
  1818  0C1F                     u1891:
  1819  0C1F  2C26               	goto	l1580
  1820  0C20                     u1890:
  1821  0C20                     l1578:
  1822  0C20  0870               	movf	___lwmod@divisor,w
  1823  0C21  02F2               	subwf	___lwmod@dividend,f
  1824  0C22  0871               	movf	___lwmod@divisor+1,w
  1825  0C23  1C03               	skipc
  1826  0C24  03F3               	decf	___lwmod@dividend+1,f
  1827  0C25  02F3               	subwf	___lwmod@dividend+1,f
  1828  0C26                     l1580:
  1829  0C26  3001               	movlw	1
  1830  0C27                     u1905:
  1831  0C27  1003               	clrc
  1832  0C28  0CF1               	rrf	___lwmod@divisor+1,f
  1833  0C29  0CF0               	rrf	___lwmod@divisor,f
  1834  0C2A  3EFF               	addlw	-1
  1835  0C2B  1D03               	skipz
  1836  0C2C  2C27               	goto	u1905
  1837  0C2D                     l1582:
  1838  0C2D  3001               	movlw	1
  1839  0C2E  02F5               	subwf	___lwmod@counter,f
  1840  0C2F  1D03               	btfss	3,2
  1841  0C30  2C32               	goto	u1911
  1842  0C31  2C33               	goto	u1910
  1843  0C32                     u1911:
  1844  0C32  2C16               	goto	l1576
  1845  0C33                     u1910:
  1846  0C33                     l1584:
  1847  0C33  0873               	movf	___lwmod@dividend+1,w
  1848  0C34  00F1               	movwf	?___lwmod+1
  1849  0C35  0872               	movf	___lwmod@dividend,w
  1850  0C36  00F0               	movwf	?___lwmod
  1851  0C37                     l528:
  1852  0C37  0008               	return
  1853  0C38                     __end_of___lwmod:
  1854                           
  1855                           	psect	text5
  1856  0C38                     __ptext5:	
  1857 ;; *************** function ___lwdiv *****************
  1858 ;; Defined at:
  1859 ;;		line 5 in file "C:\Program Files\Microchip\xc8\v2.32\pic\sources\c90\common\lwdiv.c"
  1860 ;; Parameters:    Size  Location     Type
  1861 ;;  divisor         2    6[COMMON] unsigned int 
  1862 ;;  dividend        2    8[COMMON] unsigned int 
  1863 ;; Auto vars:     Size  Location     Type
  1864 ;;  quotient        2   11[COMMON] unsigned int 
  1865 ;;  counter         1   13[COMMON] unsigned char 
  1866 ;; Return value:  Size  Location     Type
  1867 ;;                  2    6[COMMON] unsigned int 
  1868 ;; Registers used:
  1869 ;;		wreg, status,2, status,0
  1870 ;; Tracked objects:
  1871 ;;		On entry : 0/0
  1872 ;;		On exit  : 0/0
  1873 ;;		Unchanged: 0/0
  1874 ;; Data sizes:     COMMON   BANK0   BANK1   BANK3   BANK2
  1875 ;;      Params:         4       0       0       0       0
  1876 ;;      Locals:         3       0       0       0       0
  1877 ;;      Temps:          1       0       0       0       0
  1878 ;;      Totals:         8       0       0       0       0
  1879 ;;Total ram usage:        8 bytes
  1880 ;; Hardware stack levels used: 1
  1881 ;; This function calls:
  1882 ;;		Nothing
  1883 ;; This function is called by:
  1884 ;;		_atualizaDisplay
  1885 ;; This function uses a non-reentrant model
  1886 ;;
  1887                           
  1888                           
  1889                           ;psect for function ___lwdiv
  1890  0C38                     ___lwdiv:
  1891  0C38                     l1540:	
  1892                           ;incstack = 0
  1893                           ; Regs used in ___lwdiv: [wreg+status,2+status,0]
  1894                           
  1895  0C38  01FB               	clrf	___lwdiv@quotient
  1896  0C39  01FC               	clrf	___lwdiv@quotient+1
  1897  0C3A                     l1542:
  1898  0C3A  0876               	movf	___lwdiv@divisor,w
  1899  0C3B  0477               	iorwf	___lwdiv@divisor+1,w
  1900  0C3C  1903               	btfsc	3,2
  1901  0C3D  2C3F               	goto	u1791
  1902  0C3E  2C40               	goto	u1790
  1903  0C3F                     u1791:
  1904  0C3F  2C77               	goto	l1562
  1905  0C40                     u1790:
  1906  0C40                     l1544:
  1907  0C40  01FD               	clrf	___lwdiv@counter
  1908  0C41  0AFD               	incf	___lwdiv@counter,f
  1909  0C42  2C4E               	goto	l1550
  1910  0C43                     l1546:
  1911  0C43  3001               	movlw	1
  1912  0C44                     u1805:
  1913  0C44  1003               	clrc
  1914  0C45  0DF6               	rlf	___lwdiv@divisor,f
  1915  0C46  0DF7               	rlf	___lwdiv@divisor+1,f
  1916  0C47  3EFF               	addlw	-1
  1917  0C48  1D03               	skipz
  1918  0C49  2C44               	goto	u1805
  1919  0C4A                     l1548:
  1920  0C4A  3001               	movlw	1
  1921  0C4B  00FA               	movwf	??___lwdiv
  1922  0C4C  087A               	movf	??___lwdiv,w
  1923  0C4D  07FD               	addwf	___lwdiv@counter,f
  1924  0C4E                     l1550:
  1925  0C4E  1FF7               	btfss	___lwdiv@divisor+1,7
  1926  0C4F  2C51               	goto	u1811
  1927  0C50  2C52               	goto	u1810
  1928  0C51                     u1811:
  1929  0C51  2C43               	goto	l1546
  1930  0C52                     u1810:
  1931  0C52                     l1552:
  1932  0C52  3001               	movlw	1
  1933  0C53                     u1825:
  1934  0C53  1003               	clrc
  1935  0C54  0DFB               	rlf	___lwdiv@quotient,f
  1936  0C55  0DFC               	rlf	___lwdiv@quotient+1,f
  1937  0C56  3EFF               	addlw	-1
  1938  0C57  1D03               	skipz
  1939  0C58  2C53               	goto	u1825
  1940  0C59  0877               	movf	___lwdiv@divisor+1,w
  1941  0C5A  0279               	subwf	___lwdiv@dividend+1,w
  1942  0C5B  1D03               	skipz
  1943  0C5C  2C5F               	goto	u1835
  1944  0C5D  0876               	movf	___lwdiv@divisor,w
  1945  0C5E  0278               	subwf	___lwdiv@dividend,w
  1946  0C5F                     u1835:
  1947  0C5F  1C03               	skipc
  1948  0C60  2C62               	goto	u1831
  1949  0C61  2C63               	goto	u1830
  1950  0C62                     u1831:
  1951  0C62  2C6A               	goto	l1558
  1952  0C63                     u1830:
  1953  0C63                     l1554:
  1954  0C63  0876               	movf	___lwdiv@divisor,w
  1955  0C64  02F8               	subwf	___lwdiv@dividend,f
  1956  0C65  0877               	movf	___lwdiv@divisor+1,w
  1957  0C66  1C03               	skipc
  1958  0C67  03F9               	decf	___lwdiv@dividend+1,f
  1959  0C68  02F9               	subwf	___lwdiv@dividend+1,f
  1960  0C69                     l1556:
  1961  0C69  147B               	bsf	___lwdiv@quotient,0
  1962  0C6A                     l1558:
  1963  0C6A  3001               	movlw	1
  1964  0C6B                     u1845:
  1965  0C6B  1003               	clrc
  1966  0C6C  0CF7               	rrf	___lwdiv@divisor+1,f
  1967  0C6D  0CF6               	rrf	___lwdiv@divisor,f
  1968  0C6E  3EFF               	addlw	-1
  1969  0C6F  1D03               	skipz
  1970  0C70  2C6B               	goto	u1845
  1971  0C71                     l1560:
  1972  0C71  3001               	movlw	1
  1973  0C72  02FD               	subwf	___lwdiv@counter,f
  1974  0C73  1D03               	btfss	3,2
  1975  0C74  2C76               	goto	u1851
  1976  0C75  2C77               	goto	u1850
  1977  0C76                     u1851:
  1978  0C76  2C52               	goto	l1552
  1979  0C77                     u1850:
  1980  0C77                     l1562:
  1981  0C77  087C               	movf	___lwdiv@quotient+1,w
  1982  0C78  00F7               	movwf	?___lwdiv+1
  1983  0C79  087B               	movf	___lwdiv@quotient,w
  1984  0C7A  00F6               	movwf	?___lwdiv
  1985  0C7B                     l518:
  1986  0C7B  0008               	return
  1987  0C7C                     __end_of___lwdiv:
  1988                           
  1989                           	psect	text6
  1990  0B47                     __ptext6:	
  1991 ;; *************** function ___wmul *****************
  1992 ;; Defined at:
  1993 ;;		line 15 in file "C:\Program Files\Microchip\xc8\v2.32\pic\sources\c90\common\Umul16.c"
  1994 ;; Parameters:    Size  Location     Type
  1995 ;;  multiplier      2    5[COMMON] unsigned int 
  1996 ;;  multiplicand    2    7[COMMON] unsigned int 
  1997 ;; Auto vars:     Size  Location     Type
  1998 ;;  product         2    9[COMMON] unsigned int 
  1999 ;; Return value:  Size  Location     Type
  2000 ;;                  2    5[COMMON] unsigned int 
  2001 ;; Registers used:
  2002 ;;		wreg, status,2, status,0
  2003 ;; Tracked objects:
  2004 ;;		On entry : 0/0
  2005 ;;		On exit  : 0/0
  2006 ;;		Unchanged: 0/0
  2007 ;; Data sizes:     COMMON   BANK0   BANK1   BANK3   BANK2
  2008 ;;      Params:         4       0       0       0       0
  2009 ;;      Locals:         2       0       0       0       0
  2010 ;;      Temps:          0       0       0       0       0
  2011 ;;      Totals:         6       0       0       0       0
  2012 ;;Total ram usage:        6 bytes
  2013 ;; Hardware stack levels used: 1
  2014 ;; This function calls:
  2015 ;;		Nothing
  2016 ;; This function is called by:
  2017 ;;		_main
  2018 ;; This function uses a non-reentrant model
  2019 ;;
  2020                           
  2021                           
  2022                           ;psect for function ___wmul
  2023  0B47                     ___wmul:
  2024  0B47                     l2042:	
  2025                           ;incstack = 0
  2026                           ; Regs used in ___wmul: [wreg+status,2+status,0]
  2027                           
  2028  0B47  01F9               	clrf	___wmul@product
  2029  0B48  01FA               	clrf	___wmul@product+1
  2030  0B49                     l2044:
  2031  0B49  1C75               	btfss	___wmul@multiplier,0
  2032  0B4A  2B4C               	goto	u2931
  2033  0B4B  2B4D               	goto	u2930
  2034  0B4C                     u2931:
  2035  0B4C  2B53               	goto	l246
  2036  0B4D                     u2930:
  2037  0B4D                     l2046:
  2038  0B4D  0877               	movf	___wmul@multiplicand,w
  2039  0B4E  07F9               	addwf	___wmul@product,f
  2040  0B4F  1803               	skipnc
  2041  0B50  0AFA               	incf	___wmul@product+1,f
  2042  0B51  0878               	movf	___wmul@multiplicand+1,w
  2043  0B52  07FA               	addwf	___wmul@product+1,f
  2044  0B53                     l246:
  2045  0B53  3001               	movlw	1
  2046  0B54                     u2945:
  2047  0B54  1003               	clrc
  2048  0B55  0DF7               	rlf	___wmul@multiplicand,f
  2049  0B56  0DF8               	rlf	___wmul@multiplicand+1,f
  2050  0B57  3EFF               	addlw	-1
  2051  0B58  1D03               	skipz
  2052  0B59  2B54               	goto	u2945
  2053  0B5A                     l2048:
  2054  0B5A  3001               	movlw	1
  2055  0B5B                     u2955:
  2056  0B5B  1003               	clrc
  2057  0B5C  0CF6               	rrf	___wmul@multiplier+1,f
  2058  0B5D  0CF5               	rrf	___wmul@multiplier,f
  2059  0B5E  3EFF               	addlw	-1
  2060  0B5F  1D03               	skipz
  2061  0B60  2B5B               	goto	u2955
  2062  0B61                     l2050:
  2063  0B61  0875               	movf	___wmul@multiplier,w
  2064  0B62  0476               	iorwf	___wmul@multiplier+1,w
  2065  0B63  1D03               	btfss	3,2
  2066  0B64  2B66               	goto	u2961
  2067  0B65  2B67               	goto	u2960
  2068  0B66                     u2961:
  2069  0B66  2B49               	goto	l2044
  2070  0B67                     u2960:
  2071  0B67                     l2052:
  2072  0B67  087A               	movf	___wmul@product+1,w
  2073  0B68  00F6               	movwf	?___wmul+1
  2074  0B69  0879               	movf	___wmul@product,w
  2075  0B6A  00F5               	movwf	?___wmul
  2076  0B6B                     l248:
  2077  0B6B  0008               	return
  2078  0B6C                     __end_of___wmul:
  2079                           
  2080                           	psect	text7
  2081  0C7C                     __ptext7:	
  2082 ;; *************** function ___awdiv *****************
  2083 ;; Defined at:
  2084 ;;		line 5 in file "C:\Program Files\Microchip\xc8\v2.32\pic\sources\c90\common\awdiv.c"
  2085 ;; Parameters:    Size  Location     Type
  2086 ;;  divisor         2    0[COMMON] int 
  2087 ;;  dividend        2    2[COMMON] int 
  2088 ;; Auto vars:     Size  Location     Type
  2089 ;;  quotient        2    7[COMMON] int 
  2090 ;;  sign            1    6[COMMON] unsigned char 
  2091 ;;  counter         1    5[COMMON] unsigned char 
  2092 ;; Return value:  Size  Location     Type
  2093 ;;                  2    0[COMMON] int 
  2094 ;; Registers used:
  2095 ;;		wreg, status,2, status,0
  2096 ;; Tracked objects:
  2097 ;;		On entry : 0/0
  2098 ;;		On exit  : 0/0
  2099 ;;		Unchanged: 0/0
  2100 ;; Data sizes:     COMMON   BANK0   BANK1   BANK3   BANK2
  2101 ;;      Params:         4       0       0       0       0
  2102 ;;      Locals:         4       0       0       0       0
  2103 ;;      Temps:          1       0       0       0       0
  2104 ;;      Totals:         9       0       0       0       0
  2105 ;;Total ram usage:        9 bytes
  2106 ;; Hardware stack levels used: 1
  2107 ;; This function calls:
  2108 ;;		Nothing
  2109 ;; This function is called by:
  2110 ;;		_main
  2111 ;; This function uses a non-reentrant model
  2112 ;;
  2113                           
  2114                           
  2115                           ;psect for function ___awdiv
  2116  0C7C                     ___awdiv:
  2117  0C7C                     l2056:	
  2118                           ;incstack = 0
  2119                           ; Regs used in ___awdiv: [wreg+status,2+status,0]
  2120                           
  2121  0C7C  01F6               	clrf	___awdiv@sign
  2122  0C7D                     l2058:
  2123  0C7D  1FF1               	btfss	___awdiv@divisor+1,7
  2124  0C7E  2C80               	goto	u2971
  2125  0C7F  2C81               	goto	u2970
  2126  0C80                     u2971:
  2127  0C80  2C88               	goto	l2064
  2128  0C81                     u2970:
  2129  0C81                     l2060:
  2130  0C81  09F0               	comf	___awdiv@divisor,f
  2131  0C82  09F1               	comf	___awdiv@divisor+1,f
  2132  0C83  0AF0               	incf	___awdiv@divisor,f
  2133  0C84  1903               	skipnz
  2134  0C85  0AF1               	incf	___awdiv@divisor+1,f
  2135  0C86                     l2062:
  2136  0C86  01F6               	clrf	___awdiv@sign
  2137  0C87  0AF6               	incf	___awdiv@sign,f
  2138  0C88                     l2064:
  2139  0C88  1FF3               	btfss	___awdiv@dividend+1,7
  2140  0C89  2C8B               	goto	u2981
  2141  0C8A  2C8C               	goto	u2980
  2142  0C8B                     u2981:
  2143  0C8B  2C95               	goto	l2070
  2144  0C8C                     u2980:
  2145  0C8C                     l2066:
  2146  0C8C  09F2               	comf	___awdiv@dividend,f
  2147  0C8D  09F3               	comf	___awdiv@dividend+1,f
  2148  0C8E  0AF2               	incf	___awdiv@dividend,f
  2149  0C8F  1903               	skipnz
  2150  0C90  0AF3               	incf	___awdiv@dividend+1,f
  2151  0C91                     l2068:
  2152  0C91  3001               	movlw	1
  2153  0C92  00F4               	movwf	??___awdiv
  2154  0C93  0874               	movf	??___awdiv,w
  2155  0C94  06F6               	xorwf	___awdiv@sign,f
  2156  0C95                     l2070:
  2157  0C95  01F7               	clrf	___awdiv@quotient
  2158  0C96  01F8               	clrf	___awdiv@quotient+1
  2159  0C97                     l2072:
  2160  0C97  0870               	movf	___awdiv@divisor,w
  2161  0C98  0471               	iorwf	___awdiv@divisor+1,w
  2162  0C99  1903               	btfsc	3,2
  2163  0C9A  2C9C               	goto	u2991
  2164  0C9B  2C9D               	goto	u2990
  2165  0C9C                     u2991:
  2166  0C9C  2CD4               	goto	l2092
  2167  0C9D                     u2990:
  2168  0C9D                     l2074:
  2169  0C9D  01F5               	clrf	___awdiv@counter
  2170  0C9E  0AF5               	incf	___awdiv@counter,f
  2171  0C9F  2CAB               	goto	l2080
  2172  0CA0                     l2076:
  2173  0CA0  3001               	movlw	1
  2174  0CA1                     u3005:
  2175  0CA1  1003               	clrc
  2176  0CA2  0DF0               	rlf	___awdiv@divisor,f
  2177  0CA3  0DF1               	rlf	___awdiv@divisor+1,f
  2178  0CA4  3EFF               	addlw	-1
  2179  0CA5  1D03               	skipz
  2180  0CA6  2CA1               	goto	u3005
  2181  0CA7                     l2078:
  2182  0CA7  3001               	movlw	1
  2183  0CA8  00F4               	movwf	??___awdiv
  2184  0CA9  0874               	movf	??___awdiv,w
  2185  0CAA  07F5               	addwf	___awdiv@counter,f
  2186  0CAB                     l2080:
  2187  0CAB  1FF1               	btfss	___awdiv@divisor+1,7
  2188  0CAC  2CAE               	goto	u3011
  2189  0CAD  2CAF               	goto	u3010
  2190  0CAE                     u3011:
  2191  0CAE  2CA0               	goto	l2076
  2192  0CAF                     u3010:
  2193  0CAF                     l2082:
  2194  0CAF  3001               	movlw	1
  2195  0CB0                     u3025:
  2196  0CB0  1003               	clrc
  2197  0CB1  0DF7               	rlf	___awdiv@quotient,f
  2198  0CB2  0DF8               	rlf	___awdiv@quotient+1,f
  2199  0CB3  3EFF               	addlw	-1
  2200  0CB4  1D03               	skipz
  2201  0CB5  2CB0               	goto	u3025
  2202  0CB6  0871               	movf	___awdiv@divisor+1,w
  2203  0CB7  0273               	subwf	___awdiv@dividend+1,w
  2204  0CB8  1D03               	skipz
  2205  0CB9  2CBC               	goto	u3035
  2206  0CBA  0870               	movf	___awdiv@divisor,w
  2207  0CBB  0272               	subwf	___awdiv@dividend,w
  2208  0CBC                     u3035:
  2209  0CBC  1C03               	skipc
  2210  0CBD  2CBF               	goto	u3031
  2211  0CBE  2CC0               	goto	u3030
  2212  0CBF                     u3031:
  2213  0CBF  2CC7               	goto	l2088
  2214  0CC0                     u3030:
  2215  0CC0                     l2084:
  2216  0CC0  0870               	movf	___awdiv@divisor,w
  2217  0CC1  02F2               	subwf	___awdiv@dividend,f
  2218  0CC2  0871               	movf	___awdiv@divisor+1,w
  2219  0CC3  1C03               	skipc
  2220  0CC4  03F3               	decf	___awdiv@dividend+1,f
  2221  0CC5  02F3               	subwf	___awdiv@dividend+1,f
  2222  0CC6                     l2086:
  2223  0CC6  1477               	bsf	___awdiv@quotient,0
  2224  0CC7                     l2088:
  2225  0CC7  3001               	movlw	1
  2226  0CC8                     u3045:
  2227  0CC8  1003               	clrc
  2228  0CC9  0CF1               	rrf	___awdiv@divisor+1,f
  2229  0CCA  0CF0               	rrf	___awdiv@divisor,f
  2230  0CCB  3EFF               	addlw	-1
  2231  0CCC  1D03               	skipz
  2232  0CCD  2CC8               	goto	u3045
  2233  0CCE                     l2090:
  2234  0CCE  3001               	movlw	1
  2235  0CCF  02F5               	subwf	___awdiv@counter,f
  2236  0CD0  1D03               	btfss	3,2
  2237  0CD1  2CD3               	goto	u3051
  2238  0CD2  2CD4               	goto	u3050
  2239  0CD3                     u3051:
  2240  0CD3  2CAF               	goto	l2082
  2241  0CD4                     u3050:
  2242  0CD4                     l2092:
  2243  0CD4  0876               	movf	___awdiv@sign,w
  2244  0CD5  1903               	btfsc	3,2
  2245  0CD6  2CD8               	goto	u3061
  2246  0CD7  2CD9               	goto	u3060
  2247  0CD8                     u3061:
  2248  0CD8  2CDE               	goto	l2096
  2249  0CD9                     u3060:
  2250  0CD9                     l2094:
  2251  0CD9  09F7               	comf	___awdiv@quotient,f
  2252  0CDA  09F8               	comf	___awdiv@quotient+1,f
  2253  0CDB  0AF7               	incf	___awdiv@quotient,f
  2254  0CDC  1903               	skipnz
  2255  0CDD  0AF8               	incf	___awdiv@quotient+1,f
  2256  0CDE                     l2096:
  2257  0CDE  0878               	movf	___awdiv@quotient+1,w
  2258  0CDF  00F1               	movwf	?___awdiv+1
  2259  0CE0  0877               	movf	___awdiv@quotient,w
  2260  0CE1  00F0               	movwf	?___awdiv
  2261  0CE2                     l399:
  2262  0CE2  0008               	return
  2263  0CE3                     __end_of___awdiv:
  2264                           
  2265                           	psect	text8
  2266  0B24                     __ptext8:	
  2267 ;; *************** function _PWM2_Start *****************
  2268 ;; Defined at:
  2269 ;;		line 59 in file "PWM.c"
  2270 ;; Parameters:    Size  Location     Type
  2271 ;;		None
  2272 ;; Auto vars:     Size  Location     Type
  2273 ;;		None
  2274 ;; Return value:  Size  Location     Type
  2275 ;;                  1    wreg      void 
  2276 ;; Registers used:
  2277 ;;		None
  2278 ;; Tracked objects:
  2279 ;;		On entry : 0/0
  2280 ;;		On exit  : 0/0
  2281 ;;		Unchanged: 0/0
  2282 ;; Data sizes:     COMMON   BANK0   BANK1   BANK3   BANK2
  2283 ;;      Params:         0       0       0       0       0
  2284 ;;      Locals:         0       0       0       0       0
  2285 ;;      Temps:          0       0       0       0       0
  2286 ;;      Totals:         0       0       0       0       0
  2287 ;;Total ram usage:        0 bytes
  2288 ;; Hardware stack levels used: 1
  2289 ;; This function calls:
  2290 ;;		Nothing
  2291 ;; This function is called by:
  2292 ;;		_main
  2293 ;; This function uses a non-reentrant model
  2294 ;;
  2295                           
  2296                           
  2297                           ;psect for function _PWM2_Start
  2298  0B24                     _PWM2_Start:
  2299  0B24                     l1940:	
  2300                           ;incstack = 0
  2301                           ; Regs used in _PWM2_Start: []
  2302                           
  2303                           
  2304                           ;PWM.c: 61:   CCP2M3 = 1;
  2305  0B24  1283               	bcf	3,5	;RP0=0, select bank0
  2306  0B25  1303               	bcf	3,6	;RP1=0, select bank0
  2307  0B26  159D               	bsf	29,3	;volatile
  2308                           
  2309                           ;PWM.c: 62:   CCP2M2 = 1;
  2310  0B27  151D               	bsf	29,2	;volatile
  2311                           
  2312                           ;PWM.c: 67:     T2CKPS0 = 1;
  2313  0B28  1412               	bsf	18,0	;volatile
  2314                           
  2315                           ;PWM.c: 68:     T2CKPS1 = 0;
  2316  0B29  1092               	bcf	18,1	;volatile
  2317                           
  2318                           ;PWM.c: 73:     TMR2ON = 1;
  2319  0B2A  1512               	bsf	18,2	;volatile
  2320                           
  2321                           ;PWM.c: 74:     TRISC1 = 0;
  2322  0B2B  1683               	bsf	3,5	;RP0=1, select bank1
  2323  0B2C  1303               	bcf	3,6	;RP1=0, select bank1
  2324  0B2D  1087               	bcf	7,1	;volatile
  2325  0B2E                     l49:
  2326  0B2E  0008               	return
  2327  0B2F                     __end_of_PWM2_Start:
  2328                           
  2329                           	psect	text9
  2330  0F38                     __ptext9:	
  2331 ;; *************** function _PWM2_Duty *****************
  2332 ;; Defined at:
  2333 ;;		line 29 in file "PWM.c"
  2334 ;; Parameters:    Size  Location     Type
  2335 ;;  duty            2    0[BANK1 ] unsigned int 
  2336 ;;  freq            2    2[BANK1 ] unsigned int 
  2337 ;; Auto vars:     Size  Location     Type
  2338 ;;		None
  2339 ;; Return value:  Size  Location     Type
  2340 ;;                  1    wreg      void 
  2341 ;; Registers used:
  2342 ;;		wreg, status,2, status,0, btemp+1, pclath, cstack
  2343 ;; Tracked objects:
  2344 ;;		On entry : 0/0
  2345 ;;		On exit  : 0/0
  2346 ;;		Unchanged: 0/0
  2347 ;; Data sizes:     COMMON   BANK0   BANK1   BANK3   BANK2
  2348 ;;      Params:         0       0       4       0       0
  2349 ;;      Locals:         0       0       0       0       0
  2350 ;;      Temps:          0       0       2       0       0
  2351 ;;      Totals:         0       0       6       0       0
  2352 ;;Total ram usage:        6 bytes
  2353 ;; Hardware stack levels used: 1
  2354 ;; Hardware stack levels required when called: 2
  2355 ;; This function calls:
  2356 ;;		_PWM_Init
  2357 ;;		___aldiv
  2358 ;;		___fldiv
  2359 ;;		___flmul
  2360 ;;		___fltol
  2361 ;;		___xxtofl
  2362 ;; This function is called by:
  2363 ;;		_main
  2364 ;; This function uses a non-reentrant model
  2365 ;;
  2366                           
  2367                           
  2368                           ;psect for function _PWM2_Duty
  2369  0F38                     _PWM2_Duty:
  2370  0F38                     l1926:	
  2371                           ;incstack = 0
  2372                           ; Regs used in _PWM2_Duty: [wreg+status,2+status,0+btemp+1+pclath+cstack]
  2373                           
  2374                           
  2375                           ;PWM.c: 29: void PWM2_Duty(unsigned int duty, unsigned int freq);PWM.c: 30: {;PWM.c: 31:
      +                             PWM_Init(freq);
  2376  0F38  1683               	bsf	3,5	;RP0=1, select bank1
  2377  0F39  1303               	bcf	3,6	;RP1=0, select bank1
  2378  0F3A  0822               	movf	PWM2_Duty@freq^(0+128),w
  2379  0F3B  1283               	bcf	3,5	;RP0=0, select bank0
  2380  0F3C  1303               	bcf	3,6	;RP1=0, select bank0
  2381  0F3D  00A6               	movwf	PWM_Init@freq
  2382  0F3E  1683               	bsf	3,5	;RP0=1, select bank1
  2383  0F3F  1303               	bcf	3,6	;RP1=0, select bank1
  2384  0F40  0823               	movf	(PWM2_Duty@freq+1)^(0+128),w
  2385  0F41  1283               	bcf	3,5	;RP0=0, select bank0
  2386  0F42  1303               	bcf	3,6	;RP1=0, select bank0
  2387  0F43  00A7               	movwf	PWM_Init@freq+1
  2388  0F44  01A8               	clrf	PWM_Init@freq+2
  2389  0F45  01A9               	clrf	PWM_Init@freq+3
  2390  0F46  120A  158A  23C7  120A  158A  	fcall	_PWM_Init
  2391  0F4B                     l1928:
  2392                           
  2393                           ;PWM.c: 32:   if(duty<1024)
  2394  0F4B  3004               	movlw	4
  2395  0F4C  1683               	bsf	3,5	;RP0=1, select bank1
  2396  0F4D  1303               	bcf	3,6	;RP1=0, select bank1
  2397  0F4E  0221               	subwf	(PWM2_Duty@duty+1)^(0+128),w
  2398  0F4F  3000               	movlw	0
  2399  0F50  1903               	skipnz
  2400  0F51  0220               	subwf	PWM2_Duty@duty^(0+128),w
  2401  0F52  1803               	skipnc
  2402  0F53  2F55               	goto	u2761
  2403  0F54  2F56               	goto	u2760
  2404  0F55                     u2761:
  2405  0F55  2FFF               	goto	l43
  2406  0F56                     u2760:
  2407  0F56                     l1930:
  2408                           
  2409                           ;PWM.c: 33:   {;PWM.c: 34:     duty = ((float)duty/1023.0)*(4000000/(freq*4));
  2410  0F56  0820               	movf	PWM2_Duty@duty^(0+128),w
  2411  0F57  1283               	bcf	3,5	;RP0=0, select bank0
  2412  0F58  1303               	bcf	3,6	;RP1=0, select bank0
  2413  0F59  00A6               	movwf	___xxtofl@val
  2414  0F5A  1683               	bsf	3,5	;RP0=1, select bank1
  2415  0F5B  1303               	bcf	3,6	;RP1=0, select bank1
  2416  0F5C  0821               	movf	(PWM2_Duty@duty+1)^(0+128),w
  2417  0F5D  1283               	bcf	3,5	;RP0=0, select bank0
  2418  0F5E  1303               	bcf	3,6	;RP1=0, select bank0
  2419  0F5F  00A7               	movwf	___xxtofl@val+1
  2420  0F60  01A8               	clrf	___xxtofl@val+2
  2421  0F61  01A9               	clrf	___xxtofl@val+3
  2422  0F62  3000               	movlw	0
  2423  0F63  120A  118A  200D  120A  158A  	fcall	___xxtofl
  2424  0F68  1283               	bcf	3,5	;RP0=0, select bank0
  2425  0F69  1303               	bcf	3,6	;RP1=0, select bank0
  2426  0F6A  0829               	movf	?___xxtofl+3,w
  2427  0F6B  00B7               	movwf	___fldiv@b+3
  2428  0F6C  0828               	movf	?___xxtofl+2,w
  2429  0F6D  00B6               	movwf	___fldiv@b+2
  2430  0F6E  0827               	movf	?___xxtofl+1,w
  2431  0F6F  00B5               	movwf	___fldiv@b+1
  2432  0F70  0826               	movf	?___xxtofl,w
  2433  0F71  00B4               	movwf	___fldiv@b
  2434  0F72  3044               	movlw	68
  2435  0F73  00B3               	movwf	___fldiv@a+3
  2436  0F74  307F               	movlw	127
  2437  0F75  00B2               	movwf	___fldiv@a+2
  2438  0F76  30C0               	movlw	192
  2439  0F77  00B1               	movwf	___fldiv@a+1
  2440  0F78  3000               	movlw	0
  2441  0F79  00B0               	movwf	___fldiv@a
  2442  0F7A  120A  118A  22B2  120A  158A  	fcall	___fldiv
  2443  0F7F  1283               	bcf	3,5	;RP0=0, select bank0
  2444  0F80  1303               	bcf	3,6	;RP1=0, select bank0
  2445  0F81  0833               	movf	?___fldiv+3,w
  2446  0F82  00D1               	movwf	___flmul@a+3
  2447  0F83  0832               	movf	?___fldiv+2,w
  2448  0F84  00D0               	movwf	___flmul@a+2
  2449  0F85  0831               	movf	?___fldiv+1,w
  2450  0F86  00CF               	movwf	___flmul@a+1
  2451  0F87  0830               	movf	?___fldiv,w
  2452  0F88  00CE               	movwf	___flmul@a
  2453  0F89  3000               	movlw	0
  2454  0F8A  00F7               	movwf	___aldiv@dividend+3
  2455  0F8B  303D               	movlw	61
  2456  0F8C  00F6               	movwf	___aldiv@dividend+2
  2457  0F8D  3009               	movlw	9
  2458  0F8E  00F5               	movwf	___aldiv@dividend+1
  2459  0F8F  3000               	movlw	0
  2460  0F90  00F4               	movwf	___aldiv@dividend
  2461  0F91  1683               	bsf	3,5	;RP0=1, select bank1
  2462  0F92  1303               	bcf	3,6	;RP1=0, select bank1
  2463  0F93  0823               	movf	(PWM2_Duty@freq+1)^(0+128),w
  2464  0F94  00A5               	movwf	(??_PWM2_Duty^(0+128)+1)
  2465  0F95  0822               	movf	PWM2_Duty@freq^(0+128),w
  2466  0F96  00A4               	movwf	??_PWM2_Duty^(0+128)
  2467  0F97  1003               	clrc
  2468  0F98  0DA4               	rlf	??_PWM2_Duty^(0+128),f
  2469  0F99  0DA5               	rlf	(??_PWM2_Duty^(0+128)+1),f
  2470  0F9A  1003               	clrc
  2471  0F9B  0DA4               	rlf	??_PWM2_Duty^(0+128),f
  2472  0F9C  0DA5               	rlf	(??_PWM2_Duty^(0+128)+1),f
  2473  0F9D  0824               	movf	??_PWM2_Duty^(0+128),w
  2474  0F9E  00F0               	movwf	___aldiv@divisor
  2475  0F9F  0825               	movf	(??_PWM2_Duty+1)^(0+128),w
  2476  0FA0  00F1               	movwf	___aldiv@divisor+1
  2477  0FA1  01F2               	clrf	___aldiv@divisor+2
  2478  0FA2  01F3               	clrf	___aldiv@divisor+3
  2479  0FA3  120A  158A  25D3  120A  158A  	fcall	___aldiv
  2480  0FA8  0873               	movf	?___aldiv+3,w
  2481  0FA9  1283               	bcf	3,5	;RP0=0, select bank0
  2482  0FAA  1303               	bcf	3,6	;RP1=0, select bank0
  2483  0FAB  00A9               	movwf	___xxtofl@val+3
  2484  0FAC  0872               	movf	?___aldiv+2,w
  2485  0FAD  00A8               	movwf	___xxtofl@val+2
  2486  0FAE  0871               	movf	?___aldiv+1,w
  2487  0FAF  00A7               	movwf	___xxtofl@val+1
  2488  0FB0  0870               	movf	?___aldiv,w
  2489  0FB1  00A6               	movwf	___xxtofl@val
  2490  0FB2  3001               	movlw	1
  2491  0FB3  120A  118A  200D  120A  158A  	fcall	___xxtofl
  2492  0FB8  1283               	bcf	3,5	;RP0=0, select bank0
  2493  0FB9  1303               	bcf	3,6	;RP1=0, select bank0
  2494  0FBA  0829               	movf	?___xxtofl+3,w
  2495  0FBB  00CD               	movwf	___flmul@b+3
  2496  0FBC  0828               	movf	?___xxtofl+2,w
  2497  0FBD  00CC               	movwf	___flmul@b+2
  2498  0FBE  0827               	movf	?___xxtofl+1,w
  2499  0FBF  00CB               	movwf	___flmul@b+1
  2500  0FC0  0826               	movf	?___xxtofl,w
  2501  0FC1  00CA               	movwf	___flmul@b
  2502  0FC2  120A  118A  248F  120A  158A  	fcall	___flmul
  2503  0FC7  1283               	bcf	3,5	;RP0=0, select bank0
  2504  0FC8  1303               	bcf	3,6	;RP1=0, select bank0
  2505  0FC9  084D               	movf	?___flmul+3,w
  2506  0FCA  00E7               	movwf	___fltol@f1+3
  2507  0FCB  084C               	movf	?___flmul+2,w
  2508  0FCC  00E6               	movwf	___fltol@f1+2
  2509  0FCD  084B               	movf	?___flmul+1,w
  2510  0FCE  00E5               	movwf	___fltol@f1+1
  2511  0FCF  084A               	movf	?___flmul,w
  2512  0FD0  00E4               	movwf	___fltol@f1
  2513  0FD1  120A  158A  2557  120A  158A  	fcall	___fltol
  2514  0FD6  1283               	bcf	3,5	;RP0=0, select bank0
  2515  0FD7  1303               	bcf	3,6	;RP1=0, select bank0
  2516  0FD8  0865               	movf	?___fltol+1,w
  2517  0FD9  1683               	bsf	3,5	;RP0=1, select bank1
  2518  0FDA  1303               	bcf	3,6	;RP1=0, select bank1
  2519  0FDB  00A1               	movwf	(PWM2_Duty@duty+1)^(0+128)
  2520  0FDC  1283               	bcf	3,5	;RP0=0, select bank0
  2521  0FDD  1303               	bcf	3,6	;RP1=0, select bank0
  2522  0FDE  0864               	movf	?___fltol,w
  2523  0FDF  1683               	bsf	3,5	;RP0=1, select bank1
  2524  0FE0  1303               	bcf	3,6	;RP1=0, select bank1
  2525  0FE1  00A0               	movwf	PWM2_Duty@duty^(0+128)
  2526  0FE2                     l1932:
  2527                           
  2528                           ;PWM.c: 35:     CCP2X = duty & 0b00000010;;
  2529  0FE2  1283               	bcf	3,5	;RP0=0, select bank0
  2530  0FE3  1303               	bcf	3,6	;RP1=0, select bank0
  2531  0FE4  129D               	bcf	29,5	;volatile
  2532  0FE5                     l1934:
  2533                           
  2534                           ;PWM.c: 36:     CCP2Y = duty & 0b00000001;;
  2535  0FE5  1683               	bsf	3,5	;RP0=1, select bank1
  2536  0FE6  1303               	bcf	3,6	;RP1=0, select bank1
  2537  0FE7  1820               	btfsc	PWM2_Duty@duty^(0+128),0
  2538  0FE8  2FEA               	goto	u2771
  2539  0FE9  2FEE               	goto	u2770
  2540  0FEA                     u2771:
  2541  0FEA  1283               	bcf	3,5	;RP0=0, select bank0
  2542  0FEB  1303               	bcf	3,6	;RP1=0, select bank0
  2543  0FEC  161D               	bsf	29,4	;volatile
  2544  0FED  2FF1               	goto	u2784
  2545  0FEE                     u2770:
  2546  0FEE  1283               	bcf	3,5	;RP0=0, select bank0
  2547  0FEF  1303               	bcf	3,6	;RP1=0, select bank0
  2548  0FF0  121D               	bcf	29,4	;volatile
  2549  0FF1                     u2784:
  2550  0FF1                     l1936:
  2551                           
  2552                           ;PWM.c: 37:     CCPR2L = (unsigned char)duty>>2;
  2553  0FF1  1683               	bsf	3,5	;RP0=1, select bank1
  2554  0FF2  1303               	bcf	3,6	;RP1=0, select bank1
  2555  0FF3  0820               	movf	PWM2_Duty@duty^(0+128),w
  2556  0FF4  00A4               	movwf	??_PWM2_Duty^(0+128)
  2557  0FF5  3002               	movlw	2
  2558  0FF6                     u2795:
  2559  0FF6  1003               	clrc
  2560  0FF7  0CA4               	rrf	??_PWM2_Duty^(0+128),f
  2561  0FF8  3EFF               	addlw	-1
  2562  0FF9  1D03               	skipz
  2563  0FFA  2FF6               	goto	u2795
  2564  0FFB  0824               	movf	??_PWM2_Duty^(0+128),w
  2565  0FFC  1283               	bcf	3,5	;RP0=0, select bank0
  2566  0FFD  1303               	bcf	3,6	;RP1=0, select bank0
  2567  0FFE  009B               	movwf	27	;volatile
  2568  0FFF                     l43:
  2569  0FFF  0008               	return
  2570  1000                     __end_of_PWM2_Duty:
  2571                           
  2572                           	psect	text10
  2573  0004                     __ptext10:	
  2574 ;; *************** function _PWM1_Start *****************
  2575 ;; Defined at:
  2576 ;;		line 41 in file "PWM.c"
  2577 ;; Parameters:    Size  Location     Type
  2578 ;;		None
  2579 ;; Auto vars:     Size  Location     Type
  2580 ;;		None
  2581 ;; Return value:  Size  Location     Type
  2582 ;;                  1    wreg      void 
  2583 ;; Registers used:
  2584 ;;		None
  2585 ;; Tracked objects:
  2586 ;;		On entry : 0/0
  2587 ;;		On exit  : 0/0
  2588 ;;		Unchanged: 0/0
  2589 ;; Data sizes:     COMMON   BANK0   BANK1   BANK3   BANK2
  2590 ;;      Params:         0       0       0       0       0
  2591 ;;      Locals:         0       0       0       0       0
  2592 ;;      Temps:          0       0       0       0       0
  2593 ;;      Totals:         0       0       0       0       0
  2594 ;;Total ram usage:        0 bytes
  2595 ;; Hardware stack levels used: 1
  2596 ;; This function calls:
  2597 ;;		Nothing
  2598 ;; This function is called by:
  2599 ;;		_main
  2600 ;; This function uses a non-reentrant model
  2601 ;;
  2602                           
  2603                           
  2604                           ;psect for function _PWM1_Start
  2605  0004                     _PWM1_Start:
  2606  0004                     l1938:	
  2607                           ;incstack = 0
  2608                           ; Regs used in _PWM1_Start: []
  2609                           
  2610                           
  2611                           ;PWM.c: 43:   CCP1M3 = 1;
  2612  0004  1283               	bcf	3,5	;RP0=0, select bank0
  2613  0005  1303               	bcf	3,6	;RP1=0, select bank0
  2614  0006  1597               	bsf	23,3	;volatile
  2615                           
  2616                           ;PWM.c: 44:   CCP1M2 = 1;
  2617  0007  1517               	bsf	23,2	;volatile
  2618                           
  2619                           ;PWM.c: 55:   TMR2ON = 1;
  2620  0008  1512               	bsf	18,2	;volatile
  2621                           
  2622                           ;PWM.c: 56:   TRISC2 = 0;
  2623  0009  1683               	bsf	3,5	;RP0=1, select bank1
  2624  000A  1303               	bcf	3,6	;RP1=0, select bank1
  2625  000B  1107               	bcf	7,2	;volatile
  2626  000C                     l46:
  2627  000C  0008               	return
  2628  000D                     __end_of_PWM1_Start:
  2629                           
  2630                           	psect	text11
  2631  0E70                     __ptext11:	
  2632 ;; *************** function _PWM1_Duty *****************
  2633 ;; Defined at:
  2634 ;;		line 17 in file "PWM.c"
  2635 ;; Parameters:    Size  Location     Type
  2636 ;;  duty            2    0[BANK1 ] unsigned int 
  2637 ;;  freq            2    2[BANK1 ] unsigned int 
  2638 ;; Auto vars:     Size  Location     Type
  2639 ;;		None
  2640 ;; Return value:  Size  Location     Type
  2641 ;;                  1    wreg      void 
  2642 ;; Registers used:
  2643 ;;		wreg, status,2, status,0, btemp+1, pclath, cstack
  2644 ;; Tracked objects:
  2645 ;;		On entry : 0/0
  2646 ;;		On exit  : 0/0
  2647 ;;		Unchanged: 0/0
  2648 ;; Data sizes:     COMMON   BANK0   BANK1   BANK3   BANK2
  2649 ;;      Params:         0       0       4       0       0
  2650 ;;      Locals:         0       0       0       0       0
  2651 ;;      Temps:          0       0       2       0       0
  2652 ;;      Totals:         0       0       6       0       0
  2653 ;;Total ram usage:        6 bytes
  2654 ;; Hardware stack levels used: 1
  2655 ;; Hardware stack levels required when called: 2
  2656 ;; This function calls:
  2657 ;;		_PWM_Init
  2658 ;;		___aldiv
  2659 ;;		___fldiv
  2660 ;;		___flmul
  2661 ;;		___fltol
  2662 ;;		___xxtofl
  2663 ;; This function is called by:
  2664 ;;		_main
  2665 ;; This function uses a non-reentrant model
  2666 ;;
  2667                           
  2668                           
  2669                           ;psect for function _PWM1_Duty
  2670  0E70                     _PWM1_Duty:
  2671  0E70                     l1914:	
  2672                           ;incstack = 0
  2673                           ; Regs used in _PWM1_Duty: [wreg+status,2+status,0+btemp+1+pclath+cstack]
  2674                           
  2675                           
  2676                           ;PWM.c: 17: void PWM1_Duty(unsigned int duty, unsigned int freq);PWM.c: 18: {;PWM.c: 19:
      +                             PWM_Init(freq);
  2677  0E70  1683               	bsf	3,5	;RP0=1, select bank1
  2678  0E71  1303               	bcf	3,6	;RP1=0, select bank1
  2679  0E72  0822               	movf	PWM1_Duty@freq^(0+128),w
  2680  0E73  1283               	bcf	3,5	;RP0=0, select bank0
  2681  0E74  1303               	bcf	3,6	;RP1=0, select bank0
  2682  0E75  00A6               	movwf	PWM_Init@freq
  2683  0E76  1683               	bsf	3,5	;RP0=1, select bank1
  2684  0E77  1303               	bcf	3,6	;RP1=0, select bank1
  2685  0E78  0823               	movf	(PWM1_Duty@freq+1)^(0+128),w
  2686  0E79  1283               	bcf	3,5	;RP0=0, select bank0
  2687  0E7A  1303               	bcf	3,6	;RP1=0, select bank0
  2688  0E7B  00A7               	movwf	PWM_Init@freq+1
  2689  0E7C  01A8               	clrf	PWM_Init@freq+2
  2690  0E7D  01A9               	clrf	PWM_Init@freq+3
  2691  0E7E  120A  158A  23C7  120A  158A  	fcall	_PWM_Init
  2692  0E83                     l1916:
  2693                           
  2694                           ;PWM.c: 20:   if(duty<1024)
  2695  0E83  3004               	movlw	4
  2696  0E84  1683               	bsf	3,5	;RP0=1, select bank1
  2697  0E85  1303               	bcf	3,6	;RP1=0, select bank1
  2698  0E86  0221               	subwf	(PWM1_Duty@duty+1)^(0+128),w
  2699  0E87  3000               	movlw	0
  2700  0E88  1903               	skipnz
  2701  0E89  0220               	subwf	PWM1_Duty@duty^(0+128),w
  2702  0E8A  1803               	skipnc
  2703  0E8B  2E8D               	goto	u2721
  2704  0E8C  2E8E               	goto	u2720
  2705  0E8D                     u2721:
  2706  0E8D  2F37               	goto	l39
  2707  0E8E                     u2720:
  2708  0E8E                     l1918:
  2709                           
  2710                           ;PWM.c: 21:   {;PWM.c: 22:     duty = ((float)duty/1023.0)*(4000000/(freq*4));
  2711  0E8E  0820               	movf	PWM1_Duty@duty^(0+128),w
  2712  0E8F  1283               	bcf	3,5	;RP0=0, select bank0
  2713  0E90  1303               	bcf	3,6	;RP1=0, select bank0
  2714  0E91  00A6               	movwf	___xxtofl@val
  2715  0E92  1683               	bsf	3,5	;RP0=1, select bank1
  2716  0E93  1303               	bcf	3,6	;RP1=0, select bank1
  2717  0E94  0821               	movf	(PWM1_Duty@duty+1)^(0+128),w
  2718  0E95  1283               	bcf	3,5	;RP0=0, select bank0
  2719  0E96  1303               	bcf	3,6	;RP1=0, select bank0
  2720  0E97  00A7               	movwf	___xxtofl@val+1
  2721  0E98  01A8               	clrf	___xxtofl@val+2
  2722  0E99  01A9               	clrf	___xxtofl@val+3
  2723  0E9A  3000               	movlw	0
  2724  0E9B  120A  118A  200D  120A  158A  	fcall	___xxtofl
  2725  0EA0  1283               	bcf	3,5	;RP0=0, select bank0
  2726  0EA1  1303               	bcf	3,6	;RP1=0, select bank0
  2727  0EA2  0829               	movf	?___xxtofl+3,w
  2728  0EA3  00B7               	movwf	___fldiv@b+3
  2729  0EA4  0828               	movf	?___xxtofl+2,w
  2730  0EA5  00B6               	movwf	___fldiv@b+2
  2731  0EA6  0827               	movf	?___xxtofl+1,w
  2732  0EA7  00B5               	movwf	___fldiv@b+1
  2733  0EA8  0826               	movf	?___xxtofl,w
  2734  0EA9  00B4               	movwf	___fldiv@b
  2735  0EAA  3044               	movlw	68
  2736  0EAB  00B3               	movwf	___fldiv@a+3
  2737  0EAC  307F               	movlw	127
  2738  0EAD  00B2               	movwf	___fldiv@a+2
  2739  0EAE  30C0               	movlw	192
  2740  0EAF  00B1               	movwf	___fldiv@a+1
  2741  0EB0  3000               	movlw	0
  2742  0EB1  00B0               	movwf	___fldiv@a
  2743  0EB2  120A  118A  22B2  120A  158A  	fcall	___fldiv
  2744  0EB7  1283               	bcf	3,5	;RP0=0, select bank0
  2745  0EB8  1303               	bcf	3,6	;RP1=0, select bank0
  2746  0EB9  0833               	movf	?___fldiv+3,w
  2747  0EBA  00D1               	movwf	___flmul@a+3
  2748  0EBB  0832               	movf	?___fldiv+2,w
  2749  0EBC  00D0               	movwf	___flmul@a+2
  2750  0EBD  0831               	movf	?___fldiv+1,w
  2751  0EBE  00CF               	movwf	___flmul@a+1
  2752  0EBF  0830               	movf	?___fldiv,w
  2753  0EC0  00CE               	movwf	___flmul@a
  2754  0EC1  3000               	movlw	0
  2755  0EC2  00F7               	movwf	___aldiv@dividend+3
  2756  0EC3  303D               	movlw	61
  2757  0EC4  00F6               	movwf	___aldiv@dividend+2
  2758  0EC5  3009               	movlw	9
  2759  0EC6  00F5               	movwf	___aldiv@dividend+1
  2760  0EC7  3000               	movlw	0
  2761  0EC8  00F4               	movwf	___aldiv@dividend
  2762  0EC9  1683               	bsf	3,5	;RP0=1, select bank1
  2763  0ECA  1303               	bcf	3,6	;RP1=0, select bank1
  2764  0ECB  0823               	movf	(PWM1_Duty@freq+1)^(0+128),w
  2765  0ECC  00A5               	movwf	(??_PWM1_Duty^(0+128)+1)
  2766  0ECD  0822               	movf	PWM1_Duty@freq^(0+128),w
  2767  0ECE  00A4               	movwf	??_PWM1_Duty^(0+128)
  2768  0ECF  1003               	clrc
  2769  0ED0  0DA4               	rlf	??_PWM1_Duty^(0+128),f
  2770  0ED1  0DA5               	rlf	(??_PWM1_Duty^(0+128)+1),f
  2771  0ED2  1003               	clrc
  2772  0ED3  0DA4               	rlf	??_PWM1_Duty^(0+128),f
  2773  0ED4  0DA5               	rlf	(??_PWM1_Duty^(0+128)+1),f
  2774  0ED5  0824               	movf	??_PWM1_Duty^(0+128),w
  2775  0ED6  00F0               	movwf	___aldiv@divisor
  2776  0ED7  0825               	movf	(??_PWM1_Duty+1)^(0+128),w
  2777  0ED8  00F1               	movwf	___aldiv@divisor+1
  2778  0ED9  01F2               	clrf	___aldiv@divisor+2
  2779  0EDA  01F3               	clrf	___aldiv@divisor+3
  2780  0EDB  120A  158A  25D3  120A  158A  	fcall	___aldiv
  2781  0EE0  0873               	movf	?___aldiv+3,w
  2782  0EE1  1283               	bcf	3,5	;RP0=0, select bank0
  2783  0EE2  1303               	bcf	3,6	;RP1=0, select bank0
  2784  0EE3  00A9               	movwf	___xxtofl@val+3
  2785  0EE4  0872               	movf	?___aldiv+2,w
  2786  0EE5  00A8               	movwf	___xxtofl@val+2
  2787  0EE6  0871               	movf	?___aldiv+1,w
  2788  0EE7  00A7               	movwf	___xxtofl@val+1
  2789  0EE8  0870               	movf	?___aldiv,w
  2790  0EE9  00A6               	movwf	___xxtofl@val
  2791  0EEA  3001               	movlw	1
  2792  0EEB  120A  118A  200D  120A  158A  	fcall	___xxtofl
  2793  0EF0  1283               	bcf	3,5	;RP0=0, select bank0
  2794  0EF1  1303               	bcf	3,6	;RP1=0, select bank0
  2795  0EF2  0829               	movf	?___xxtofl+3,w
  2796  0EF3  00CD               	movwf	___flmul@b+3
  2797  0EF4  0828               	movf	?___xxtofl+2,w
  2798  0EF5  00CC               	movwf	___flmul@b+2
  2799  0EF6  0827               	movf	?___xxtofl+1,w
  2800  0EF7  00CB               	movwf	___flmul@b+1
  2801  0EF8  0826               	movf	?___xxtofl,w
  2802  0EF9  00CA               	movwf	___flmul@b
  2803  0EFA  120A  118A  248F  120A  158A  	fcall	___flmul
  2804  0EFF  1283               	bcf	3,5	;RP0=0, select bank0
  2805  0F00  1303               	bcf	3,6	;RP1=0, select bank0
  2806  0F01  084D               	movf	?___flmul+3,w
  2807  0F02  00E7               	movwf	___fltol@f1+3
  2808  0F03  084C               	movf	?___flmul+2,w
  2809  0F04  00E6               	movwf	___fltol@f1+2
  2810  0F05  084B               	movf	?___flmul+1,w
  2811  0F06  00E5               	movwf	___fltol@f1+1
  2812  0F07  084A               	movf	?___flmul,w
  2813  0F08  00E4               	movwf	___fltol@f1
  2814  0F09  120A  158A  2557  120A  158A  	fcall	___fltol
  2815  0F0E  1283               	bcf	3,5	;RP0=0, select bank0
  2816  0F0F  1303               	bcf	3,6	;RP1=0, select bank0
  2817  0F10  0865               	movf	?___fltol+1,w
  2818  0F11  1683               	bsf	3,5	;RP0=1, select bank1
  2819  0F12  1303               	bcf	3,6	;RP1=0, select bank1
  2820  0F13  00A1               	movwf	(PWM1_Duty@duty+1)^(0+128)
  2821  0F14  1283               	bcf	3,5	;RP0=0, select bank0
  2822  0F15  1303               	bcf	3,6	;RP1=0, select bank0
  2823  0F16  0864               	movf	?___fltol,w
  2824  0F17  1683               	bsf	3,5	;RP0=1, select bank1
  2825  0F18  1303               	bcf	3,6	;RP1=0, select bank1
  2826  0F19  00A0               	movwf	PWM1_Duty@duty^(0+128)
  2827  0F1A                     l1920:
  2828                           
  2829                           ;PWM.c: 23:     CCP1X = duty & 0b00000010;
  2830  0F1A  1283               	bcf	3,5	;RP0=0, select bank0
  2831  0F1B  1303               	bcf	3,6	;RP1=0, select bank0
  2832  0F1C  1297               	bcf	23,5	;volatile
  2833  0F1D                     l1922:
  2834                           
  2835                           ;PWM.c: 24:     CCP1Y = duty & 0b00000001;
  2836  0F1D  1683               	bsf	3,5	;RP0=1, select bank1
  2837  0F1E  1303               	bcf	3,6	;RP1=0, select bank1
  2838  0F1F  1820               	btfsc	PWM1_Duty@duty^(0+128),0
  2839  0F20  2F22               	goto	u2731
  2840  0F21  2F26               	goto	u2730
  2841  0F22                     u2731:
  2842  0F22  1283               	bcf	3,5	;RP0=0, select bank0
  2843  0F23  1303               	bcf	3,6	;RP1=0, select bank0
  2844  0F24  1617               	bsf	23,4	;volatile
  2845  0F25  2F29               	goto	u2744
  2846  0F26                     u2730:
  2847  0F26  1283               	bcf	3,5	;RP0=0, select bank0
  2848  0F27  1303               	bcf	3,6	;RP1=0, select bank0
  2849  0F28  1217               	bcf	23,4	;volatile
  2850  0F29                     u2744:
  2851  0F29                     l1924:
  2852                           
  2853                           ;PWM.c: 25:     CCPR1L = (unsigned char)duty>>2;
  2854  0F29  1683               	bsf	3,5	;RP0=1, select bank1
  2855  0F2A  1303               	bcf	3,6	;RP1=0, select bank1
  2856  0F2B  0820               	movf	PWM1_Duty@duty^(0+128),w
  2857  0F2C  00A4               	movwf	??_PWM1_Duty^(0+128)
  2858  0F2D  3002               	movlw	2
  2859  0F2E                     u2755:
  2860  0F2E  1003               	clrc
  2861  0F2F  0CA4               	rrf	??_PWM1_Duty^(0+128),f
  2862  0F30  3EFF               	addlw	-1
  2863  0F31  1D03               	skipz
  2864  0F32  2F2E               	goto	u2755
  2865  0F33  0824               	movf	??_PWM1_Duty^(0+128),w
  2866  0F34  1283               	bcf	3,5	;RP0=0, select bank0
  2867  0F35  1303               	bcf	3,6	;RP1=0, select bank0
  2868  0F36  0095               	movwf	21	;volatile
  2869  0F37                     l39:
  2870  0F37  0008               	return
  2871  0F38                     __end_of_PWM1_Duty:
  2872                           
  2873                           	psect	text12
  2874  000D                     __ptext12:	
  2875 ;; *************** function ___xxtofl *****************
  2876 ;; Defined at:
  2877 ;;		line 10 in file "C:\Program Files\Microchip\xc8\v2.32\pic\sources\c90\common\xxtofl.c"
  2878 ;; Parameters:    Size  Location     Type
  2879 ;;  sign            1    wreg     unsigned char 
  2880 ;;  val             4    6[BANK0 ] long 
  2881 ;; Auto vars:     Size  Location     Type
  2882 ;;  sign            1   10[BANK0 ] unsigned char 
  2883 ;;  arg             4   12[BANK0 ] unsigned long 
  2884 ;;  exp             1   11[BANK0 ] unsigned char 
  2885 ;; Return value:  Size  Location     Type
  2886 ;;                  4    6[BANK0 ] unsigned char 
  2887 ;; Registers used:
  2888 ;;		wreg, status,2, status,0
  2889 ;; Tracked objects:
  2890 ;;		On entry : 0/0
  2891 ;;		On exit  : 0/0
  2892 ;;		Unchanged: 0/0
  2893 ;; Data sizes:     COMMON   BANK0   BANK1   BANK3   BANK2
  2894 ;;      Params:         0       4       0       0       0
  2895 ;;      Locals:         0       6       0       0       0
  2896 ;;      Temps:          4       0       0       0       0
  2897 ;;      Totals:         4      10       0       0       0
  2898 ;;Total ram usage:       14 bytes
  2899 ;; Hardware stack levels used: 1
  2900 ;; This function calls:
  2901 ;;		Nothing
  2902 ;; This function is called by:
  2903 ;;		_PWM1_Duty
  2904 ;;		_PWM2_Duty
  2905 ;; This function uses a non-reentrant model
  2906 ;;
  2907                           
  2908                           
  2909                           ;psect for function ___xxtofl
  2910  000D                     ___xxtofl:
  2911                           
  2912                           ;incstack = 0
  2913                           ; Regs used in ___xxtofl: [wreg+status,2+status,0]
  2914                           ;___xxtofl@sign stored from wreg
  2915  000D  1283               	bcf	3,5	;RP0=0, select bank0
  2916  000E  1303               	bcf	3,6	;RP1=0, select bank0
  2917  000F  00AA               	movwf	___xxtofl@sign
  2918  0010                     l1870:
  2919  0010  082A               	movf	___xxtofl@sign,w
  2920  0011  1903               	btfsc	3,2
  2921  0012  2814               	goto	u2581
  2922  0013  2815               	goto	u2580
  2923  0014                     u2581:
  2924  0014  2829               	goto	l1876
  2925  0015                     u2580:
  2926  0015                     l1872:
  2927  0015  1FA9               	btfss	___xxtofl@val+3,7
  2928  0016  2818               	goto	u2591
  2929  0017  2819               	goto	u2590
  2930  0018                     u2591:
  2931  0018  2829               	goto	l1876
  2932  0019                     u2590:
  2933  0019                     l1874:
  2934  0019  0926               	comf	___xxtofl@val,w
  2935  001A  00AC               	movwf	___xxtofl@arg
  2936  001B  0927               	comf	___xxtofl@val+1,w
  2937  001C  00AD               	movwf	___xxtofl@arg+1
  2938  001D  0928               	comf	___xxtofl@val+2,w
  2939  001E  00AE               	movwf	___xxtofl@arg+2
  2940  001F  0929               	comf	___xxtofl@val+3,w
  2941  0020  00AF               	movwf	___xxtofl@arg+3
  2942  0021  0AAC               	incf	___xxtofl@arg,f
  2943  0022  1903               	skipnz
  2944  0023  0AAD               	incf	___xxtofl@arg+1,f
  2945  0024  1903               	skipnz
  2946  0025  0AAE               	incf	___xxtofl@arg+2,f
  2947  0026  1903               	skipnz
  2948  0027  0AAF               	incf	___xxtofl@arg+3,f
  2949  0028  2831               	goto	l679
  2950  0029                     l1876:
  2951  0029  0829               	movf	___xxtofl@val+3,w
  2952  002A  00AF               	movwf	___xxtofl@arg+3
  2953  002B  0828               	movf	___xxtofl@val+2,w
  2954  002C  00AE               	movwf	___xxtofl@arg+2
  2955  002D  0827               	movf	___xxtofl@val+1,w
  2956  002E  00AD               	movwf	___xxtofl@arg+1
  2957  002F  0826               	movf	___xxtofl@val,w
  2958  0030  00AC               	movwf	___xxtofl@arg
  2959  0031                     l679:
  2960  0031  0829               	movf	___xxtofl@val+3,w
  2961  0032  0428               	iorwf	___xxtofl@val+2,w
  2962  0033  0427               	iorwf	___xxtofl@val+1,w
  2963  0034  0426               	iorwf	___xxtofl@val,w
  2964  0035  1D03               	skipz
  2965  0036  2838               	goto	u2601
  2966  0037  2839               	goto	u2600
  2967  0038                     u2601:
  2968  0038  2842               	goto	l1882
  2969  0039                     u2600:
  2970  0039                     l1878:
  2971  0039  3000               	movlw	0
  2972  003A  00A9               	movwf	?___xxtofl+3
  2973  003B  3000               	movlw	0
  2974  003C  00A8               	movwf	?___xxtofl+2
  2975  003D  3000               	movlw	0
  2976  003E  00A7               	movwf	?___xxtofl+1
  2977  003F  3000               	movlw	0
  2978  0040  00A6               	movwf	?___xxtofl
  2979  0041  28C8               	goto	l681
  2980  0042                     l1882:
  2981  0042  3096               	movlw	150
  2982  0043  00F9               	movwf	??___xxtofl
  2983  0044  0879               	movf	??___xxtofl,w
  2984  0045  00AB               	movwf	___xxtofl@exp
  2985  0046  2854               	goto	l1886
  2986  0047                     l1884:
  2987  0047  3001               	movlw	1
  2988  0048  00F9               	movwf	??___xxtofl
  2989  0049  0879               	movf	??___xxtofl,w
  2990  004A  07AB               	addwf	___xxtofl@exp,f
  2991  004B  3001               	movlw	1
  2992  004C                     u2615:
  2993  004C  1003               	clrc
  2994  004D  0CAF               	rrf	___xxtofl@arg+3,f
  2995  004E  0CAE               	rrf	___xxtofl@arg+2,f
  2996  004F  0CAD               	rrf	___xxtofl@arg+1,f
  2997  0050  0CAC               	rrf	___xxtofl@arg,f
  2998  0051  3EFF               	addlw	-1
  2999  0052  1D03               	skipz
  3000  0053  284C               	goto	u2615
  3001  0054                     l1886:
  3002  0054  30FE               	movlw	254
  3003  0055  052F               	andwf	___xxtofl@arg+3,w
  3004  0056  1D03               	btfss	3,2
  3005  0057  2859               	goto	u2621
  3006  0058  285A               	goto	u2620
  3007  0059                     u2621:
  3008  0059  2847               	goto	l1884
  3009  005A                     u2620:
  3010  005A  2876               	goto	l685
  3011  005B                     l1888:
  3012  005B  3001               	movlw	1
  3013  005C  00F9               	movwf	??___xxtofl
  3014  005D  0879               	movf	??___xxtofl,w
  3015  005E  07AB               	addwf	___xxtofl@exp,f
  3016  005F                     l1890:
  3017  005F  3001               	movlw	1
  3018  0060  07AC               	addwf	___xxtofl@arg,f
  3019  0061  3000               	movlw	0
  3020  0062  1803               	skipnc
  3021  0063  3001               	movlw	1
  3022  0064  07AD               	addwf	___xxtofl@arg+1,f
  3023  0065  3000               	movlw	0
  3024  0066  1803               	skipnc
  3025  0067  3001               	movlw	1
  3026  0068  07AE               	addwf	___xxtofl@arg+2,f
  3027  0069  3000               	movlw	0
  3028  006A  1803               	skipnc
  3029  006B  3001               	movlw	1
  3030  006C  07AF               	addwf	___xxtofl@arg+3,f
  3031  006D                     l1892:
  3032  006D  3001               	movlw	1
  3033  006E                     u2635:
  3034  006E  1003               	clrc
  3035  006F  0CAF               	rrf	___xxtofl@arg+3,f
  3036  0070  0CAE               	rrf	___xxtofl@arg+2,f
  3037  0071  0CAD               	rrf	___xxtofl@arg+1,f
  3038  0072  0CAC               	rrf	___xxtofl@arg,f
  3039  0073  3EFF               	addlw	-1
  3040  0074  1D03               	skipz
  3041  0075  286E               	goto	u2635
  3042  0076                     l685:
  3043  0076  30FF               	movlw	255
  3044  0077  052F               	andwf	___xxtofl@arg+3,w
  3045  0078  1D03               	btfss	3,2
  3046  0079  287B               	goto	u2641
  3047  007A  287C               	goto	u2640
  3048  007B                     u2641:
  3049  007B  285B               	goto	l1888
  3050  007C                     u2640:
  3051  007C  2888               	goto	l1896
  3052  007D                     l1894:
  3053  007D  3001               	movlw	1
  3054  007E  02AB               	subwf	___xxtofl@exp,f
  3055  007F  3001               	movlw	1
  3056  0080  00F9               	movwf	??___xxtofl
  3057  0081                     u2655:
  3058  0081  1003               	clrc
  3059  0082  0DAC               	rlf	___xxtofl@arg,f
  3060  0083  0DAD               	rlf	___xxtofl@arg+1,f
  3061  0084  0DAE               	rlf	___xxtofl@arg+2,f
  3062  0085  0DAF               	rlf	___xxtofl@arg+3,f
  3063  0086  0BF9               	decfsz	??___xxtofl,f
  3064  0087  2881               	goto	u2655
  3065  0088                     l1896:
  3066  0088  1BAE               	btfsc	___xxtofl@arg+2,7
  3067  0089  288B               	goto	u2661
  3068  008A  288C               	goto	u2660
  3069  008B                     u2661:
  3070  008B  2892               	goto	l692
  3071  008C                     u2660:
  3072  008C                     l1898:
  3073  008C  3002               	movlw	2
  3074  008D  022B               	subwf	___xxtofl@exp,w
  3075  008E  1803               	skipnc
  3076  008F  2891               	goto	u2671
  3077  0090  2892               	goto	u2670
  3078  0091                     u2671:
  3079  0091  287D               	goto	l1894
  3080  0092                     u2670:
  3081  0092                     l692:
  3082  0092  182B               	btfsc	___xxtofl@exp,0
  3083  0093  2895               	goto	u2681
  3084  0094  2896               	goto	u2680
  3085  0095                     u2681:
  3086  0095  289E               	goto	l693
  3087  0096                     u2680:
  3088  0096                     l1900:
  3089  0096  30FF               	movlw	255
  3090  0097  05AC               	andwf	___xxtofl@arg,f
  3091  0098  30FF               	movlw	255
  3092  0099  05AD               	andwf	___xxtofl@arg+1,f
  3093  009A  307F               	movlw	127
  3094  009B  05AE               	andwf	___xxtofl@arg+2,f
  3095  009C  30FF               	movlw	255
  3096  009D  05AF               	andwf	___xxtofl@arg+3,f
  3097  009E                     l693:
  3098  009E  1003               	clrc
  3099  009F  0CAB               	rrf	___xxtofl@exp,f
  3100  00A0                     l1902:
  3101  00A0  082B               	movf	___xxtofl@exp,w
  3102  00A1  00F9               	movwf	??___xxtofl
  3103  00A2  01FA               	clrf	??___xxtofl+1
  3104  00A3  01FB               	clrf	??___xxtofl+2
  3105  00A4  01FC               	clrf	??___xxtofl+3
  3106  00A5  3018               	movlw	24
  3107  00A6                     u2695:
  3108  00A6  1003               	clrc
  3109  00A7  0DF9               	rlf	??___xxtofl,f
  3110  00A8  0DFA               	rlf	??___xxtofl+1,f
  3111  00A9  0DFB               	rlf	??___xxtofl+2,f
  3112  00AA  0DFC               	rlf	??___xxtofl+3,f
  3113  00AB                     u2690:
  3114  00AB  3EFF               	addlw	-1
  3115  00AC  1D03               	skipz
  3116  00AD  28A6               	goto	u2695
  3117  00AE  0879               	movf	??___xxtofl,w
  3118  00AF  04AC               	iorwf	___xxtofl@arg,f
  3119  00B0  087A               	movf	??___xxtofl+1,w
  3120  00B1  04AD               	iorwf	___xxtofl@arg+1,f
  3121  00B2  087B               	movf	??___xxtofl+2,w
  3122  00B3  04AE               	iorwf	___xxtofl@arg+2,f
  3123  00B4  087C               	movf	??___xxtofl+3,w
  3124  00B5  04AF               	iorwf	___xxtofl@arg+3,f
  3125  00B6                     l1904:
  3126  00B6  082A               	movf	___xxtofl@sign,w
  3127  00B7  1903               	btfsc	3,2
  3128  00B8  28BA               	goto	u2701
  3129  00B9  28BB               	goto	u2700
  3130  00BA                     u2701:
  3131  00BA  28C0               	goto	l1910
  3132  00BB                     u2700:
  3133  00BB                     l1906:
  3134  00BB  1FA9               	btfss	___xxtofl@val+3,7
  3135  00BC  28BE               	goto	u2711
  3136  00BD  28BF               	goto	u2710
  3137  00BE                     u2711:
  3138  00BE  28C0               	goto	l1910
  3139  00BF                     u2710:
  3140  00BF                     l1908:
  3141  00BF  17AF               	bsf	___xxtofl@arg+3,7
  3142  00C0                     l1910:
  3143  00C0  082F               	movf	___xxtofl@arg+3,w
  3144  00C1  00A9               	movwf	?___xxtofl+3
  3145  00C2  082E               	movf	___xxtofl@arg+2,w
  3146  00C3  00A8               	movwf	?___xxtofl+2
  3147  00C4  082D               	movf	___xxtofl@arg+1,w
  3148  00C5  00A7               	movwf	?___xxtofl+1
  3149  00C6  082C               	movf	___xxtofl@arg,w
  3150  00C7  00A6               	movwf	?___xxtofl
  3151  00C8                     l681:
  3152  00C8  0008               	return
  3153  00C9                     __end_of___xxtofl:
  3154                           
  3155                           	psect	text13
  3156  0D57                     __ptext13:	
  3157 ;; *************** function ___fltol *****************
  3158 ;; Defined at:
  3159 ;;		line 43 in file "C:\Program Files\Microchip\xc8\v2.32\pic\sources\c90\common\fltol.c"
  3160 ;; Parameters:    Size  Location     Type
  3161 ;;  f1              4   68[BANK0 ] unsigned char 
  3162 ;; Auto vars:     Size  Location     Type
  3163 ;;  exp1            1   78[BANK0 ] unsigned char 
  3164 ;;  sign1           1   77[BANK0 ] unsigned char 
  3165 ;; Return value:  Size  Location     Type
  3166 ;;                  4   68[BANK0 ] long 
  3167 ;; Registers used:
  3168 ;;		wreg, status,2, status,0
  3169 ;; Tracked objects:
  3170 ;;		On entry : 0/0
  3171 ;;		On exit  : 0/0
  3172 ;;		Unchanged: 0/0
  3173 ;; Data sizes:     COMMON   BANK0   BANK1   BANK3   BANK2
  3174 ;;      Params:         0       4       0       0       0
  3175 ;;      Locals:         0       2       0       0       0
  3176 ;;      Temps:          0       5       0       0       0
  3177 ;;      Totals:         0      11       0       0       0
  3178 ;;Total ram usage:       11 bytes
  3179 ;; Hardware stack levels used: 1
  3180 ;; This function calls:
  3181 ;;		Nothing
  3182 ;; This function is called by:
  3183 ;;		_PWM1_Duty
  3184 ;;		_PWM2_Duty
  3185 ;; This function uses a non-reentrant model
  3186 ;;
  3187                           
  3188                           
  3189                           ;psect for function ___fltol
  3190  0D57                     ___fltol:
  3191  0D57                     l1504:	
  3192                           ;incstack = 0
  3193                           ; Regs used in ___fltol: [wreg+status,2+status,0]
  3194                           
  3195  0D57  1003               	clrc
  3196  0D58  1283               	bcf	3,5	;RP0=0, select bank0
  3197  0D59  1303               	bcf	3,6	;RP1=0, select bank0
  3198  0D5A  0D66               	rlf	___fltol@f1+2,w
  3199  0D5B  0D67               	rlf	___fltol@f1+3,w
  3200  0D5C  00E8               	movwf	??___fltol
  3201  0D5D  0868               	movf	??___fltol,w
  3202  0D5E  00EE               	movwf	___fltol@exp1
  3203  0D5F  086E               	movf	___fltol@exp1,w
  3204  0D60  1D03               	btfss	3,2
  3205  0D61  2D63               	goto	u1691
  3206  0D62  2D64               	goto	u1690
  3207  0D63                     u1691:
  3208  0D63  2D6D               	goto	l1510
  3209  0D64                     u1690:
  3210  0D64                     l1506:
  3211  0D64  3000               	movlw	0
  3212  0D65  00E7               	movwf	?___fltol+3
  3213  0D66  3000               	movlw	0
  3214  0D67  00E6               	movwf	?___fltol+2
  3215  0D68  3000               	movlw	0
  3216  0D69  00E5               	movwf	?___fltol+1
  3217  0D6A  3000               	movlw	0
  3218  0D6B  00E4               	movwf	?___fltol
  3219  0D6C  2DD2               	goto	l432
  3220  0D6D                     l1510:
  3221  0D6D  0864               	movf	___fltol@f1,w
  3222  0D6E  00E8               	movwf	??___fltol
  3223  0D6F  0865               	movf	___fltol@f1+1,w
  3224  0D70  00E9               	movwf	??___fltol+1
  3225  0D71  0866               	movf	___fltol@f1+2,w
  3226  0D72  00EA               	movwf	??___fltol+2
  3227  0D73  0867               	movf	___fltol@f1+3,w
  3228  0D74  00EB               	movwf	??___fltol+3
  3229  0D75  301F               	movlw	31
  3230  0D76                     u1705:
  3231  0D76  1003               	clrc
  3232  0D77  0CEB               	rrf	??___fltol+3,f
  3233  0D78  0CEA               	rrf	??___fltol+2,f
  3234  0D79  0CE9               	rrf	??___fltol+1,f
  3235  0D7A  0CE8               	rrf	??___fltol,f
  3236  0D7B                     u1700:
  3237  0D7B  3EFF               	addlw	-1
  3238  0D7C  1D03               	skipz
  3239  0D7D  2D76               	goto	u1705
  3240  0D7E  0868               	movf	??___fltol,w
  3241  0D7F  00EC               	movwf	??___fltol+4
  3242  0D80  086C               	movf	??___fltol+4,w
  3243  0D81  00ED               	movwf	___fltol@sign1
  3244  0D82                     l1512:
  3245  0D82  17E6               	bsf	___fltol@f1+2,7
  3246  0D83                     l1514:
  3247  0D83  30FF               	movlw	255
  3248  0D84  05E4               	andwf	___fltol@f1,f
  3249  0D85  30FF               	movlw	255
  3250  0D86  05E5               	andwf	___fltol@f1+1,f
  3251  0D87  30FF               	movlw	255
  3252  0D88  05E6               	andwf	___fltol@f1+2,f
  3253  0D89  3000               	movlw	0
  3254  0D8A  05E7               	andwf	___fltol@f1+3,f
  3255  0D8B                     l1516:
  3256  0D8B  3096               	movlw	150
  3257  0D8C  02EE               	subwf	___fltol@exp1,f
  3258  0D8D                     l1518:
  3259  0D8D  1FEE               	btfss	___fltol@exp1,7
  3260  0D8E  2D90               	goto	u1711
  3261  0D8F  2D91               	goto	u1710
  3262  0D90                     u1711:
  3263  0D90  2DAB               	goto	l1528
  3264  0D91                     u1710:
  3265  0D91                     l1520:
  3266  0D91  086E               	movf	___fltol@exp1,w
  3267  0D92  3A80               	xorlw	128
  3268  0D93  3E97               	addlw	151
  3269  0D94  1803               	skipnc
  3270  0D95  2D97               	goto	u1721
  3271  0D96  2D98               	goto	u1720
  3272  0D97                     u1721:
  3273  0D97  2D99               	goto	l1526
  3274  0D98                     u1720:
  3275  0D98  2D64               	goto	l1506
  3276  0D99                     l1526:
  3277  0D99  3001               	movlw	1
  3278  0D9A                     u1735:
  3279  0D9A  1003               	clrc
  3280  0D9B  0CE7               	rrf	___fltol@f1+3,f
  3281  0D9C  0CE6               	rrf	___fltol@f1+2,f
  3282  0D9D  0CE5               	rrf	___fltol@f1+1,f
  3283  0D9E  0CE4               	rrf	___fltol@f1,f
  3284  0D9F  3EFF               	addlw	-1
  3285  0DA0  1D03               	skipz
  3286  0DA1  2D9A               	goto	u1735
  3287  0DA2  3001               	movlw	1
  3288  0DA3  00E8               	movwf	??___fltol
  3289  0DA4  0868               	movf	??___fltol,w
  3290  0DA5  07EE               	addwf	___fltol@exp1,f
  3291  0DA6  1D03               	btfss	3,2
  3292  0DA7  2DA9               	goto	u1741
  3293  0DA8  2DAA               	goto	u1740
  3294  0DA9                     u1741:
  3295  0DA9  2D99               	goto	l1526
  3296  0DAA                     u1740:
  3297  0DAA  2DC2               	goto	l1536
  3298  0DAB                     l1528:
  3299  0DAB  3020               	movlw	32
  3300  0DAC  026E               	subwf	___fltol@exp1,w
  3301  0DAD  1C03               	skipc
  3302  0DAE  2DB0               	goto	u1751
  3303  0DAF  2DB1               	goto	u1750
  3304  0DB0                     u1751:
  3305  0DB0  2DBD               	goto	l439
  3306  0DB1                     u1750:
  3307  0DB1  2D64               	goto	l1506
  3308  0DB2                     l1534:
  3309  0DB2  3001               	movlw	1
  3310  0DB3  00E8               	movwf	??___fltol
  3311  0DB4                     u1765:
  3312  0DB4  1003               	clrc
  3313  0DB5  0DE4               	rlf	___fltol@f1,f
  3314  0DB6  0DE5               	rlf	___fltol@f1+1,f
  3315  0DB7  0DE6               	rlf	___fltol@f1+2,f
  3316  0DB8  0DE7               	rlf	___fltol@f1+3,f
  3317  0DB9  0BE8               	decfsz	??___fltol,f
  3318  0DBA  2DB4               	goto	u1765
  3319  0DBB  3001               	movlw	1
  3320  0DBC  02EE               	subwf	___fltol@exp1,f
  3321  0DBD                     l439:
  3322  0DBD  086E               	movf	___fltol@exp1,w
  3323  0DBE  1D03               	btfss	3,2
  3324  0DBF  2DC1               	goto	u1771
  3325  0DC0  2DC2               	goto	u1770
  3326  0DC1                     u1771:
  3327  0DC1  2DB2               	goto	l1534
  3328  0DC2                     u1770:
  3329  0DC2                     l1536:
  3330  0DC2  086D               	movf	___fltol@sign1,w
  3331  0DC3  1903               	btfsc	3,2
  3332  0DC4  2DC6               	goto	u1781
  3333  0DC5  2DC7               	goto	u1780
  3334  0DC6                     u1781:
  3335  0DC6  2DD2               	goto	l442
  3336  0DC7                     u1780:
  3337  0DC7                     l1538:
  3338  0DC7  09E4               	comf	___fltol@f1,f
  3339  0DC8  09E5               	comf	___fltol@f1+1,f
  3340  0DC9  09E6               	comf	___fltol@f1+2,f
  3341  0DCA  09E7               	comf	___fltol@f1+3,f
  3342  0DCB  0AE4               	incf	___fltol@f1,f
  3343  0DCC  1903               	skipnz
  3344  0DCD  0AE5               	incf	___fltol@f1+1,f
  3345  0DCE  1903               	skipnz
  3346  0DCF  0AE6               	incf	___fltol@f1+2,f
  3347  0DD0  1903               	skipnz
  3348  0DD1  0AE7               	incf	___fltol@f1+3,f
  3349  0DD2                     l442:
  3350  0DD2                     l432:
  3351  0DD2  0008               	return
  3352  0DD3                     __end_of___fltol:
  3353                           
  3354                           	psect	text14
  3355  048F                     __ptext14:	
  3356 ;; *************** function ___flmul *****************
  3357 ;; Defined at:
  3358 ;;		line 8 in file "C:\Program Files\Microchip\xc8\v2.32\pic\sources\c90\common\sprcmul.c"
  3359 ;; Parameters:    Size  Location     Type
  3360 ;;  b               4   42[BANK0 ] long 
  3361 ;;  a               4   46[BANK0 ] long 
  3362 ;; Auto vars:     Size  Location     Type
  3363 ;;  prod            4   62[BANK0 ] struct .
  3364 ;;  grs             4   56[BANK0 ] unsigned long 
  3365 ;;  temp            2   66[BANK0 ] struct .
  3366 ;;  bexp            1   61[BANK0 ] unsigned char 
  3367 ;;  aexp            1   60[BANK0 ] unsigned char 
  3368 ;;  sign            1   55[BANK0 ] unsigned char 
  3369 ;; Return value:  Size  Location     Type
  3370 ;;                  4   42[BANK0 ] unsigned char 
  3371 ;; Registers used:
  3372 ;;		wreg, status,2, status,0, btemp+1, pclath, cstack
  3373 ;; Tracked objects:
  3374 ;;		On entry : 0/0
  3375 ;;		On exit  : 0/0
  3376 ;;		Unchanged: 0/0
  3377 ;; Data sizes:     COMMON   BANK0   BANK1   BANK3   BANK2
  3378 ;;      Params:         0       8       0       0       0
  3379 ;;      Locals:         0      13       0       0       0
  3380 ;;      Temps:          0       5       0       0       0
  3381 ;;      Totals:         0      26       0       0       0
  3382 ;;Total ram usage:       26 bytes
  3383 ;; Hardware stack levels used: 1
  3384 ;; Hardware stack levels required when called: 1
  3385 ;; This function calls:
  3386 ;;		__Umul8_16
  3387 ;; This function is called by:
  3388 ;;		_PWM1_Duty
  3389 ;;		_PWM2_Duty
  3390 ;; This function uses a non-reentrant model
  3391 ;;
  3392                           
  3393                           
  3394                           ;psect for function ___flmul
  3395  048F                     ___flmul:
  3396  048F                     l1730:	
  3397                           ;incstack = 0
  3398                           ; Regs used in ___flmul: [wreg+status,2+status,0+btemp+1+pclath+cstack]
  3399                           
  3400  048F  1283               	bcf	3,5	;RP0=0, select bank0
  3401  0490  1303               	bcf	3,6	;RP1=0, select bank0
  3402  0491  084D               	movf	___flmul@b+3,w
  3403  0492  3980               	andlw	128
  3404  0493  00D2               	movwf	??___flmul
  3405  0494  0852               	movf	??___flmul,w
  3406  0495  00D7               	movwf	___flmul@sign
  3407  0496                     l1732:
  3408  0496  084D               	movf	___flmul@b+3,w
  3409  0497  00D2               	movwf	??___flmul
  3410  0498  0752               	addwf	??___flmul,w
  3411  0499  00D3               	movwf	??___flmul+1
  3412  049A  0853               	movf	??___flmul+1,w
  3413  049B  00DD               	movwf	___flmul@bexp
  3414  049C                     l1734:
  3415  049C  1FCC               	btfss	___flmul@b+2,7
  3416  049D  2C9F               	goto	u2211
  3417  049E  2CA0               	goto	u2210
  3418  049F                     u2211:
  3419  049F  2CA1               	goto	l1738
  3420  04A0                     u2210:
  3421  04A0                     l1736:
  3422  04A0  145D               	bsf	___flmul@bexp,0
  3423  04A1                     l1738:
  3424  04A1  085D               	movf	___flmul@bexp,w
  3425  04A2  1903               	btfsc	3,2
  3426  04A3  2CA5               	goto	u2221
  3427  04A4  2CA6               	goto	u2220
  3428  04A5                     u2221:
  3429  04A5  2CB5               	goto	l1746
  3430  04A6                     u2220:
  3431  04A6                     l1740:
  3432  04A6  0A5D               	incf	___flmul@bexp,w
  3433  04A7  1D03               	btfss	3,2
  3434  04A8  2CAA               	goto	u2231
  3435  04A9  2CAB               	goto	u2230
  3436  04AA                     u2231:
  3437  04AA  2CB3               	goto	l1744
  3438  04AB                     u2230:
  3439  04AB                     l1742:
  3440  04AB  3000               	movlw	0
  3441  04AC  00CD               	movwf	___flmul@b+3
  3442  04AD  3000               	movlw	0
  3443  04AE  00CC               	movwf	___flmul@b+2
  3444  04AF  3000               	movlw	0
  3445  04B0  00CB               	movwf	___flmul@b+1
  3446  04B1  3000               	movlw	0
  3447  04B2  00CA               	movwf	___flmul@b
  3448  04B3                     l1744:
  3449  04B3  17CC               	bsf	___flmul@b+2,7
  3450  04B4  2CBD               	goto	l1748
  3451  04B5                     l1746:
  3452  04B5  3000               	movlw	0
  3453  04B6  00CD               	movwf	___flmul@b+3
  3454  04B7  3000               	movlw	0
  3455  04B8  00CC               	movwf	___flmul@b+2
  3456  04B9  3000               	movlw	0
  3457  04BA  00CB               	movwf	___flmul@b+1
  3458  04BB  3000               	movlw	0
  3459  04BC  00CA               	movwf	___flmul@b
  3460  04BD                     l1748:
  3461  04BD  0851               	movf	___flmul@a+3,w
  3462  04BE  3980               	andlw	128
  3463  04BF  00D2               	movwf	??___flmul
  3464  04C0  0852               	movf	??___flmul,w
  3465  04C1  06D7               	xorwf	___flmul@sign,f
  3466  04C2                     l1750:
  3467  04C2  0851               	movf	___flmul@a+3,w
  3468  04C3  00D2               	movwf	??___flmul
  3469  04C4  0752               	addwf	??___flmul,w
  3470  04C5  00D3               	movwf	??___flmul+1
  3471  04C6  0853               	movf	??___flmul+1,w
  3472  04C7  00DC               	movwf	___flmul@aexp
  3473  04C8                     l1752:
  3474  04C8  1FD0               	btfss	___flmul@a+2,7
  3475  04C9  2CCB               	goto	u2241
  3476  04CA  2CCC               	goto	u2240
  3477  04CB                     u2241:
  3478  04CB  2CCD               	goto	l1756
  3479  04CC                     u2240:
  3480  04CC                     l1754:
  3481  04CC  145C               	bsf	___flmul@aexp,0
  3482  04CD                     l1756:
  3483  04CD  085C               	movf	___flmul@aexp,w
  3484  04CE  1903               	btfsc	3,2
  3485  04CF  2CD1               	goto	u2251
  3486  04D0  2CD2               	goto	u2250
  3487  04D1                     u2251:
  3488  04D1  2CE1               	goto	l1764
  3489  04D2                     u2250:
  3490  04D2                     l1758:
  3491  04D2  0A5C               	incf	___flmul@aexp,w
  3492  04D3  1D03               	btfss	3,2
  3493  04D4  2CD6               	goto	u2261
  3494  04D5  2CD7               	goto	u2260
  3495  04D6                     u2261:
  3496  04D6  2CDF               	goto	l1762
  3497  04D7                     u2260:
  3498  04D7                     l1760:
  3499  04D7  3000               	movlw	0
  3500  04D8  00D1               	movwf	___flmul@a+3
  3501  04D9  3000               	movlw	0
  3502  04DA  00D0               	movwf	___flmul@a+2
  3503  04DB  3000               	movlw	0
  3504  04DC  00CF               	movwf	___flmul@a+1
  3505  04DD  3000               	movlw	0
  3506  04DE  00CE               	movwf	___flmul@a
  3507  04DF                     l1762:
  3508  04DF  17D0               	bsf	___flmul@a+2,7
  3509  04E0  2CE9               	goto	l1766
  3510  04E1                     l1764:
  3511  04E1  3000               	movlw	0
  3512  04E2  00D1               	movwf	___flmul@a+3
  3513  04E3  3000               	movlw	0
  3514  04E4  00D0               	movwf	___flmul@a+2
  3515  04E5  3000               	movlw	0
  3516  04E6  00CF               	movwf	___flmul@a+1
  3517  04E7  3000               	movlw	0
  3518  04E8  00CE               	movwf	___flmul@a
  3519  04E9                     l1766:
  3520  04E9  085C               	movf	___flmul@aexp,w
  3521  04EA  1903               	btfsc	3,2
  3522  04EB  2CED               	goto	u2271
  3523  04EC  2CEE               	goto	u2270
  3524  04ED                     u2271:
  3525  04ED  2CF3               	goto	l1770
  3526  04EE                     u2270:
  3527  04EE                     l1768:
  3528  04EE  085D               	movf	___flmul@bexp,w
  3529  04EF  1D03               	btfss	3,2
  3530  04F0  2CF2               	goto	u2281
  3531  04F1  2CF3               	goto	u2280
  3532  04F2                     u2281:
  3533  04F2  2CFC               	goto	l1774
  3534  04F3                     u2280:
  3535  04F3                     l1770:
  3536  04F3  3000               	movlw	0
  3537  04F4  00CD               	movwf	?___flmul+3
  3538  04F5  3000               	movlw	0
  3539  04F6  00CC               	movwf	?___flmul+2
  3540  04F7  3000               	movlw	0
  3541  04F8  00CB               	movwf	?___flmul+1
  3542  04F9  3000               	movlw	0
  3543  04FA  00CA               	movwf	?___flmul
  3544  04FB  2FEF               	goto	l635
  3545  04FC                     l1774:
  3546  04FC  084A               	movf	___flmul@b,w
  3547  04FD  00D2               	movwf	??___flmul
  3548  04FE  0852               	movf	??___flmul,w
  3549  04FF  00F0               	movwf	__Umul8_16@multiplicand
  3550  0500  0850               	movf	___flmul@a+2,w
  3551  0501  120A  158A  236C  120A  118A  	fcall	__Umul8_16
  3552  0506  0871               	movf	?__Umul8_16+1,w
  3553  0507  1283               	bcf	3,5	;RP0=0, select bank0
  3554  0508  1303               	bcf	3,6	;RP1=0, select bank0
  3555  0509  00E3               	movwf	___flmul@temp+1
  3556  050A  0870               	movf	?__Umul8_16,w
  3557  050B  00E2               	movwf	___flmul@temp
  3558  050C                     l1776:
  3559  050C  0862               	movf	___flmul@temp,w
  3560  050D  00D2               	movwf	??___flmul
  3561  050E  01D3               	clrf	??___flmul+1
  3562  050F  01D4               	clrf	??___flmul+2
  3563  0510  01D5               	clrf	??___flmul+3
  3564  0511  0855               	movf	??___flmul+3,w
  3565  0512  00DB               	movwf	___flmul@grs+3
  3566  0513  0854               	movf	??___flmul+2,w
  3567  0514  00DA               	movwf	___flmul@grs+2
  3568  0515  0853               	movf	??___flmul+1,w
  3569  0516  00D9               	movwf	___flmul@grs+1
  3570  0517  0852               	movf	??___flmul,w
  3571  0518  00D8               	movwf	___flmul@grs
  3572  0519                     l1778:
  3573  0519  0863               	movf	___flmul@temp+1,w
  3574  051A  00D2               	movwf	??___flmul
  3575  051B  01D3               	clrf	??___flmul+1
  3576  051C  01D4               	clrf	??___flmul+2
  3577  051D  01D5               	clrf	??___flmul+3
  3578  051E  0855               	movf	??___flmul+3,w
  3579  051F  00E1               	movwf	___flmul@prod+3
  3580  0520  0854               	movf	??___flmul+2,w
  3581  0521  00E0               	movwf	___flmul@prod+2
  3582  0522  0853               	movf	??___flmul+1,w
  3583  0523  00DF               	movwf	___flmul@prod+1
  3584  0524  0852               	movf	??___flmul,w
  3585  0525  00DE               	movwf	___flmul@prod
  3586  0526  084B               	movf	___flmul@b+1,w
  3587  0527  00D2               	movwf	??___flmul
  3588  0528  0852               	movf	??___flmul,w
  3589  0529  00F0               	movwf	__Umul8_16@multiplicand
  3590  052A  084F               	movf	___flmul@a+1,w
  3591  052B  120A  158A  236C  120A  118A  	fcall	__Umul8_16
  3592  0530  0871               	movf	?__Umul8_16+1,w
  3593  0531  1283               	bcf	3,5	;RP0=0, select bank0
  3594  0532  1303               	bcf	3,6	;RP1=0, select bank0
  3595  0533  00E3               	movwf	___flmul@temp+1
  3596  0534  0870               	movf	?__Umul8_16,w
  3597  0535  00E2               	movwf	___flmul@temp
  3598  0536                     l1780:
  3599  0536  0862               	movf	___flmul@temp,w
  3600  0537  00D2               	movwf	??___flmul
  3601  0538  01D3               	clrf	??___flmul+1
  3602  0539  01D4               	clrf	??___flmul+2
  3603  053A  01D5               	clrf	??___flmul+3
  3604  053B  0852               	movf	??___flmul,w
  3605  053C  07D8               	addwf	___flmul@grs,f
  3606  053D  0853               	movf	??___flmul+1,w
  3607  053E  1103               	clrz
  3608  053F  1803               	skipnc
  3609  0540  3E01               	addlw	1
  3610  0541  1903               	skipnz
  3611  0542  2D44               	goto	u2291
  3612  0543  07D9               	addwf	___flmul@grs+1,f
  3613  0544                     u2291:
  3614  0544  0854               	movf	??___flmul+2,w
  3615  0545  1103               	clrz
  3616  0546  1803               	skipnc
  3617  0547  3E01               	addlw	1
  3618  0548  1903               	skipnz
  3619  0549  2D4B               	goto	u2292
  3620  054A  07DA               	addwf	___flmul@grs+2,f
  3621  054B                     u2292:
  3622  054B  0855               	movf	??___flmul+3,w
  3623  054C  1103               	clrz
  3624  054D  1803               	skipnc
  3625  054E  3E01               	addlw	1
  3626  054F  1903               	skipnz
  3627  0550  2D52               	goto	u2293
  3628  0551  07DB               	addwf	___flmul@grs+3,f
  3629  0552                     u2293:
  3630  0552                     l1782:
  3631  0552  0863               	movf	___flmul@temp+1,w
  3632  0553  00D2               	movwf	??___flmul
  3633  0554  01D3               	clrf	??___flmul+1
  3634  0555  01D4               	clrf	??___flmul+2
  3635  0556  01D5               	clrf	??___flmul+3
  3636  0557  0852               	movf	??___flmul,w
  3637  0558  07DE               	addwf	___flmul@prod,f
  3638  0559  0853               	movf	??___flmul+1,w
  3639  055A  1103               	clrz
  3640  055B  1803               	skipnc
  3641  055C  3E01               	addlw	1
  3642  055D  1903               	skipnz
  3643  055E  2D60               	goto	u2301
  3644  055F  07DF               	addwf	___flmul@prod+1,f
  3645  0560                     u2301:
  3646  0560  0854               	movf	??___flmul+2,w
  3647  0561  1103               	clrz
  3648  0562  1803               	skipnc
  3649  0563  3E01               	addlw	1
  3650  0564  1903               	skipnz
  3651  0565  2D67               	goto	u2302
  3652  0566  07E0               	addwf	___flmul@prod+2,f
  3653  0567                     u2302:
  3654  0567  0855               	movf	??___flmul+3,w
  3655  0568  1103               	clrz
  3656  0569  1803               	skipnc
  3657  056A  3E01               	addlw	1
  3658  056B  1903               	skipnz
  3659  056C  2D6E               	goto	u2303
  3660  056D  07E1               	addwf	___flmul@prod+3,f
  3661  056E                     u2303:
  3662  056E  084C               	movf	___flmul@b+2,w
  3663  056F  00D2               	movwf	??___flmul
  3664  0570  0852               	movf	??___flmul,w
  3665  0571  00F0               	movwf	__Umul8_16@multiplicand
  3666  0572  084E               	movf	___flmul@a,w
  3667  0573  120A  158A  236C  120A  118A  	fcall	__Umul8_16
  3668  0578  0871               	movf	?__Umul8_16+1,w
  3669  0579  1283               	bcf	3,5	;RP0=0, select bank0
  3670  057A  1303               	bcf	3,6	;RP1=0, select bank0
  3671  057B  00E3               	movwf	___flmul@temp+1
  3672  057C  0870               	movf	?__Umul8_16,w
  3673  057D  00E2               	movwf	___flmul@temp
  3674  057E                     l1784:
  3675  057E  0862               	movf	___flmul@temp,w
  3676  057F  00D2               	movwf	??___flmul
  3677  0580  01D3               	clrf	??___flmul+1
  3678  0581  01D4               	clrf	??___flmul+2
  3679  0582  01D5               	clrf	??___flmul+3
  3680  0583  0852               	movf	??___flmul,w
  3681  0584  07D8               	addwf	___flmul@grs,f
  3682  0585  0853               	movf	??___flmul+1,w
  3683  0586  1103               	clrz
  3684  0587  1803               	skipnc
  3685  0588  3E01               	addlw	1
  3686  0589  1903               	skipnz
  3687  058A  2D8C               	goto	u2311
  3688  058B  07D9               	addwf	___flmul@grs+1,f
  3689  058C                     u2311:
  3690  058C  0854               	movf	??___flmul+2,w
  3691  058D  1103               	clrz
  3692  058E  1803               	skipnc
  3693  058F  3E01               	addlw	1
  3694  0590  1903               	skipnz
  3695  0591  2D93               	goto	u2312
  3696  0592  07DA               	addwf	___flmul@grs+2,f
  3697  0593                     u2312:
  3698  0593  0855               	movf	??___flmul+3,w
  3699  0594  1103               	clrz
  3700  0595  1803               	skipnc
  3701  0596  3E01               	addlw	1
  3702  0597  1903               	skipnz
  3703  0598  2D9A               	goto	u2313
  3704  0599  07DB               	addwf	___flmul@grs+3,f
  3705  059A                     u2313:
  3706  059A                     l1786:
  3707  059A  0863               	movf	___flmul@temp+1,w
  3708  059B  00D2               	movwf	??___flmul
  3709  059C  01D3               	clrf	??___flmul+1
  3710  059D  01D4               	clrf	??___flmul+2
  3711  059E  01D5               	clrf	??___flmul+3
  3712  059F  0852               	movf	??___flmul,w
  3713  05A0  07DE               	addwf	___flmul@prod,f
  3714  05A1  0853               	movf	??___flmul+1,w
  3715  05A2  1103               	clrz
  3716  05A3  1803               	skipnc
  3717  05A4  3E01               	addlw	1
  3718  05A5  1903               	skipnz
  3719  05A6  2DA8               	goto	u2321
  3720  05A7  07DF               	addwf	___flmul@prod+1,f
  3721  05A8                     u2321:
  3722  05A8  0854               	movf	??___flmul+2,w
  3723  05A9  1103               	clrz
  3724  05AA  1803               	skipnc
  3725  05AB  3E01               	addlw	1
  3726  05AC  1903               	skipnz
  3727  05AD  2DAF               	goto	u2322
  3728  05AE  07E0               	addwf	___flmul@prod+2,f
  3729  05AF                     u2322:
  3730  05AF  0855               	movf	??___flmul+3,w
  3731  05B0  1103               	clrz
  3732  05B1  1803               	skipnc
  3733  05B2  3E01               	addlw	1
  3734  05B3  1903               	skipnz
  3735  05B4  2DB6               	goto	u2323
  3736  05B5  07E1               	addwf	___flmul@prod+3,f
  3737  05B6                     u2323:
  3738  05B6                     l1788:
  3739  05B6  3008               	movlw	8
  3740  05B7  00D2               	movwf	??___flmul
  3741  05B8                     u2335:
  3742  05B8  1003               	clrc
  3743  05B9  0DD8               	rlf	___flmul@grs,f
  3744  05BA  0DD9               	rlf	___flmul@grs+1,f
  3745  05BB  0DDA               	rlf	___flmul@grs+2,f
  3746  05BC  0DDB               	rlf	___flmul@grs+3,f
  3747  05BD  0BD2               	decfsz	??___flmul,f
  3748  05BE  2DB8               	goto	u2335
  3749  05BF                     l1790:
  3750  05BF  084B               	movf	___flmul@b+1,w
  3751  05C0  00D2               	movwf	??___flmul
  3752  05C1  0852               	movf	??___flmul,w
  3753  05C2  00F0               	movwf	__Umul8_16@multiplicand
  3754  05C3  084E               	movf	___flmul@a,w
  3755  05C4  120A  158A  236C  120A  118A  	fcall	__Umul8_16
  3756  05C9  0871               	movf	?__Umul8_16+1,w
  3757  05CA  1283               	bcf	3,5	;RP0=0, select bank0
  3758  05CB  1303               	bcf	3,6	;RP1=0, select bank0
  3759  05CC  00E3               	movwf	___flmul@temp+1
  3760  05CD  0870               	movf	?__Umul8_16,w
  3761  05CE  00E2               	movwf	___flmul@temp
  3762  05CF                     l1792:
  3763  05CF  0862               	movf	___flmul@temp,w
  3764  05D0  00D2               	movwf	??___flmul
  3765  05D1  0863               	movf	___flmul@temp+1,w
  3766  05D2  00D3               	movwf	??___flmul+1
  3767  05D3  01D4               	clrf	??___flmul+2
  3768  05D4  01D5               	clrf	??___flmul+3
  3769  05D5  0852               	movf	??___flmul,w
  3770  05D6  07D8               	addwf	___flmul@grs,f
  3771  05D7  0853               	movf	??___flmul+1,w
  3772  05D8  1103               	clrz
  3773  05D9  1803               	skipnc
  3774  05DA  3E01               	addlw	1
  3775  05DB  1903               	skipnz
  3776  05DC  2DDE               	goto	u2341
  3777  05DD  07D9               	addwf	___flmul@grs+1,f
  3778  05DE                     u2341:
  3779  05DE  0854               	movf	??___flmul+2,w
  3780  05DF  1103               	clrz
  3781  05E0  1803               	skipnc
  3782  05E1  3E01               	addlw	1
  3783  05E2  1903               	skipnz
  3784  05E3  2DE5               	goto	u2342
  3785  05E4  07DA               	addwf	___flmul@grs+2,f
  3786  05E5                     u2342:
  3787  05E5  0855               	movf	??___flmul+3,w
  3788  05E6  1103               	clrz
  3789  05E7  1803               	skipnc
  3790  05E8  3E01               	addlw	1
  3791  05E9  1903               	skipnz
  3792  05EA  2DEC               	goto	u2343
  3793  05EB  07DB               	addwf	___flmul@grs+3,f
  3794  05EC                     u2343:
  3795  05EC                     l1794:
  3796  05EC  084A               	movf	___flmul@b,w
  3797  05ED  00D2               	movwf	??___flmul
  3798  05EE  0852               	movf	??___flmul,w
  3799  05EF  00F0               	movwf	__Umul8_16@multiplicand
  3800  05F0  084F               	movf	___flmul@a+1,w
  3801  05F1  120A  158A  236C  120A  118A  	fcall	__Umul8_16
  3802  05F6  0871               	movf	?__Umul8_16+1,w
  3803  05F7  1283               	bcf	3,5	;RP0=0, select bank0
  3804  05F8  1303               	bcf	3,6	;RP1=0, select bank0
  3805  05F9  00E3               	movwf	___flmul@temp+1
  3806  05FA  0870               	movf	?__Umul8_16,w
  3807  05FB  00E2               	movwf	___flmul@temp
  3808  05FC                     l1796:
  3809  05FC  0862               	movf	___flmul@temp,w
  3810  05FD  00D2               	movwf	??___flmul
  3811  05FE  0863               	movf	___flmul@temp+1,w
  3812  05FF  00D3               	movwf	??___flmul+1
  3813  0600  01D4               	clrf	??___flmul+2
  3814  0601  01D5               	clrf	??___flmul+3
  3815  0602  0852               	movf	??___flmul,w
  3816  0603  07D8               	addwf	___flmul@grs,f
  3817  0604  0853               	movf	??___flmul+1,w
  3818  0605  1103               	clrz
  3819  0606  1803               	skipnc
  3820  0607  3E01               	addlw	1
  3821  0608  1903               	skipnz
  3822  0609  2E0B               	goto	u2351
  3823  060A  07D9               	addwf	___flmul@grs+1,f
  3824  060B                     u2351:
  3825  060B  0854               	movf	??___flmul+2,w
  3826  060C  1103               	clrz
  3827  060D  1803               	skipnc
  3828  060E  3E01               	addlw	1
  3829  060F  1903               	skipnz
  3830  0610  2E12               	goto	u2352
  3831  0611  07DA               	addwf	___flmul@grs+2,f
  3832  0612                     u2352:
  3833  0612  0855               	movf	??___flmul+3,w
  3834  0613  1103               	clrz
  3835  0614  1803               	skipnc
  3836  0615  3E01               	addlw	1
  3837  0616  1903               	skipnz
  3838  0617  2E19               	goto	u2353
  3839  0618  07DB               	addwf	___flmul@grs+3,f
  3840  0619                     u2353:
  3841  0619                     l1798:
  3842  0619  3008               	movlw	8
  3843  061A  00D2               	movwf	??___flmul
  3844  061B                     u2365:
  3845  061B  1003               	clrc
  3846  061C  0DD8               	rlf	___flmul@grs,f
  3847  061D  0DD9               	rlf	___flmul@grs+1,f
  3848  061E  0DDA               	rlf	___flmul@grs+2,f
  3849  061F  0DDB               	rlf	___flmul@grs+3,f
  3850  0620  0BD2               	decfsz	??___flmul,f
  3851  0621  2E1B               	goto	u2365
  3852  0622  084A               	movf	___flmul@b,w
  3853  0623  00D2               	movwf	??___flmul
  3854  0624  0852               	movf	??___flmul,w
  3855  0625  00F0               	movwf	__Umul8_16@multiplicand
  3856  0626  084E               	movf	___flmul@a,w
  3857  0627  120A  158A  236C  120A  118A  	fcall	__Umul8_16
  3858  062C  0871               	movf	?__Umul8_16+1,w
  3859  062D  1283               	bcf	3,5	;RP0=0, select bank0
  3860  062E  1303               	bcf	3,6	;RP1=0, select bank0
  3861  062F  00E3               	movwf	___flmul@temp+1
  3862  0630  0870               	movf	?__Umul8_16,w
  3863  0631  00E2               	movwf	___flmul@temp
  3864  0632                     l1800:
  3865  0632  0862               	movf	___flmul@temp,w
  3866  0633  00D2               	movwf	??___flmul
  3867  0634  0863               	movf	___flmul@temp+1,w
  3868  0635  00D3               	movwf	??___flmul+1
  3869  0636  01D4               	clrf	??___flmul+2
  3870  0637  01D5               	clrf	??___flmul+3
  3871  0638  0852               	movf	??___flmul,w
  3872  0639  07D8               	addwf	___flmul@grs,f
  3873  063A  0853               	movf	??___flmul+1,w
  3874  063B  1103               	clrz
  3875  063C  1803               	skipnc
  3876  063D  3E01               	addlw	1
  3877  063E  1903               	skipnz
  3878  063F  2E41               	goto	u2371
  3879  0640  07D9               	addwf	___flmul@grs+1,f
  3880  0641                     u2371:
  3881  0641  0854               	movf	??___flmul+2,w
  3882  0642  1103               	clrz
  3883  0643  1803               	skipnc
  3884  0644  3E01               	addlw	1
  3885  0645  1903               	skipnz
  3886  0646  2E48               	goto	u2372
  3887  0647  07DA               	addwf	___flmul@grs+2,f
  3888  0648                     u2372:
  3889  0648  0855               	movf	??___flmul+3,w
  3890  0649  1103               	clrz
  3891  064A  1803               	skipnc
  3892  064B  3E01               	addlw	1
  3893  064C  1903               	skipnz
  3894  064D  2E4F               	goto	u2373
  3895  064E  07DB               	addwf	___flmul@grs+3,f
  3896  064F                     u2373:
  3897  064F                     l1802:
  3898  064F  084B               	movf	___flmul@b+1,w
  3899  0650  00D2               	movwf	??___flmul
  3900  0651  0852               	movf	??___flmul,w
  3901  0652  00F0               	movwf	__Umul8_16@multiplicand
  3902  0653  0850               	movf	___flmul@a+2,w
  3903  0654  120A  158A  236C  120A  118A  	fcall	__Umul8_16
  3904  0659  0871               	movf	?__Umul8_16+1,w
  3905  065A  1283               	bcf	3,5	;RP0=0, select bank0
  3906  065B  1303               	bcf	3,6	;RP1=0, select bank0
  3907  065C  00E3               	movwf	___flmul@temp+1
  3908  065D  0870               	movf	?__Umul8_16,w
  3909  065E  00E2               	movwf	___flmul@temp
  3910  065F  0862               	movf	___flmul@temp,w
  3911  0660  00D2               	movwf	??___flmul
  3912  0661  0863               	movf	___flmul@temp+1,w
  3913  0662  00D3               	movwf	??___flmul+1
  3914  0663  01D4               	clrf	??___flmul+2
  3915  0664  01D5               	clrf	??___flmul+3
  3916  0665  0852               	movf	??___flmul,w
  3917  0666  07DE               	addwf	___flmul@prod,f
  3918  0667  0853               	movf	??___flmul+1,w
  3919  0668  1103               	clrz
  3920  0669  1803               	skipnc
  3921  066A  3E01               	addlw	1
  3922  066B  1903               	skipnz
  3923  066C  2E6E               	goto	u2381
  3924  066D  07DF               	addwf	___flmul@prod+1,f
  3925  066E                     u2381:
  3926  066E  0854               	movf	??___flmul+2,w
  3927  066F  1103               	clrz
  3928  0670  1803               	skipnc
  3929  0671  3E01               	addlw	1
  3930  0672  1903               	skipnz
  3931  0673  2E75               	goto	u2382
  3932  0674  07E0               	addwf	___flmul@prod+2,f
  3933  0675                     u2382:
  3934  0675  0855               	movf	??___flmul+3,w
  3935  0676  1103               	clrz
  3936  0677  1803               	skipnc
  3937  0678  3E01               	addlw	1
  3938  0679  1903               	skipnz
  3939  067A  2E7C               	goto	u2383
  3940  067B  07E1               	addwf	___flmul@prod+3,f
  3941  067C                     u2383:
  3942  067C                     l1804:
  3943  067C  084C               	movf	___flmul@b+2,w
  3944  067D  00D2               	movwf	??___flmul
  3945  067E  0852               	movf	??___flmul,w
  3946  067F  00F0               	movwf	__Umul8_16@multiplicand
  3947  0680  084F               	movf	___flmul@a+1,w
  3948  0681  120A  158A  236C  120A  118A  	fcall	__Umul8_16
  3949  0686  0871               	movf	?__Umul8_16+1,w
  3950  0687  1283               	bcf	3,5	;RP0=0, select bank0
  3951  0688  1303               	bcf	3,6	;RP1=0, select bank0
  3952  0689  00E3               	movwf	___flmul@temp+1
  3953  068A  0870               	movf	?__Umul8_16,w
  3954  068B  00E2               	movwf	___flmul@temp
  3955  068C                     l1806:
  3956  068C  0862               	movf	___flmul@temp,w
  3957  068D  00D2               	movwf	??___flmul
  3958  068E  0863               	movf	___flmul@temp+1,w
  3959  068F  00D3               	movwf	??___flmul+1
  3960  0690  01D4               	clrf	??___flmul+2
  3961  0691  01D5               	clrf	??___flmul+3
  3962  0692  0852               	movf	??___flmul,w
  3963  0693  07DE               	addwf	___flmul@prod,f
  3964  0694  0853               	movf	??___flmul+1,w
  3965  0695  1103               	clrz
  3966  0696  1803               	skipnc
  3967  0697  3E01               	addlw	1
  3968  0698  1903               	skipnz
  3969  0699  2E9B               	goto	u2391
  3970  069A  07DF               	addwf	___flmul@prod+1,f
  3971  069B                     u2391:
  3972  069B  0854               	movf	??___flmul+2,w
  3973  069C  1103               	clrz
  3974  069D  1803               	skipnc
  3975  069E  3E01               	addlw	1
  3976  069F  1903               	skipnz
  3977  06A0  2EA2               	goto	u2392
  3978  06A1  07E0               	addwf	___flmul@prod+2,f
  3979  06A2                     u2392:
  3980  06A2  0855               	movf	??___flmul+3,w
  3981  06A3  1103               	clrz
  3982  06A4  1803               	skipnc
  3983  06A5  3E01               	addlw	1
  3984  06A6  1903               	skipnz
  3985  06A7  2EA9               	goto	u2393
  3986  06A8  07E1               	addwf	___flmul@prod+3,f
  3987  06A9                     u2393:
  3988  06A9  084C               	movf	___flmul@b+2,w
  3989  06AA  00D2               	movwf	??___flmul
  3990  06AB  0852               	movf	??___flmul,w
  3991  06AC  00F0               	movwf	__Umul8_16@multiplicand
  3992  06AD  0850               	movf	___flmul@a+2,w
  3993  06AE  120A  158A  236C  120A  118A  	fcall	__Umul8_16
  3994  06B3  0871               	movf	?__Umul8_16+1,w
  3995  06B4  1283               	bcf	3,5	;RP0=0, select bank0
  3996  06B5  1303               	bcf	3,6	;RP1=0, select bank0
  3997  06B6  00E3               	movwf	___flmul@temp+1
  3998  06B7  0870               	movf	?__Umul8_16,w
  3999  06B8  00E2               	movwf	___flmul@temp
  4000  06B9                     l1808:
  4001  06B9  0862               	movf	___flmul@temp,w
  4002  06BA  00D2               	movwf	??___flmul
  4003  06BB  0863               	movf	___flmul@temp+1,w
  4004  06BC  00D3               	movwf	??___flmul+1
  4005  06BD  01D4               	clrf	??___flmul+2
  4006  06BE  01D5               	clrf	??___flmul+3
  4007  06BF  3008               	movlw	8
  4008  06C0                     u2405:
  4009  06C0  1003               	clrc
  4010  06C1  0DD2               	rlf	??___flmul,f
  4011  06C2  0DD3               	rlf	??___flmul+1,f
  4012  06C3  0DD4               	rlf	??___flmul+2,f
  4013  06C4  0DD5               	rlf	??___flmul+3,f
  4014  06C5                     u2400:
  4015  06C5  3EFF               	addlw	-1
  4016  06C6  1D03               	skipz
  4017  06C7  2EC0               	goto	u2405
  4018  06C8  0852               	movf	??___flmul,w
  4019  06C9  07DE               	addwf	___flmul@prod,f
  4020  06CA  0853               	movf	??___flmul+1,w
  4021  06CB  1103               	clrz
  4022  06CC  1803               	skipnc
  4023  06CD  3E01               	addlw	1
  4024  06CE  1903               	skipnz
  4025  06CF  2ED1               	goto	u2411
  4026  06D0  07DF               	addwf	___flmul@prod+1,f
  4027  06D1                     u2411:
  4028  06D1  0854               	movf	??___flmul+2,w
  4029  06D2  1103               	clrz
  4030  06D3  1803               	skipnc
  4031  06D4  3E01               	addlw	1
  4032  06D5  1903               	skipnz
  4033  06D6  2ED8               	goto	u2412
  4034  06D7  07E0               	addwf	___flmul@prod+2,f
  4035  06D8                     u2412:
  4036  06D8  0855               	movf	??___flmul+3,w
  4037  06D9  1103               	clrz
  4038  06DA  1803               	skipnc
  4039  06DB  3E01               	addlw	1
  4040  06DC  1903               	skipnz
  4041  06DD  2EDF               	goto	u2413
  4042  06DE  07E1               	addwf	___flmul@prod+3,f
  4043  06DF                     u2413:
  4044  06DF                     l1810:
  4045  06DF  0858               	movf	___flmul@grs,w
  4046  06E0  00D2               	movwf	??___flmul
  4047  06E1  0859               	movf	___flmul@grs+1,w
  4048  06E2  00D3               	movwf	??___flmul+1
  4049  06E3  085A               	movf	___flmul@grs+2,w
  4050  06E4  00D4               	movwf	??___flmul+2
  4051  06E5  085B               	movf	___flmul@grs+3,w
  4052  06E6  00D5               	movwf	??___flmul+3
  4053  06E7  3018               	movlw	24
  4054  06E8                     u2425:
  4055  06E8  1003               	clrc
  4056  06E9  0CD5               	rrf	??___flmul+3,f
  4057  06EA  0CD4               	rrf	??___flmul+2,f
  4058  06EB  0CD3               	rrf	??___flmul+1,f
  4059  06EC  0CD2               	rrf	??___flmul,f
  4060  06ED                     u2420:
  4061  06ED  3EFF               	addlw	-1
  4062  06EE  1D03               	skipz
  4063  06EF  2EE8               	goto	u2425
  4064  06F0  0852               	movf	??___flmul,w
  4065  06F1  07DE               	addwf	___flmul@prod,f
  4066  06F2  0853               	movf	??___flmul+1,w
  4067  06F3  1103               	clrz
  4068  06F4  1803               	skipnc
  4069  06F5  3E01               	addlw	1
  4070  06F6  1903               	skipnz
  4071  06F7  2EF9               	goto	u2431
  4072  06F8  07DF               	addwf	___flmul@prod+1,f
  4073  06F9                     u2431:
  4074  06F9  0854               	movf	??___flmul+2,w
  4075  06FA  1103               	clrz
  4076  06FB  1803               	skipnc
  4077  06FC  3E01               	addlw	1
  4078  06FD  1903               	skipnz
  4079  06FE  2F00               	goto	u2432
  4080  06FF  07E0               	addwf	___flmul@prod+2,f
  4081  0700                     u2432:
  4082  0700  0855               	movf	??___flmul+3,w
  4083  0701  1103               	clrz
  4084  0702  1803               	skipnc
  4085  0703  3E01               	addlw	1
  4086  0704  1903               	skipnz
  4087  0705  2F07               	goto	u2433
  4088  0706  07E1               	addwf	___flmul@prod+3,f
  4089  0707                     u2433:
  4090  0707                     l1812:
  4091  0707  3008               	movlw	8
  4092  0708  00D2               	movwf	??___flmul
  4093  0709                     u2445:
  4094  0709  1003               	clrc
  4095  070A  0DD8               	rlf	___flmul@grs,f
  4096  070B  0DD9               	rlf	___flmul@grs+1,f
  4097  070C  0DDA               	rlf	___flmul@grs+2,f
  4098  070D  0DDB               	rlf	___flmul@grs+3,f
  4099  070E  0BD2               	decfsz	??___flmul,f
  4100  070F  2F09               	goto	u2445
  4101  0710                     l1814:
  4102  0710  085D               	movf	___flmul@bexp,w
  4103  0711  075C               	addwf	___flmul@aexp,w
  4104  0712  00D2               	movwf	??___flmul
  4105  0713  01D3               	clrf	??___flmul+1
  4106  0714  0DD3               	rlf	??___flmul+1,f
  4107  0715  0852               	movf	??___flmul,w
  4108  0716  3E82               	addlw	130
  4109  0717  00E2               	movwf	___flmul@temp
  4110  0718  0853               	movf	??___flmul+1,w
  4111  0719  1803               	skipnc
  4112  071A  3E01               	addlw	1
  4113  071B  3EFF               	addlw	255
  4114  071C  00E3               	movwf	___flmul@temp+1
  4115  071D  2F3B               	goto	l1826
  4116  071E                     l1816:
  4117  071E  3001               	movlw	1
  4118  071F  00D2               	movwf	??___flmul
  4119  0720                     u2455:
  4120  0720  1003               	clrc
  4121  0721  0DDE               	rlf	___flmul@prod,f
  4122  0722  0DDF               	rlf	___flmul@prod+1,f
  4123  0723  0DE0               	rlf	___flmul@prod+2,f
  4124  0724  0DE1               	rlf	___flmul@prod+3,f
  4125  0725  0BD2               	decfsz	??___flmul,f
  4126  0726  2F20               	goto	u2455
  4127  0727                     l1818:
  4128  0727  1FDB               	btfss	___flmul@grs+3,7
  4129  0728  2F2A               	goto	u2461
  4130  0729  2F2B               	goto	u2460
  4131  072A                     u2461:
  4132  072A  2F2C               	goto	l1822
  4133  072B                     u2460:
  4134  072B                     l1820:
  4135  072B  145E               	bsf	___flmul@prod,0
  4136  072C                     l1822:
  4137  072C  3001               	movlw	1
  4138  072D  00D2               	movwf	??___flmul
  4139  072E                     u2475:
  4140  072E  1003               	clrc
  4141  072F  0DD8               	rlf	___flmul@grs,f
  4142  0730  0DD9               	rlf	___flmul@grs+1,f
  4143  0731  0DDA               	rlf	___flmul@grs+2,f
  4144  0732  0DDB               	rlf	___flmul@grs+3,f
  4145  0733  0BD2               	decfsz	??___flmul,f
  4146  0734  2F2E               	goto	u2475
  4147  0735                     l1824:
  4148  0735  30FF               	movlw	255
  4149  0736  07E2               	addwf	___flmul@temp,f
  4150  0737  1803               	skipnc
  4151  0738  0AE3               	incf	___flmul@temp+1,f
  4152  0739  30FF               	movlw	255
  4153  073A  07E3               	addwf	___flmul@temp+1,f
  4154  073B                     l1826:
  4155  073B  1FE0               	btfss	___flmul@prod+2,7
  4156  073C  2F3E               	goto	u2481
  4157  073D  2F3F               	goto	u2480
  4158  073E                     u2481:
  4159  073E  2F1E               	goto	l1816
  4160  073F                     u2480:
  4161  073F                     l1828:
  4162  073F  01DC               	clrf	___flmul@aexp
  4163  0740                     l1830:
  4164  0740  1FDB               	btfss	___flmul@grs+3,7
  4165  0741  2F43               	goto	u2491
  4166  0742  2F44               	goto	u2490
  4167  0743                     u2491:
  4168  0743  2F60               	goto	l1838
  4169  0744                     u2490:
  4170  0744                     l1832:
  4171  0744  30FF               	movlw	255
  4172  0745  0558               	andwf	___flmul@grs,w
  4173  0746  00D2               	movwf	??___flmul
  4174  0747  30FF               	movlw	255
  4175  0748  0559               	andwf	___flmul@grs+1,w
  4176  0749  00D3               	movwf	??___flmul+1
  4177  074A  30FF               	movlw	255
  4178  074B  055A               	andwf	___flmul@grs+2,w
  4179  074C  00D4               	movwf	??___flmul+2
  4180  074D  307F               	movlw	127
  4181  074E  055B               	andwf	___flmul@grs+3,w
  4182  074F  00D5               	movwf	??___flmul+3
  4183  0750  0855               	movf	??___flmul+3,w
  4184  0751  0454               	iorwf	??___flmul+2,w
  4185  0752  0453               	iorwf	??___flmul+1,w
  4186  0753  0452               	iorwf	??___flmul,w
  4187  0754  1903               	skipnz
  4188  0755  2F57               	goto	u2501
  4189  0756  2F58               	goto	u2500
  4190  0757                     u2501:
  4191  0757  2F5B               	goto	l641
  4192  0758                     u2500:
  4193  0758                     l1834:
  4194  0758  01DC               	clrf	___flmul@aexp
  4195  0759  0ADC               	incf	___flmul@aexp,f
  4196  075A  2F60               	goto	l1838
  4197  075B                     l641:
  4198  075B  1C5E               	btfss	___flmul@prod,0
  4199  075C  2F5E               	goto	u2511
  4200  075D  2F5F               	goto	u2510
  4201  075E                     u2511:
  4202  075E  2F60               	goto	l1838
  4203  075F                     u2510:
  4204  075F  2F58               	goto	l1834
  4205  0760                     l1838:
  4206  0760  085C               	movf	___flmul@aexp,w
  4207  0761  1903               	btfsc	3,2
  4208  0762  2F64               	goto	u2521
  4209  0763  2F65               	goto	u2520
  4210  0764                     u2521:
  4211  0764  2F96               	goto	l1848
  4212  0765                     u2520:
  4213  0765                     l1840:
  4214  0765  3001               	movlw	1
  4215  0766  07DE               	addwf	___flmul@prod,f
  4216  0767  3000               	movlw	0
  4217  0768  1803               	skipnc
  4218  0769  3001               	movlw	1
  4219  076A  07DF               	addwf	___flmul@prod+1,f
  4220  076B  3000               	movlw	0
  4221  076C  1803               	skipnc
  4222  076D  3001               	movlw	1
  4223  076E  07E0               	addwf	___flmul@prod+2,f
  4224  076F  3000               	movlw	0
  4225  0770  1803               	skipnc
  4226  0771  3001               	movlw	1
  4227  0772  07E1               	addwf	___flmul@prod+3,f
  4228  0773                     l1842:
  4229  0773  1C61               	btfss	___flmul@prod+3,0
  4230  0774  2F76               	goto	u2531
  4231  0775  2F77               	goto	u2530
  4232  0776                     u2531:
  4233  0776  2F96               	goto	l1848
  4234  0777                     u2530:
  4235  0777                     l1844:
  4236  0777  085E               	movf	___flmul@prod,w
  4237  0778  00D2               	movwf	??___flmul
  4238  0779  085F               	movf	___flmul@prod+1,w
  4239  077A  00D3               	movwf	??___flmul+1
  4240  077B  0860               	movf	___flmul@prod+2,w
  4241  077C  00D4               	movwf	??___flmul+2
  4242  077D  0861               	movf	___flmul@prod+3,w
  4243  077E  00D5               	movwf	??___flmul+3
  4244  077F  3001               	movlw	1
  4245  0780  00D6               	movwf	??___flmul+4
  4246  0781                     u2545:
  4247  0781  0D55               	rlf	??___flmul+3,w
  4248  0782  0CD5               	rrf	??___flmul+3,f
  4249  0783  0CD4               	rrf	??___flmul+2,f
  4250  0784  0CD3               	rrf	??___flmul+1,f
  4251  0785  0CD2               	rrf	??___flmul,f
  4252  0786                     u2540:
  4253  0786  0BD6               	decfsz	??___flmul+4,f
  4254  0787  2F81               	goto	u2545
  4255  0788  0855               	movf	??___flmul+3,w
  4256  0789  00E1               	movwf	___flmul@prod+3
  4257  078A  0854               	movf	??___flmul+2,w
  4258  078B  00E0               	movwf	___flmul@prod+2
  4259  078C  0853               	movf	??___flmul+1,w
  4260  078D  00DF               	movwf	___flmul@prod+1
  4261  078E  0852               	movf	??___flmul,w
  4262  078F  00DE               	movwf	___flmul@prod
  4263  0790                     l1846:
  4264  0790  3001               	movlw	1
  4265  0791  07E2               	addwf	___flmul@temp,f
  4266  0792  1803               	skipnc
  4267  0793  0AE3               	incf	___flmul@temp+1,f
  4268  0794  3000               	movlw	0
  4269  0795  07E3               	addwf	___flmul@temp+1,f
  4270  0796                     l1848:
  4271  0796  0863               	movf	___flmul@temp+1,w
  4272  0797  3A80               	xorlw	128
  4273  0798  00FF               	movwf	btemp+1
  4274  0799  3080               	movlw	128
  4275  079A  027F               	subwf	btemp+1,w
  4276  079B  1D03               	skipz
  4277  079C  2F9F               	goto	u2555
  4278  079D  30FF               	movlw	255
  4279  079E  0262               	subwf	___flmul@temp,w
  4280  079F                     u2555:
  4281  079F  1C03               	skipc
  4282  07A0  2FA2               	goto	u2551
  4283  07A1  2FA3               	goto	u2550
  4284  07A2                     u2551:
  4285  07A2  2FAE               	goto	l1852
  4286  07A3                     u2550:
  4287  07A3                     l1850:
  4288  07A3  307F               	movlw	127
  4289  07A4  1283               	bcf	3,5	;RP0=0, select bank0
  4290  07A5  1303               	bcf	3,6	;RP1=0, select bank0
  4291  07A6  00E1               	movwf	___flmul@prod+3
  4292  07A7  3080               	movlw	128
  4293  07A8  00E0               	movwf	___flmul@prod+2
  4294  07A9  3000               	movlw	0
  4295  07AA  00DF               	movwf	___flmul@prod+1
  4296  07AB  3000               	movlw	0
  4297  07AC  00DE               	movwf	___flmul@prod
  4298  07AD  2FE3               	goto	l647
  4299  07AE                     l1852:
  4300  07AE  1283               	bcf	3,5	;RP0=0, select bank0
  4301  07AF  1303               	bcf	3,6	;RP1=0, select bank0
  4302  07B0  0863               	movf	___flmul@temp+1,w
  4303  07B1  3A80               	xorlw	128
  4304  07B2  00FF               	movwf	btemp+1
  4305  07B3  3080               	movlw	128
  4306  07B4  027F               	subwf	btemp+1,w
  4307  07B5  1D03               	skipz
  4308  07B6  2FB9               	goto	u2565
  4309  07B7  3001               	movlw	1
  4310  07B8  0262               	subwf	___flmul@temp,w
  4311  07B9                     u2565:
  4312  07B9  1803               	skipnc
  4313  07BA  2FBC               	goto	u2561
  4314  07BB  2FBD               	goto	u2560
  4315  07BC                     u2561:
  4316  07BC  2FC9               	goto	l1858
  4317  07BD                     u2560:
  4318  07BD                     l1854:
  4319  07BD  3000               	movlw	0
  4320  07BE  1283               	bcf	3,5	;RP0=0, select bank0
  4321  07BF  1303               	bcf	3,6	;RP1=0, select bank0
  4322  07C0  00E1               	movwf	___flmul@prod+3
  4323  07C1  3000               	movlw	0
  4324  07C2  00E0               	movwf	___flmul@prod+2
  4325  07C3  3000               	movlw	0
  4326  07C4  00DF               	movwf	___flmul@prod+1
  4327  07C5  3000               	movlw	0
  4328  07C6  00DE               	movwf	___flmul@prod
  4329  07C7                     l1856:
  4330  07C7  01D7               	clrf	___flmul@sign
  4331  07C8  2FE3               	goto	l647
  4332  07C9                     l1858:
  4333  07C9  1283               	bcf	3,5	;RP0=0, select bank0
  4334  07CA  1303               	bcf	3,6	;RP1=0, select bank0
  4335  07CB  0862               	movf	___flmul@temp,w
  4336  07CC  00D2               	movwf	??___flmul
  4337  07CD  0852               	movf	??___flmul,w
  4338  07CE  00DD               	movwf	___flmul@bexp
  4339  07CF  30FF               	movlw	255
  4340  07D0  05DE               	andwf	___flmul@prod,f
  4341  07D1  30FF               	movlw	255
  4342  07D2  05DF               	andwf	___flmul@prod+1,f
  4343  07D3  307F               	movlw	127
  4344  07D4  05E0               	andwf	___flmul@prod+2,f
  4345  07D5  3000               	movlw	0
  4346  07D6  05E1               	andwf	___flmul@prod+3,f
  4347  07D7                     l1860:
  4348  07D7  1C5D               	btfss	___flmul@bexp,0
  4349  07D8  2FDA               	goto	u2571
  4350  07D9  2FDB               	goto	u2570
  4351  07DA                     u2571:
  4352  07DA  2FDC               	goto	l1864
  4353  07DB                     u2570:
  4354  07DB                     l1862:
  4355  07DB  17E0               	bsf	___flmul@prod+2,7
  4356  07DC                     l1864:
  4357  07DC  085D               	movf	___flmul@bexp,w
  4358  07DD  00D2               	movwf	??___flmul
  4359  07DE  1003               	clrc
  4360  07DF  0C52               	rrf	??___flmul,w
  4361  07E0  00D3               	movwf	??___flmul+1
  4362  07E1  0853               	movf	??___flmul+1,w
  4363  07E2  00E1               	movwf	___flmul@prod+3
  4364  07E3                     l647:
  4365  07E3  0857               	movf	___flmul@sign,w
  4366  07E4  00D2               	movwf	??___flmul
  4367  07E5  0852               	movf	??___flmul,w
  4368  07E6  04E1               	iorwf	___flmul@prod+3,f
  4369  07E7                     l1866:
  4370  07E7  0861               	movf	___flmul@prod+3,w
  4371  07E8  00CD               	movwf	?___flmul+3
  4372  07E9  0860               	movf	___flmul@prod+2,w
  4373  07EA  00CC               	movwf	?___flmul+2
  4374  07EB  085F               	movf	___flmul@prod+1,w
  4375  07EC  00CB               	movwf	?___flmul+1
  4376  07ED  085E               	movf	___flmul@prod,w
  4377  07EE  00CA               	movwf	?___flmul
  4378  07EF                     l635:
  4379  07EF  0008               	return
  4380  07F0                     __end_of___flmul:
  4381                           
  4382                           	psect	text15
  4383  0B6C                     __ptext15:	
  4384 ;; *************** function __Umul8_16 *****************
  4385 ;; Defined at:
  4386 ;;		line 4 in file "C:\Program Files\Microchip\xc8\v2.32\pic\sources\c90\common\Umul8_16.c"
  4387 ;; Parameters:    Size  Location     Type
  4388 ;;  multiplier      1    wreg     unsigned char 
  4389 ;;  multiplicand    1    0[COMMON] unsigned char 
  4390 ;; Auto vars:     Size  Location     Type
  4391 ;;  multiplier      1    8[COMMON] unsigned char 
  4392 ;;  word_mpld       2    6[COMMON] unsigned int 
  4393 ;;  product         2    4[COMMON] unsigned int 
  4394 ;; Return value:  Size  Location     Type
  4395 ;;                  2    0[COMMON] unsigned int 
  4396 ;; Registers used:
  4397 ;;		wreg, status,2, status,0
  4398 ;; Tracked objects:
  4399 ;;		On entry : 0/0
  4400 ;;		On exit  : 0/0
  4401 ;;		Unchanged: 0/0
  4402 ;; Data sizes:     COMMON   BANK0   BANK1   BANK3   BANK2
  4403 ;;      Params:         2       0       0       0       0
  4404 ;;      Locals:         5       0       0       0       0
  4405 ;;      Temps:          2       0       0       0       0
  4406 ;;      Totals:         9       0       0       0       0
  4407 ;;Total ram usage:        9 bytes
  4408 ;; Hardware stack levels used: 1
  4409 ;; This function calls:
  4410 ;;		Nothing
  4411 ;; This function is called by:
  4412 ;;		___flmul
  4413 ;; This function uses a non-reentrant model
  4414 ;;
  4415                           
  4416                           
  4417                           ;psect for function __Umul8_16
  4418  0B6C                     __Umul8_16:
  4419                           
  4420                           ;incstack = 0
  4421                           ; Regs used in __Umul8_16: [wreg+status,2+status,0]
  4422                           ;__Umul8_16@multiplier stored from wreg
  4423  0B6C  00F8               	movwf	__Umul8_16@multiplier
  4424  0B6D                     l1488:
  4425  0B6D  01F4               	clrf	__Umul8_16@product
  4426  0B6E  01F5               	clrf	__Umul8_16@product+1
  4427  0B6F                     l1490:
  4428  0B6F  0870               	movf	__Umul8_16@multiplicand,w
  4429  0B70  00F2               	movwf	??__Umul8_16
  4430  0B71  01F3               	clrf	??__Umul8_16+1
  4431  0B72  0872               	movf	??__Umul8_16,w
  4432  0B73  00F6               	movwf	__Umul8_16@word_mpld
  4433  0B74  0873               	movf	??__Umul8_16+1,w
  4434  0B75  00F7               	movwf	__Umul8_16@word_mpld+1
  4435  0B76                     l1492:
  4436  0B76  1C78               	btfss	__Umul8_16@multiplier,0
  4437  0B77  2B79               	goto	u1641
  4438  0B78  2B7A               	goto	u1640
  4439  0B79                     u1641:
  4440  0B79  2B80               	goto	l654
  4441  0B7A                     u1640:
  4442  0B7A                     l1494:
  4443  0B7A  0876               	movf	__Umul8_16@word_mpld,w
  4444  0B7B  07F4               	addwf	__Umul8_16@product,f
  4445  0B7C  1803               	skipnc
  4446  0B7D  0AF5               	incf	__Umul8_16@product+1,f
  4447  0B7E  0877               	movf	__Umul8_16@word_mpld+1,w
  4448  0B7F  07F5               	addwf	__Umul8_16@product+1,f
  4449  0B80                     l654:
  4450  0B80  3001               	movlw	1
  4451  0B81                     u1655:
  4452  0B81  1003               	clrc
  4453  0B82  0DF6               	rlf	__Umul8_16@word_mpld,f
  4454  0B83  0DF7               	rlf	__Umul8_16@word_mpld+1,f
  4455  0B84  3EFF               	addlw	-1
  4456  0B85  1D03               	skipz
  4457  0B86  2B81               	goto	u1655
  4458  0B87  1003               	clrc
  4459  0B88  0CF8               	rrf	__Umul8_16@multiplier,f
  4460  0B89                     l1496:
  4461  0B89  0878               	movf	__Umul8_16@multiplier,w
  4462  0B8A  1D03               	btfss	3,2
  4463  0B8B  2B8D               	goto	u1661
  4464  0B8C  2B8E               	goto	u1660
  4465  0B8D                     u1661:
  4466  0B8D  2B76               	goto	l1492
  4467  0B8E                     u1660:
  4468  0B8E                     l1498:
  4469  0B8E  0875               	movf	__Umul8_16@product+1,w
  4470  0B8F  00F1               	movwf	?__Umul8_16+1
  4471  0B90  0874               	movf	__Umul8_16@product,w
  4472  0B91  00F0               	movwf	?__Umul8_16
  4473  0B92                     l656:
  4474  0B92  0008               	return
  4475  0B93                     __end_of__Umul8_16:
  4476                           
  4477                           	psect	text16
  4478  02B2                     __ptext16:	
  4479 ;; *************** function ___fldiv *****************
  4480 ;; Defined at:
  4481 ;;		line 8 in file "C:\Program Files\Microchip\xc8\v2.32\pic\sources\c90\common\sprcdiv.c"
  4482 ;; Parameters:    Size  Location     Type
  4483 ;;  a               4   16[BANK0 ] unsigned int 
  4484 ;;  b               4   20[BANK0 ] unsigned int 
  4485 ;; Auto vars:     Size  Location     Type
  4486 ;;  grs             4   36[BANK0 ] unsigned long 
  4487 ;;  rem             4   29[BANK0 ] unsigned long 
  4488 ;;  new_exp         2   34[BANK0 ] int 
  4489 ;;  aexp            1   41[BANK0 ] unsigned char 
  4490 ;;  bexp            1   40[BANK0 ] unsigned char 
  4491 ;;  sign            1   33[BANK0 ] unsigned char 
  4492 ;; Return value:  Size  Location     Type
  4493 ;;                  4   16[BANK0 ] unsigned char 
  4494 ;; Registers used:
  4495 ;;		wreg, status,2, status,0, btemp+1
  4496 ;; Tracked objects:
  4497 ;;		On entry : 0/0
  4498 ;;		On exit  : 0/0
  4499 ;;		Unchanged: 0/0
  4500 ;; Data sizes:     COMMON   BANK0   BANK1   BANK3   BANK2
  4501 ;;      Params:         0       8       0       0       0
  4502 ;;      Locals:         0      13       0       0       0
  4503 ;;      Temps:          0       5       0       0       0
  4504 ;;      Totals:         0      26       0       0       0
  4505 ;;Total ram usage:       26 bytes
  4506 ;; Hardware stack levels used: 1
  4507 ;; This function calls:
  4508 ;;		Nothing
  4509 ;; This function is called by:
  4510 ;;		_PWM1_Duty
  4511 ;;		_PWM2_Duty
  4512 ;; This function uses a non-reentrant model
  4513 ;;
  4514                           
  4515                           
  4516                           ;psect for function ___fldiv
  4517  02B2                     ___fldiv:
  4518  02B2                     l1588:	
  4519                           ;incstack = 0
  4520                           ; Regs used in ___fldiv: [wreg+status,2+status,0+btemp+1]
  4521                           
  4522  02B2  1283               	bcf	3,5	;RP0=0, select bank0
  4523  02B3  1303               	bcf	3,6	;RP1=0, select bank0
  4524  02B4  0837               	movf	___fldiv@b+3,w
  4525  02B5  3980               	andlw	128
  4526  02B6  00B8               	movwf	??___fldiv
  4527  02B7  0838               	movf	??___fldiv,w
  4528  02B8  00C1               	movwf	___fldiv@sign
  4529  02B9                     l1590:
  4530  02B9  0837               	movf	___fldiv@b+3,w
  4531  02BA  00B8               	movwf	??___fldiv
  4532  02BB  0738               	addwf	??___fldiv,w
  4533  02BC  00B9               	movwf	??___fldiv+1
  4534  02BD  0839               	movf	??___fldiv+1,w
  4535  02BE  00C8               	movwf	___fldiv@bexp
  4536  02BF                     l1592:
  4537  02BF  1FB6               	btfss	___fldiv@b+2,7
  4538  02C0  2AC2               	goto	u1921
  4539  02C1  2AC3               	goto	u1920
  4540  02C2                     u1921:
  4541  02C2  2AC4               	goto	l1596
  4542  02C3                     u1920:
  4543  02C3                     l1594:
  4544  02C3  1448               	bsf	___fldiv@bexp,0
  4545  02C4                     l1596:
  4546  02C4  0848               	movf	___fldiv@bexp,w
  4547  02C5  1903               	btfsc	3,2
  4548  02C6  2AC8               	goto	u1931
  4549  02C7  2AC9               	goto	u1930
  4550  02C8                     u1931:
  4551  02C8  2AD9               	goto	l1606
  4552  02C9                     u1930:
  4553  02C9                     l1598:
  4554  02C9  0A48               	incf	___fldiv@bexp,w
  4555  02CA  1D03               	btfss	3,2
  4556  02CB  2ACD               	goto	u1941
  4557  02CC  2ACE               	goto	u1940
  4558  02CD                     u1941:
  4559  02CD  2AD6               	goto	l1602
  4560  02CE                     u1940:
  4561  02CE                     l1600:
  4562  02CE  3000               	movlw	0
  4563  02CF  00B7               	movwf	___fldiv@b+3
  4564  02D0  3000               	movlw	0
  4565  02D1  00B6               	movwf	___fldiv@b+2
  4566  02D2  3000               	movlw	0
  4567  02D3  00B5               	movwf	___fldiv@b+1
  4568  02D4  3000               	movlw	0
  4569  02D5  00B4               	movwf	___fldiv@b
  4570  02D6                     l1602:
  4571  02D6  17B6               	bsf	___fldiv@b+2,7
  4572  02D7                     l1604:
  4573  02D7  01B7               	clrf	___fldiv@b+3
  4574  02D8  2AE1               	goto	l1608
  4575  02D9                     l1606:
  4576  02D9  3000               	movlw	0
  4577  02DA  00B7               	movwf	___fldiv@b+3
  4578  02DB  3000               	movlw	0
  4579  02DC  00B6               	movwf	___fldiv@b+2
  4580  02DD  3000               	movlw	0
  4581  02DE  00B5               	movwf	___fldiv@b+1
  4582  02DF  3000               	movlw	0
  4583  02E0  00B4               	movwf	___fldiv@b
  4584  02E1                     l1608:
  4585  02E1  0833               	movf	___fldiv@a+3,w
  4586  02E2  3980               	andlw	128
  4587  02E3  00B8               	movwf	??___fldiv
  4588  02E4  0838               	movf	??___fldiv,w
  4589  02E5  06C1               	xorwf	___fldiv@sign,f
  4590  02E6                     l1610:
  4591  02E6  0833               	movf	___fldiv@a+3,w
  4592  02E7  00B8               	movwf	??___fldiv
  4593  02E8  0738               	addwf	??___fldiv,w
  4594  02E9  00B9               	movwf	??___fldiv+1
  4595  02EA  0839               	movf	??___fldiv+1,w
  4596  02EB  00C9               	movwf	___fldiv@aexp
  4597  02EC                     l1612:
  4598  02EC  1FB2               	btfss	___fldiv@a+2,7
  4599  02ED  2AEF               	goto	u1951
  4600  02EE  2AF0               	goto	u1950
  4601  02EF                     u1951:
  4602  02EF  2AF1               	goto	l1616
  4603  02F0                     u1950:
  4604  02F0                     l1614:
  4605  02F0  1449               	bsf	___fldiv@aexp,0
  4606  02F1                     l1616:
  4607  02F1  0849               	movf	___fldiv@aexp,w
  4608  02F2  1903               	btfsc	3,2
  4609  02F3  2AF5               	goto	u1961
  4610  02F4  2AF6               	goto	u1960
  4611  02F5                     u1961:
  4612  02F5  2B06               	goto	l1626
  4613  02F6                     u1960:
  4614  02F6                     l1618:
  4615  02F6  0A49               	incf	___fldiv@aexp,w
  4616  02F7  1D03               	btfss	3,2
  4617  02F8  2AFA               	goto	u1971
  4618  02F9  2AFB               	goto	u1970
  4619  02FA                     u1971:
  4620  02FA  2B03               	goto	l1622
  4621  02FB                     u1970:
  4622  02FB                     l1620:
  4623  02FB  3000               	movlw	0
  4624  02FC  00B3               	movwf	___fldiv@a+3
  4625  02FD  3000               	movlw	0
  4626  02FE  00B2               	movwf	___fldiv@a+2
  4627  02FF  3000               	movlw	0
  4628  0300  00B1               	movwf	___fldiv@a+1
  4629  0301  3000               	movlw	0
  4630  0302  00B0               	movwf	___fldiv@a
  4631  0303                     l1622:
  4632  0303  17B2               	bsf	___fldiv@a+2,7
  4633  0304                     l1624:
  4634  0304  01B3               	clrf	___fldiv@a+3
  4635  0305  2B0E               	goto	l595
  4636  0306                     l1626:
  4637  0306  3000               	movlw	0
  4638  0307  00B3               	movwf	___fldiv@a+3
  4639  0308  3000               	movlw	0
  4640  0309  00B2               	movwf	___fldiv@a+2
  4641  030A  3000               	movlw	0
  4642  030B  00B1               	movwf	___fldiv@a+1
  4643  030C  3000               	movlw	0
  4644  030D  00B0               	movwf	___fldiv@a
  4645  030E                     l595:
  4646  030E  0833               	movf	___fldiv@a+3,w
  4647  030F  0432               	iorwf	___fldiv@a+2,w
  4648  0310  0431               	iorwf	___fldiv@a+1,w
  4649  0311  0430               	iorwf	___fldiv@a,w
  4650  0312  1D03               	skipz
  4651  0313  2B15               	goto	u1981
  4652  0314  2B16               	goto	u1980
  4653  0315                     u1981:
  4654  0315  2B2F               	goto	l1636
  4655  0316                     u1980:
  4656  0316                     l1628:
  4657  0316  3000               	movlw	0
  4658  0317  00B7               	movwf	___fldiv@b+3
  4659  0318  3000               	movlw	0
  4660  0319  00B6               	movwf	___fldiv@b+2
  4661  031A  3000               	movlw	0
  4662  031B  00B5               	movwf	___fldiv@b+1
  4663  031C  3000               	movlw	0
  4664  031D  00B4               	movwf	___fldiv@b
  4665  031E  3080               	movlw	128
  4666  031F  04B6               	iorwf	___fldiv@b+2,f
  4667  0320  307F               	movlw	127
  4668  0321  04B7               	iorwf	___fldiv@b+3,f
  4669  0322                     l1630:
  4670  0322  0841               	movf	___fldiv@sign,w
  4671  0323  00B8               	movwf	??___fldiv
  4672  0324  0838               	movf	??___fldiv,w
  4673  0325  04B7               	iorwf	___fldiv@b+3,f
  4674  0326                     l1632:
  4675  0326  0837               	movf	___fldiv@b+3,w
  4676  0327  00B3               	movwf	?___fldiv+3
  4677  0328  0836               	movf	___fldiv@b+2,w
  4678  0329  00B2               	movwf	?___fldiv+2
  4679  032A  0835               	movf	___fldiv@b+1,w
  4680  032B  00B1               	movwf	?___fldiv+1
  4681  032C  0834               	movf	___fldiv@b,w
  4682  032D  00B0               	movwf	?___fldiv
  4683  032E  2C8E               	goto	l597
  4684  032F                     l1636:
  4685  032F  0848               	movf	___fldiv@bexp,w
  4686  0330  1D03               	btfss	3,2
  4687  0331  2B33               	goto	u1991
  4688  0332  2B34               	goto	u1990
  4689  0333                     u1991:
  4690  0333  2B3D               	goto	l1642
  4691  0334                     u1990:
  4692  0334                     l1638:
  4693  0334  3000               	movlw	0
  4694  0335  00B3               	movwf	?___fldiv+3
  4695  0336  3000               	movlw	0
  4696  0337  00B2               	movwf	?___fldiv+2
  4697  0338  3000               	movlw	0
  4698  0339  00B1               	movwf	?___fldiv+1
  4699  033A  3000               	movlw	0
  4700  033B  00B0               	movwf	?___fldiv
  4701  033C  2C8E               	goto	l597
  4702  033D                     l1642:
  4703  033D  0848               	movf	___fldiv@bexp,w
  4704  033E  00B8               	movwf	??___fldiv
  4705  033F  01B9               	clrf	??___fldiv+1
  4706  0340  0839               	movf	??___fldiv+1,w
  4707  0341  00BB               	movwf	??___fldiv+3
  4708  0342  0849               	movf	___fldiv@aexp,w
  4709  0343  0238               	subwf	??___fldiv,w
  4710  0344  00BA               	movwf	??___fldiv+2
  4711  0345  1C03               	skipc
  4712  0346  03BB               	decf	??___fldiv+3,f
  4713  0347  083A               	movf	??___fldiv+2,w
  4714  0348  3E7F               	addlw	127
  4715  0349  00C2               	movwf	___fldiv@new_exp
  4716  034A  083B               	movf	??___fldiv+3,w
  4717  034B  1803               	skipnc
  4718  034C  3E01               	addlw	1
  4719  034D  3E00               	addlw	0
  4720  034E  00C3               	movwf	___fldiv@new_exp+1
  4721  034F                     l1644:
  4722  034F  0837               	movf	___fldiv@b+3,w
  4723  0350  00C0               	movwf	___fldiv@rem+3
  4724  0351  0836               	movf	___fldiv@b+2,w
  4725  0352  00BF               	movwf	___fldiv@rem+2
  4726  0353  0835               	movf	___fldiv@b+1,w
  4727  0354  00BE               	movwf	___fldiv@rem+1
  4728  0355  0834               	movf	___fldiv@b,w
  4729  0356  00BD               	movwf	___fldiv@rem
  4730  0357                     l1646:
  4731  0357  3000               	movlw	0
  4732  0358  00B7               	movwf	___fldiv@b+3
  4733  0359  3000               	movlw	0
  4734  035A  00B6               	movwf	___fldiv@b+2
  4735  035B  3000               	movlw	0
  4736  035C  00B5               	movwf	___fldiv@b+1
  4737  035D  3000               	movlw	0
  4738  035E  00B4               	movwf	___fldiv@b
  4739  035F                     l1648:
  4740  035F  3000               	movlw	0
  4741  0360  00C7               	movwf	___fldiv@grs+3
  4742  0361  3000               	movlw	0
  4743  0362  00C6               	movwf	___fldiv@grs+2
  4744  0363  3000               	movlw	0
  4745  0364  00C5               	movwf	___fldiv@grs+1
  4746  0365  3000               	movlw	0
  4747  0366  00C4               	movwf	___fldiv@grs
  4748  0367                     l1650:
  4749  0367  01C9               	clrf	___fldiv@aexp
  4750  0368  2BB3               	goto	l1670
  4751  0369                     l1652:
  4752  0369  0849               	movf	___fldiv@aexp,w
  4753  036A  1903               	btfsc	3,2
  4754  036B  2B6D               	goto	u2001
  4755  036C  2B6E               	goto	u2000
  4756  036D                     u2001:
  4757  036D  2B8E               	goto	l1662
  4758  036E                     u2000:
  4759  036E                     l1654:
  4760  036E  3001               	movlw	1
  4761  036F  00B8               	movwf	??___fldiv
  4762  0370                     u2015:
  4763  0370  1003               	clrc
  4764  0371  0DBD               	rlf	___fldiv@rem,f
  4765  0372  0DBE               	rlf	___fldiv@rem+1,f
  4766  0373  0DBF               	rlf	___fldiv@rem+2,f
  4767  0374  0DC0               	rlf	___fldiv@rem+3,f
  4768  0375  0BB8               	decfsz	??___fldiv,f
  4769  0376  2B70               	goto	u2015
  4770  0377  3001               	movlw	1
  4771  0378  00B8               	movwf	??___fldiv
  4772  0379                     u2025:
  4773  0379  1003               	clrc
  4774  037A  0DB4               	rlf	___fldiv@b,f
  4775  037B  0DB5               	rlf	___fldiv@b+1,f
  4776  037C  0DB6               	rlf	___fldiv@b+2,f
  4777  037D  0DB7               	rlf	___fldiv@b+3,f
  4778  037E  0BB8               	decfsz	??___fldiv,f
  4779  037F  2B79               	goto	u2025
  4780  0380                     l1656:
  4781  0380  1FC7               	btfss	___fldiv@grs+3,7
  4782  0381  2B83               	goto	u2031
  4783  0382  2B84               	goto	u2030
  4784  0383                     u2031:
  4785  0383  2B85               	goto	l1660
  4786  0384                     u2030:
  4787  0384                     l1658:
  4788  0384  1434               	bsf	___fldiv@b,0
  4789  0385                     l1660:
  4790  0385  3001               	movlw	1
  4791  0386  00B8               	movwf	??___fldiv
  4792  0387                     u2045:
  4793  0387  1003               	clrc
  4794  0388  0DC4               	rlf	___fldiv@grs,f
  4795  0389  0DC5               	rlf	___fldiv@grs+1,f
  4796  038A  0DC6               	rlf	___fldiv@grs+2,f
  4797  038B  0DC7               	rlf	___fldiv@grs+3,f
  4798  038C  0BB8               	decfsz	??___fldiv,f
  4799  038D  2B87               	goto	u2045
  4800  038E                     l1662:
  4801  038E  0833               	movf	___fldiv@a+3,w
  4802  038F  0240               	subwf	___fldiv@rem+3,w
  4803  0390  1D03               	skipz
  4804  0391  2B9C               	goto	u2055
  4805  0392  0832               	movf	___fldiv@a+2,w
  4806  0393  023F               	subwf	___fldiv@rem+2,w
  4807  0394  1D03               	skipz
  4808  0395  2B9C               	goto	u2055
  4809  0396  0831               	movf	___fldiv@a+1,w
  4810  0397  023E               	subwf	___fldiv@rem+1,w
  4811  0398  1D03               	skipz
  4812  0399  2B9C               	goto	u2055
  4813  039A  0830               	movf	___fldiv@a,w
  4814  039B  023D               	subwf	___fldiv@rem,w
  4815  039C                     u2055:
  4816  039C  1C03               	skipc
  4817  039D  2B9F               	goto	u2051
  4818  039E  2BA0               	goto	u2050
  4819  039F                     u2051:
  4820  039F  2BAF               	goto	l1668
  4821  03A0                     u2050:
  4822  03A0                     l1664:
  4823  03A0  1747               	bsf	___fldiv@grs+3,6
  4824  03A1                     l1666:
  4825  03A1  0830               	movf	___fldiv@a,w
  4826  03A2  02BD               	subwf	___fldiv@rem,f
  4827  03A3  0831               	movf	___fldiv@a+1,w
  4828  03A4  1C03               	skipc
  4829  03A5  0F31               	incfsz	___fldiv@a+1,w
  4830  03A6  02BE               	subwf	___fldiv@rem+1,f
  4831  03A7  0832               	movf	___fldiv@a+2,w
  4832  03A8  1C03               	skipc
  4833  03A9  0F32               	incfsz	___fldiv@a+2,w
  4834  03AA  02BF               	subwf	___fldiv@rem+2,f
  4835  03AB  0833               	movf	___fldiv@a+3,w
  4836  03AC  1C03               	skipc
  4837  03AD  0F33               	incfsz	___fldiv@a+3,w
  4838  03AE  02C0               	subwf	___fldiv@rem+3,f
  4839  03AF                     l1668:
  4840  03AF  3001               	movlw	1
  4841  03B0  00B8               	movwf	??___fldiv
  4842  03B1  0838               	movf	??___fldiv,w
  4843  03B2  07C9               	addwf	___fldiv@aexp,f
  4844  03B3                     l1670:
  4845  03B3  301A               	movlw	26
  4846  03B4  0249               	subwf	___fldiv@aexp,w
  4847  03B5  1C03               	skipc
  4848  03B6  2BB8               	goto	u2061
  4849  03B7  2BB9               	goto	u2060
  4850  03B8                     u2061:
  4851  03B8  2B69               	goto	l1652
  4852  03B9                     u2060:
  4853  03B9                     l1672:
  4854  03B9  0840               	movf	___fldiv@rem+3,w
  4855  03BA  043F               	iorwf	___fldiv@rem+2,w
  4856  03BB  043E               	iorwf	___fldiv@rem+1,w
  4857  03BC  043D               	iorwf	___fldiv@rem,w
  4858  03BD  1903               	skipnz
  4859  03BE  2BC0               	goto	u2071
  4860  03BF  2BC1               	goto	u2070
  4861  03C0                     u2071:
  4862  03C0  2BE0               	goto	l1686
  4863  03C1                     u2070:
  4864  03C1                     l1674:
  4865  03C1  1444               	bsf	___fldiv@grs,0
  4866  03C2  2BE0               	goto	l1686
  4867  03C3                     l1676:
  4868  03C3  3001               	movlw	1
  4869  03C4  00B8               	movwf	??___fldiv
  4870  03C5                     u2085:
  4871  03C5  1003               	clrc
  4872  03C6  0DB4               	rlf	___fldiv@b,f
  4873  03C7  0DB5               	rlf	___fldiv@b+1,f
  4874  03C8  0DB6               	rlf	___fldiv@b+2,f
  4875  03C9  0DB7               	rlf	___fldiv@b+3,f
  4876  03CA  0BB8               	decfsz	??___fldiv,f
  4877  03CB  2BC5               	goto	u2085
  4878  03CC                     l1678:
  4879  03CC  1FC7               	btfss	___fldiv@grs+3,7
  4880  03CD  2BCF               	goto	u2091
  4881  03CE  2BD0               	goto	u2090
  4882  03CF                     u2091:
  4883  03CF  2BD1               	goto	l1682
  4884  03D0                     u2090:
  4885  03D0                     l1680:
  4886  03D0  1434               	bsf	___fldiv@b,0
  4887  03D1                     l1682:
  4888  03D1  3001               	movlw	1
  4889  03D2  00B8               	movwf	??___fldiv
  4890  03D3                     u2105:
  4891  03D3  1003               	clrc
  4892  03D4  0DC4               	rlf	___fldiv@grs,f
  4893  03D5  0DC5               	rlf	___fldiv@grs+1,f
  4894  03D6  0DC6               	rlf	___fldiv@grs+2,f
  4895  03D7  0DC7               	rlf	___fldiv@grs+3,f
  4896  03D8  0BB8               	decfsz	??___fldiv,f
  4897  03D9  2BD3               	goto	u2105
  4898  03DA                     l1684:
  4899  03DA  30FF               	movlw	255
  4900  03DB  07C2               	addwf	___fldiv@new_exp,f
  4901  03DC  1803               	skipnc
  4902  03DD  0AC3               	incf	___fldiv@new_exp+1,f
  4903  03DE  30FF               	movlw	255
  4904  03DF  07C3               	addwf	___fldiv@new_exp+1,f
  4905  03E0                     l1686:
  4906  03E0  1FB6               	btfss	___fldiv@b+2,7
  4907  03E1  2BE3               	goto	u2111
  4908  03E2  2BE4               	goto	u2110
  4909  03E3                     u2111:
  4910  03E3  2BC3               	goto	l1676
  4911  03E4                     u2110:
  4912  03E4                     l1688:
  4913  03E4  01C9               	clrf	___fldiv@aexp
  4914  03E5                     l1690:
  4915  03E5  1FC7               	btfss	___fldiv@grs+3,7
  4916  03E6  2BE8               	goto	u2121
  4917  03E7  2BE9               	goto	u2120
  4918  03E8                     u2121:
  4919  03E8  2C05               	goto	l1698
  4920  03E9                     u2120:
  4921  03E9                     l1692:
  4922  03E9  30FF               	movlw	255
  4923  03EA  0544               	andwf	___fldiv@grs,w
  4924  03EB  00B8               	movwf	??___fldiv
  4925  03EC  30FF               	movlw	255
  4926  03ED  0545               	andwf	___fldiv@grs+1,w
  4927  03EE  00B9               	movwf	??___fldiv+1
  4928  03EF  30FF               	movlw	255
  4929  03F0  0546               	andwf	___fldiv@grs+2,w
  4930  03F1  00BA               	movwf	??___fldiv+2
  4931  03F2  307F               	movlw	127
  4932  03F3  0547               	andwf	___fldiv@grs+3,w
  4933  03F4  00BB               	movwf	??___fldiv+3
  4934  03F5  083B               	movf	??___fldiv+3,w
  4935  03F6  043A               	iorwf	??___fldiv+2,w
  4936  03F7  0439               	iorwf	??___fldiv+1,w
  4937  03F8  0438               	iorwf	??___fldiv,w
  4938  03F9  1903               	skipnz
  4939  03FA  2BFC               	goto	u2131
  4940  03FB  2BFD               	goto	u2130
  4941  03FC                     u2131:
  4942  03FC  2C00               	goto	l611
  4943  03FD                     u2130:
  4944  03FD                     l1694:
  4945  03FD  01C9               	clrf	___fldiv@aexp
  4946  03FE  0AC9               	incf	___fldiv@aexp,f
  4947  03FF  2C05               	goto	l1698
  4948  0400                     l611:
  4949  0400  1C34               	btfss	___fldiv@b,0
  4950  0401  2C03               	goto	u2141
  4951  0402  2C04               	goto	u2140
  4952  0403                     u2141:
  4953  0403  2C05               	goto	l1698
  4954  0404                     u2140:
  4955  0404  2BFD               	goto	l1694
  4956  0405                     l1698:
  4957  0405  0849               	movf	___fldiv@aexp,w
  4958  0406  1903               	btfsc	3,2
  4959  0407  2C09               	goto	u2151
  4960  0408  2C0A               	goto	u2150
  4961  0409                     u2151:
  4962  0409  2C3B               	goto	l1708
  4963  040A                     u2150:
  4964  040A                     l1700:
  4965  040A  3001               	movlw	1
  4966  040B  07B4               	addwf	___fldiv@b,f
  4967  040C  3000               	movlw	0
  4968  040D  1803               	skipnc
  4969  040E  3001               	movlw	1
  4970  040F  07B5               	addwf	___fldiv@b+1,f
  4971  0410  3000               	movlw	0
  4972  0411  1803               	skipnc
  4973  0412  3001               	movlw	1
  4974  0413  07B6               	addwf	___fldiv@b+2,f
  4975  0414  3000               	movlw	0
  4976  0415  1803               	skipnc
  4977  0416  3001               	movlw	1
  4978  0417  07B7               	addwf	___fldiv@b+3,f
  4979  0418                     l1702:
  4980  0418  1C37               	btfss	___fldiv@b+3,0
  4981  0419  2C1B               	goto	u2161
  4982  041A  2C1C               	goto	u2160
  4983  041B                     u2161:
  4984  041B  2C3B               	goto	l1708
  4985  041C                     u2160:
  4986  041C                     l1704:
  4987  041C  0834               	movf	___fldiv@b,w
  4988  041D  00B8               	movwf	??___fldiv
  4989  041E  0835               	movf	___fldiv@b+1,w
  4990  041F  00B9               	movwf	??___fldiv+1
  4991  0420  0836               	movf	___fldiv@b+2,w
  4992  0421  00BA               	movwf	??___fldiv+2
  4993  0422  0837               	movf	___fldiv@b+3,w
  4994  0423  00BB               	movwf	??___fldiv+3
  4995  0424  3001               	movlw	1
  4996  0425  00BC               	movwf	??___fldiv+4
  4997  0426                     u2175:
  4998  0426  0D3B               	rlf	??___fldiv+3,w
  4999  0427  0CBB               	rrf	??___fldiv+3,f
  5000  0428  0CBA               	rrf	??___fldiv+2,f
  5001  0429  0CB9               	rrf	??___fldiv+1,f
  5002  042A  0CB8               	rrf	??___fldiv,f
  5003  042B                     u2170:
  5004  042B  0BBC               	decfsz	??___fldiv+4,f
  5005  042C  2C26               	goto	u2175
  5006  042D  083B               	movf	??___fldiv+3,w
  5007  042E  00B7               	movwf	___fldiv@b+3
  5008  042F  083A               	movf	??___fldiv+2,w
  5009  0430  00B6               	movwf	___fldiv@b+2
  5010  0431  0839               	movf	??___fldiv+1,w
  5011  0432  00B5               	movwf	___fldiv@b+1
  5012  0433  0838               	movf	??___fldiv,w
  5013  0434  00B4               	movwf	___fldiv@b
  5014  0435                     l1706:
  5015  0435  3001               	movlw	1
  5016  0436  07C2               	addwf	___fldiv@new_exp,f
  5017  0437  1803               	skipnc
  5018  0438  0AC3               	incf	___fldiv@new_exp+1,f
  5019  0439  3000               	movlw	0
  5020  043A  07C3               	addwf	___fldiv@new_exp+1,f
  5021  043B                     l1708:
  5022  043B  0843               	movf	___fldiv@new_exp+1,w
  5023  043C  3A80               	xorlw	128
  5024  043D  00FF               	movwf	btemp+1
  5025  043E  3080               	movlw	128
  5026  043F  027F               	subwf	btemp+1,w
  5027  0440  1D03               	skipz
  5028  0441  2C44               	goto	u2185
  5029  0442  30FF               	movlw	255
  5030  0443  0242               	subwf	___fldiv@new_exp,w
  5031  0444                     u2185:
  5032  0444  1C03               	skipc
  5033  0445  2C47               	goto	u2181
  5034  0446  2C48               	goto	u2180
  5035  0447                     u2181:
  5036  0447  2C56               	goto	l1712
  5037  0448                     u2180:
  5038  0448                     l1710:
  5039  0448  30FF               	movlw	255
  5040  0449  1283               	bcf	3,5	;RP0=0, select bank0
  5041  044A  1303               	bcf	3,6	;RP1=0, select bank0
  5042  044B  00C2               	movwf	___fldiv@new_exp
  5043  044C  3000               	movlw	0
  5044  044D  00C3               	movwf	___fldiv@new_exp+1
  5045  044E  3000               	movlw	0
  5046  044F  00B7               	movwf	___fldiv@b+3
  5047  0450  3000               	movlw	0
  5048  0451  00B6               	movwf	___fldiv@b+2
  5049  0452  3000               	movlw	0
  5050  0453  00B5               	movwf	___fldiv@b+1
  5051  0454  3000               	movlw	0
  5052  0455  00B4               	movwf	___fldiv@b
  5053  0456                     l1712:
  5054  0456  1283               	bcf	3,5	;RP0=0, select bank0
  5055  0457  1303               	bcf	3,6	;RP1=0, select bank0
  5056  0458  0843               	movf	___fldiv@new_exp+1,w
  5057  0459  3A80               	xorlw	128
  5058  045A  00FF               	movwf	btemp+1
  5059  045B  3080               	movlw	128
  5060  045C  027F               	subwf	btemp+1,w
  5061  045D  1D03               	skipz
  5062  045E  2C61               	goto	u2195
  5063  045F  3001               	movlw	1
  5064  0460  0242               	subwf	___fldiv@new_exp,w
  5065  0461                     u2195:
  5066  0461  1803               	skipnc
  5067  0462  2C64               	goto	u2191
  5068  0463  2C65               	goto	u2190
  5069  0464                     u2191:
  5070  0464  2C72               	goto	l617
  5071  0465                     u2190:
  5072  0465                     l1714:
  5073  0465  1283               	bcf	3,5	;RP0=0, select bank0
  5074  0466  1303               	bcf	3,6	;RP1=0, select bank0
  5075  0467  01C2               	clrf	___fldiv@new_exp
  5076  0468  01C3               	clrf	___fldiv@new_exp+1
  5077  0469                     l1716:
  5078  0469  3000               	movlw	0
  5079  046A  00B7               	movwf	___fldiv@b+3
  5080  046B  3000               	movlw	0
  5081  046C  00B6               	movwf	___fldiv@b+2
  5082  046D  3000               	movlw	0
  5083  046E  00B5               	movwf	___fldiv@b+1
  5084  046F  3000               	movlw	0
  5085  0470  00B4               	movwf	___fldiv@b
  5086  0471                     l1718:
  5087  0471  01C1               	clrf	___fldiv@sign
  5088  0472                     l617:
  5089  0472  1283               	bcf	3,5	;RP0=0, select bank0
  5090  0473  1303               	bcf	3,6	;RP1=0, select bank0
  5091  0474  0842               	movf	___fldiv@new_exp,w
  5092  0475  00B8               	movwf	??___fldiv
  5093  0476  0838               	movf	??___fldiv,w
  5094  0477  00C8               	movwf	___fldiv@bexp
  5095  0478                     l1720:
  5096  0478  1C48               	btfss	___fldiv@bexp,0
  5097  0479  2C7B               	goto	u2201
  5098  047A  2C7C               	goto	u2200
  5099  047B                     u2201:
  5100  047B  2C7E               	goto	l1724
  5101  047C                     u2200:
  5102  047C                     l1722:
  5103  047C  17B6               	bsf	___fldiv@b+2,7
  5104  047D  2C82               	goto	l619
  5105  047E                     l1724:
  5106  047E  307F               	movlw	127
  5107  047F  00B8               	movwf	??___fldiv
  5108  0480  0838               	movf	??___fldiv,w
  5109  0481  05B6               	andwf	___fldiv@b+2,f
  5110  0482                     l619:
  5111  0482  0848               	movf	___fldiv@bexp,w
  5112  0483  00B8               	movwf	??___fldiv
  5113  0484  1003               	clrc
  5114  0485  0C38               	rrf	??___fldiv,w
  5115  0486  00B9               	movwf	??___fldiv+1
  5116  0487  0839               	movf	??___fldiv+1,w
  5117  0488  00B7               	movwf	___fldiv@b+3
  5118  0489  0841               	movf	___fldiv@sign,w
  5119  048A  00B8               	movwf	??___fldiv
  5120  048B  0838               	movf	??___fldiv,w
  5121  048C  04B7               	iorwf	___fldiv@b+3,f
  5122  048D  2B26               	goto	l1632
  5123  048E                     l597:
  5124  048E  0008               	return
  5125  048F                     __end_of___fldiv:
  5126                           
  5127                           	psect	text17
  5128  0BC7                     __ptext17:	
  5129 ;; *************** function _PWM_Init *****************
  5130 ;; Defined at:
  5131 ;;		line 12 in file "PWM.c"
  5132 ;; Parameters:    Size  Location     Type
  5133 ;;  freq            4    6[BANK0 ] long 
  5134 ;; Auto vars:     Size  Location     Type
  5135 ;;		None
  5136 ;; Return value:  Size  Location     Type
  5137 ;;                  1    wreg      void 
  5138 ;; Registers used:
  5139 ;;		wreg, status,2, status,0, pclath, cstack
  5140 ;; Tracked objects:
  5141 ;;		On entry : 0/0
  5142 ;;		On exit  : 0/0
  5143 ;;		Unchanged: 0/0
  5144 ;; Data sizes:     COMMON   BANK0   BANK1   BANK3   BANK2
  5145 ;;      Params:         0       4       0       0       0
  5146 ;;      Locals:         0       0       0       0       0
  5147 ;;      Temps:          4       0       0       0       0
  5148 ;;      Totals:         4       4       0       0       0
  5149 ;;Total ram usage:        8 bytes
  5150 ;; Hardware stack levels used: 1
  5151 ;; Hardware stack levels required when called: 1
  5152 ;; This function calls:
  5153 ;;		___aldiv
  5154 ;; This function is called by:
  5155 ;;		_PWM1_Duty
  5156 ;;		_PWM2_Duty
  5157 ;; This function uses a non-reentrant model
  5158 ;;
  5159                           
  5160                           
  5161                           ;psect for function _PWM_Init
  5162  0BC7                     _PWM_Init:
  5163  0BC7                     l1502:	
  5164                           ;incstack = 0
  5165                           ; Regs used in _PWM_Init: [wreg+status,2+status,0+pclath+cstack]
  5166                           
  5167                           
  5168                           ;PWM.c: 12: void PWM_Init(long freq);PWM.c: 13: {;PWM.c: 14:   PR2 = (4000000/(freq*4*4)
      +                          ) - 1;
  5169  0BC7  1283               	bcf	3,5	;RP0=0, select bank0
  5170  0BC8  1303               	bcf	3,6	;RP1=0, select bank0
  5171  0BC9  0826               	movf	PWM_Init@freq,w
  5172  0BCA  00F9               	movwf	??_PWM_Init
  5173  0BCB  0827               	movf	PWM_Init@freq+1,w
  5174  0BCC  00FA               	movwf	??_PWM_Init+1
  5175  0BCD  0828               	movf	PWM_Init@freq+2,w
  5176  0BCE  00FB               	movwf	??_PWM_Init+2
  5177  0BCF  0829               	movf	PWM_Init@freq+3,w
  5178  0BD0  00FC               	movwf	??_PWM_Init+3
  5179  0BD1  3002               	movlw	2
  5180  0BD2                     u1675:
  5181  0BD2  1003               	clrc
  5182  0BD3  0DF9               	rlf	??_PWM_Init,f
  5183  0BD4  0DFA               	rlf	??_PWM_Init+1,f
  5184  0BD5  0DFB               	rlf	??_PWM_Init+2,f
  5185  0BD6  0DFC               	rlf	??_PWM_Init+3,f
  5186  0BD7                     u1670:
  5187  0BD7  3EFF               	addlw	-1
  5188  0BD8  1D03               	skipz
  5189  0BD9  2BD2               	goto	u1675
  5190  0BDA  3002               	movlw	2
  5191  0BDB                     u1685:
  5192  0BDB  1003               	clrc
  5193  0BDC  0DF9               	rlf	??_PWM_Init,f
  5194  0BDD  0DFA               	rlf	??_PWM_Init+1,f
  5195  0BDE  0DFB               	rlf	??_PWM_Init+2,f
  5196  0BDF  0DFC               	rlf	??_PWM_Init+3,f
  5197  0BE0                     u1680:
  5198  0BE0  3EFF               	addlw	-1
  5199  0BE1  1D03               	skipz
  5200  0BE2  2BDB               	goto	u1685
  5201  0BE3  087C               	movf	??_PWM_Init+3,w
  5202  0BE4  00F3               	movwf	___aldiv@divisor+3
  5203  0BE5  087B               	movf	??_PWM_Init+2,w
  5204  0BE6  00F2               	movwf	___aldiv@divisor+2
  5205  0BE7  087A               	movf	??_PWM_Init+1,w
  5206  0BE8  00F1               	movwf	___aldiv@divisor+1
  5207  0BE9  0879               	movf	??_PWM_Init,w
  5208  0BEA  00F0               	movwf	___aldiv@divisor
  5209  0BEB  3000               	movlw	0
  5210  0BEC  00F7               	movwf	___aldiv@dividend+3
  5211  0BED  303D               	movlw	61
  5212  0BEE  00F6               	movwf	___aldiv@dividend+2
  5213  0BEF  3009               	movlw	9
  5214  0BF0  00F5               	movwf	___aldiv@dividend+1
  5215  0BF1  3000               	movlw	0
  5216  0BF2  00F4               	movwf	___aldiv@dividend
  5217  0BF3  120A  158A  25D3  120A  158A  	fcall	___aldiv
  5218  0BF8  0870               	movf	?___aldiv,w
  5219  0BF9  3EFF               	addlw	255
  5220  0BFA  1683               	bsf	3,5	;RP0=1, select bank1
  5221  0BFB  1303               	bcf	3,6	;RP1=0, select bank1
  5222  0BFC  0092               	movwf	18	;volatile
  5223  0BFD                     l35:
  5224  0BFD  0008               	return
  5225  0BFE                     __end_of_PWM_Init:
  5226                           
  5227                           	psect	text18
  5228  0DD3                     __ptext18:	
  5229 ;; *************** function ___aldiv *****************
  5230 ;; Defined at:
  5231 ;;		line 5 in file "C:\Program Files\Microchip\xc8\v2.32\pic\sources\c90\common\aldiv.c"
  5232 ;; Parameters:    Size  Location     Type
  5233 ;;  divisor         4    0[COMMON] long 
  5234 ;;  dividend        4    4[COMMON] long 
  5235 ;; Auto vars:     Size  Location     Type
  5236 ;;  quotient        4    2[BANK0 ] long 
  5237 ;;  sign            1    1[BANK0 ] unsigned char 
  5238 ;;  counter         1    0[BANK0 ] unsigned char 
  5239 ;; Return value:  Size  Location     Type
  5240 ;;                  4    0[COMMON] long 
  5241 ;; Registers used:
  5242 ;;		wreg, status,2, status,0
  5243 ;; Tracked objects:
  5244 ;;		On entry : 0/0
  5245 ;;		On exit  : 0/0
  5246 ;;		Unchanged: 0/0
  5247 ;; Data sizes:     COMMON   BANK0   BANK1   BANK3   BANK2
  5248 ;;      Params:         8       0       0       0       0
  5249 ;;      Locals:         0       6       0       0       0
  5250 ;;      Temps:          1       0       0       0       0
  5251 ;;      Totals:         9       6       0       0       0
  5252 ;;Total ram usage:       15 bytes
  5253 ;; Hardware stack levels used: 1
  5254 ;; This function calls:
  5255 ;;		Nothing
  5256 ;; This function is called by:
  5257 ;;		_PWM_Init
  5258 ;;		_PWM1_Duty
  5259 ;;		_PWM2_Duty
  5260 ;; This function uses a non-reentrant model
  5261 ;;
  5262                           
  5263                           
  5264                           ;psect for function ___aldiv
  5265  0DD3                     ___aldiv:
  5266  0DD3                     l1448:	
  5267                           ;incstack = 0
  5268                           ; Regs used in ___aldiv: [wreg+status,2+status,0]
  5269                           
  5270  0DD3  1283               	bcf	3,5	;RP0=0, select bank0
  5271  0DD4  1303               	bcf	3,6	;RP1=0, select bank0
  5272  0DD5  01A1               	clrf	___aldiv@sign
  5273  0DD6                     l1450:
  5274  0DD6  1FF3               	btfss	___aldiv@divisor+3,7
  5275  0DD7  2DD9               	goto	u1541
  5276  0DD8  2DDA               	goto	u1540
  5277  0DD9                     u1541:
  5278  0DD9  2DE7               	goto	l311
  5279  0DDA                     u1540:
  5280  0DDA                     l1452:
  5281  0DDA  09F0               	comf	___aldiv@divisor,f
  5282  0DDB  09F1               	comf	___aldiv@divisor+1,f
  5283  0DDC  09F2               	comf	___aldiv@divisor+2,f
  5284  0DDD  09F3               	comf	___aldiv@divisor+3,f
  5285  0DDE  0AF0               	incf	___aldiv@divisor,f
  5286  0DDF  1903               	skipnz
  5287  0DE0  0AF1               	incf	___aldiv@divisor+1,f
  5288  0DE1  1903               	skipnz
  5289  0DE2  0AF2               	incf	___aldiv@divisor+2,f
  5290  0DE3  1903               	skipnz
  5291  0DE4  0AF3               	incf	___aldiv@divisor+3,f
  5292  0DE5  01A1               	clrf	___aldiv@sign
  5293  0DE6  0AA1               	incf	___aldiv@sign,f
  5294  0DE7                     l311:
  5295  0DE7  1FF7               	btfss	___aldiv@dividend+3,7
  5296  0DE8  2DEA               	goto	u1551
  5297  0DE9  2DEB               	goto	u1550
  5298  0DEA                     u1551:
  5299  0DEA  2DFA               	goto	l1458
  5300  0DEB                     u1550:
  5301  0DEB                     l1454:
  5302  0DEB  09F4               	comf	___aldiv@dividend,f
  5303  0DEC  09F5               	comf	___aldiv@dividend+1,f
  5304  0DED  09F6               	comf	___aldiv@dividend+2,f
  5305  0DEE  09F7               	comf	___aldiv@dividend+3,f
  5306  0DEF  0AF4               	incf	___aldiv@dividend,f
  5307  0DF0  1903               	skipnz
  5308  0DF1  0AF5               	incf	___aldiv@dividend+1,f
  5309  0DF2  1903               	skipnz
  5310  0DF3  0AF6               	incf	___aldiv@dividend+2,f
  5311  0DF4  1903               	skipnz
  5312  0DF5  0AF7               	incf	___aldiv@dividend+3,f
  5313  0DF6                     l1456:
  5314  0DF6  3001               	movlw	1
  5315  0DF7  00F8               	movwf	??___aldiv
  5316  0DF8  0878               	movf	??___aldiv,w
  5317  0DF9  06A1               	xorwf	___aldiv@sign,f
  5318  0DFA                     l1458:
  5319  0DFA  3000               	movlw	0
  5320  0DFB  00A5               	movwf	___aldiv@quotient+3
  5321  0DFC  3000               	movlw	0
  5322  0DFD  00A4               	movwf	___aldiv@quotient+2
  5323  0DFE  3000               	movlw	0
  5324  0DFF  00A3               	movwf	___aldiv@quotient+1
  5325  0E00  3000               	movlw	0
  5326  0E01  00A2               	movwf	___aldiv@quotient
  5327  0E02                     l1460:
  5328  0E02  0873               	movf	___aldiv@divisor+3,w
  5329  0E03  0472               	iorwf	___aldiv@divisor+2,w
  5330  0E04  0471               	iorwf	___aldiv@divisor+1,w
  5331  0E05  0470               	iorwf	___aldiv@divisor,w
  5332  0E06  1903               	skipnz
  5333  0E07  2E09               	goto	u1561
  5334  0E08  2E0A               	goto	u1560
  5335  0E09                     u1561:
  5336  0E09  2E57               	goto	l1480
  5337  0E0A                     u1560:
  5338  0E0A                     l1462:
  5339  0E0A  01A0               	clrf	___aldiv@counter
  5340  0E0B  0AA0               	incf	___aldiv@counter,f
  5341  0E0C  2E1A               	goto	l1466
  5342  0E0D                     l1464:
  5343  0E0D  3001               	movlw	1
  5344  0E0E  00F8               	movwf	??___aldiv
  5345  0E0F                     u1575:
  5346  0E0F  1003               	clrc
  5347  0E10  0DF0               	rlf	___aldiv@divisor,f
  5348  0E11  0DF1               	rlf	___aldiv@divisor+1,f
  5349  0E12  0DF2               	rlf	___aldiv@divisor+2,f
  5350  0E13  0DF3               	rlf	___aldiv@divisor+3,f
  5351  0E14  0BF8               	decfsz	??___aldiv,f
  5352  0E15  2E0F               	goto	u1575
  5353  0E16  3001               	movlw	1
  5354  0E17  00F8               	movwf	??___aldiv
  5355  0E18  0878               	movf	??___aldiv,w
  5356  0E19  07A0               	addwf	___aldiv@counter,f
  5357  0E1A                     l1466:
  5358  0E1A  1FF3               	btfss	___aldiv@divisor+3,7
  5359  0E1B  2E1D               	goto	u1581
  5360  0E1C  2E1E               	goto	u1580
  5361  0E1D                     u1581:
  5362  0E1D  2E0D               	goto	l1464
  5363  0E1E                     u1580:
  5364  0E1E                     l1468:
  5365  0E1E  3001               	movlw	1
  5366  0E1F  00F8               	movwf	??___aldiv
  5367  0E20                     u1595:
  5368  0E20  1003               	clrc
  5369  0E21  0DA2               	rlf	___aldiv@quotient,f
  5370  0E22  0DA3               	rlf	___aldiv@quotient+1,f
  5371  0E23  0DA4               	rlf	___aldiv@quotient+2,f
  5372  0E24  0DA5               	rlf	___aldiv@quotient+3,f
  5373  0E25  0BF8               	decfsz	??___aldiv,f
  5374  0E26  2E20               	goto	u1595
  5375  0E27                     l1470:
  5376  0E27  0873               	movf	___aldiv@divisor+3,w
  5377  0E28  0277               	subwf	___aldiv@dividend+3,w
  5378  0E29  1D03               	skipz
  5379  0E2A  2E35               	goto	u1605
  5380  0E2B  0872               	movf	___aldiv@divisor+2,w
  5381  0E2C  0276               	subwf	___aldiv@dividend+2,w
  5382  0E2D  1D03               	skipz
  5383  0E2E  2E35               	goto	u1605
  5384  0E2F  0871               	movf	___aldiv@divisor+1,w
  5385  0E30  0275               	subwf	___aldiv@dividend+1,w
  5386  0E31  1D03               	skipz
  5387  0E32  2E35               	goto	u1605
  5388  0E33  0870               	movf	___aldiv@divisor,w
  5389  0E34  0274               	subwf	___aldiv@dividend,w
  5390  0E35                     u1605:
  5391  0E35  1C03               	skipc
  5392  0E36  2E38               	goto	u1601
  5393  0E37  2E39               	goto	u1600
  5394  0E38                     u1601:
  5395  0E38  2E48               	goto	l1476
  5396  0E39                     u1600:
  5397  0E39                     l1472:
  5398  0E39  0870               	movf	___aldiv@divisor,w
  5399  0E3A  02F4               	subwf	___aldiv@dividend,f
  5400  0E3B  0871               	movf	___aldiv@divisor+1,w
  5401  0E3C  1C03               	skipc
  5402  0E3D  0F71               	incfsz	___aldiv@divisor+1,w
  5403  0E3E  02F5               	subwf	___aldiv@dividend+1,f
  5404  0E3F  0872               	movf	___aldiv@divisor+2,w
  5405  0E40  1C03               	skipc
  5406  0E41  0F72               	incfsz	___aldiv@divisor+2,w
  5407  0E42  02F6               	subwf	___aldiv@dividend+2,f
  5408  0E43  0873               	movf	___aldiv@divisor+3,w
  5409  0E44  1C03               	skipc
  5410  0E45  0F73               	incfsz	___aldiv@divisor+3,w
  5411  0E46  02F7               	subwf	___aldiv@dividend+3,f
  5412  0E47                     l1474:
  5413  0E47  1422               	bsf	___aldiv@quotient,0
  5414  0E48                     l1476:
  5415  0E48  3001               	movlw	1
  5416  0E49                     u1615:
  5417  0E49  1003               	clrc
  5418  0E4A  0CF3               	rrf	___aldiv@divisor+3,f
  5419  0E4B  0CF2               	rrf	___aldiv@divisor+2,f
  5420  0E4C  0CF1               	rrf	___aldiv@divisor+1,f
  5421  0E4D  0CF0               	rrf	___aldiv@divisor,f
  5422  0E4E  3EFF               	addlw	-1
  5423  0E4F  1D03               	skipz
  5424  0E50  2E49               	goto	u1615
  5425  0E51                     l1478:
  5426  0E51  3001               	movlw	1
  5427  0E52  02A0               	subwf	___aldiv@counter,f
  5428  0E53  1D03               	btfss	3,2
  5429  0E54  2E56               	goto	u1621
  5430  0E55  2E57               	goto	u1620
  5431  0E56                     u1621:
  5432  0E56  2E1E               	goto	l1468
  5433  0E57                     u1620:
  5434  0E57                     l1480:
  5435  0E57  0821               	movf	___aldiv@sign,w
  5436  0E58  1903               	btfsc	3,2
  5437  0E59  2E5B               	goto	u1631
  5438  0E5A  2E5C               	goto	u1630
  5439  0E5B                     u1631:
  5440  0E5B  2E67               	goto	l1484
  5441  0E5C                     u1630:
  5442  0E5C                     l1482:
  5443  0E5C  09A2               	comf	___aldiv@quotient,f
  5444  0E5D  09A3               	comf	___aldiv@quotient+1,f
  5445  0E5E  09A4               	comf	___aldiv@quotient+2,f
  5446  0E5F  09A5               	comf	___aldiv@quotient+3,f
  5447  0E60  0AA2               	incf	___aldiv@quotient,f
  5448  0E61  1903               	skipnz
  5449  0E62  0AA3               	incf	___aldiv@quotient+1,f
  5450  0E63  1903               	skipnz
  5451  0E64  0AA4               	incf	___aldiv@quotient+2,f
  5452  0E65  1903               	skipnz
  5453  0E66  0AA5               	incf	___aldiv@quotient+3,f
  5454  0E67                     l1484:
  5455  0E67  0825               	movf	___aldiv@quotient+3,w
  5456  0E68  00F3               	movwf	?___aldiv+3
  5457  0E69  0824               	movf	___aldiv@quotient+2,w
  5458  0E6A  00F2               	movwf	?___aldiv+2
  5459  0E6B  0823               	movf	___aldiv@quotient+1,w
  5460  0E6C  00F1               	movwf	?___aldiv+1
  5461  0E6D  0822               	movf	___aldiv@quotient,w
  5462  0E6E  00F0               	movwf	?___aldiv
  5463  0E6F                     l321:
  5464  0E6F  0008               	return
  5465  0E70                     __end_of___aldiv:
  5466                           
  5467                           	psect	text19
  5468  0B93                     __ptext19:	
  5469 ;; *************** function _ADC_Read *****************
  5470 ;; Defined at:
  5471 ;;		line 17 in file "adc.c"
  5472 ;; Parameters:    Size  Location     Type
  5473 ;;  channel         1    wreg     unsigned char 
  5474 ;; Auto vars:     Size  Location     Type
  5475 ;;  channel         1    4[COMMON] unsigned char 
  5476 ;; Return value:  Size  Location     Type
  5477 ;;                  2    0[COMMON] unsigned int 
  5478 ;; Registers used:
  5479 ;;		wreg, status,2, status,0
  5480 ;; Tracked objects:
  5481 ;;		On entry : 0/0
  5482 ;;		On exit  : 0/0
  5483 ;;		Unchanged: 0/0
  5484 ;; Data sizes:     COMMON   BANK0   BANK1   BANK3   BANK2
  5485 ;;      Params:         2       0       0       0       0
  5486 ;;      Locals:         1       0       0       0       0
  5487 ;;      Temps:          2       0       0       0       0
  5488 ;;      Totals:         5       0       0       0       0
  5489 ;;Total ram usage:        5 bytes
  5490 ;; Hardware stack levels used: 1
  5491 ;; This function calls:
  5492 ;;		Nothing
  5493 ;; This function is called by:
  5494 ;;		_main
  5495 ;; This function uses a non-reentrant model
  5496 ;;
  5497                           
  5498                           
  5499                           ;psect for function _ADC_Read
  5500  0B93                     _ADC_Read:
  5501                           
  5502                           ;incstack = 0
  5503                           ; Regs used in _ADC_Read: [wreg+status,2+status,0]
  5504                           ;ADC_Read@channel stored from wreg
  5505  0B93  00F4               	movwf	ADC_Read@channel
  5506  0B94                     l1944:
  5507                           
  5508                           ;adc.c: 17: unsigned int ADC_Read(unsigned char channel);adc.c: 18: {;adc.c: 19:    if(c
      +                          hannel > 7)
  5509  0B94  3008               	movlw	8
  5510  0B95  0274               	subwf	ADC_Read@channel,w
  5511  0B96  1C03               	skipc
  5512  0B97  2B99               	goto	u2801
  5513  0B98  2B9A               	goto	u2800
  5514  0B99                     u2801:
  5515  0B99  2B9D               	goto	l1950
  5516  0B9A                     u2800:
  5517  0B9A                     l1946:
  5518                           
  5519                           ;adc.c: 20:      return 0;
  5520  0B9A  01F0               	clrf	?_ADC_Read
  5521  0B9B  01F1               	clrf	?_ADC_Read+1
  5522  0B9C  2BC6               	goto	l74
  5523  0B9D                     l1950:
  5524                           
  5525                           ;adc.c: 22:    ADCON0 &= 0xC5;
  5526  0B9D  30C5               	movlw	197
  5527  0B9E  00F2               	movwf	??_ADC_Read
  5528  0B9F  0872               	movf	??_ADC_Read,w
  5529  0BA0  1283               	bcf	3,5	;RP0=0, select bank0
  5530  0BA1  1303               	bcf	3,6	;RP1=0, select bank0
  5531  0BA2  059F               	andwf	31,f	;volatile
  5532                           
  5533                           ;adc.c: 23:    ADCON0 |= channel<<3;
  5534  0BA3  0874               	movf	ADC_Read@channel,w	;volatile
  5535  0BA4  00F2               	movwf	??_ADC_Read
  5536  0BA5  3002               	movlw	2
  5537  0BA6                     u2815:
  5538  0BA6  1003               	clrc
  5539  0BA7  0DF2               	rlf	??_ADC_Read,f
  5540  0BA8  3EFF               	addlw	-1
  5541  0BA9  1D03               	skipz
  5542  0BAA  2BA6               	goto	u2815
  5543  0BAB  1003               	clrc
  5544  0BAC  0D72               	rlf	??_ADC_Read,w
  5545  0BAD  00F3               	movwf	??_ADC_Read+1
  5546  0BAE  0873               	movf	??_ADC_Read+1,w
  5547  0BAF  049F               	iorwf	31,f	;volatile
  5548  0BB0                     l1952:
  5549                           
  5550                           ;adc.c: 24:    _delay((unsigned long)((2)*(4000000/4000.0)));
  5551  0BB0  3003               	movlw	3
  5552  0BB1  00F3               	movwf	??_ADC_Read+1
  5553  0BB2  3097               	movlw	151
  5554  0BB3  00F2               	movwf	??_ADC_Read
  5555  0BB4                     u3117:
  5556  0BB4  0BF2               	decfsz	??_ADC_Read,f
  5557  0BB5  2BB4               	goto	u3117
  5558  0BB6  0BF3               	decfsz	??_ADC_Read+1,f
  5559  0BB7  2BB4               	goto	u3117
  5560  0BB8  2BB9               	nop2
  5561  0BB9                     l1954:
  5562                           
  5563                           ;adc.c: 25:    GO_nDONE = 1;
  5564  0BB9  1283               	bcf	3,5	;RP0=0, select bank0
  5565  0BBA  1303               	bcf	3,6	;RP1=0, select bank0
  5566  0BBB  151F               	bsf	31,2	;volatile
  5567  0BBC                     l75:	
  5568                           ;adc.c: 26:    while(GO_nDONE);
  5569                           
  5570  0BBC  191F               	btfsc	31,2	;volatile
  5571  0BBD  2BBF               	goto	u2821
  5572  0BBE  2BC0               	goto	u2820
  5573  0BBF                     u2821:
  5574  0BBF  2BBC               	goto	l75
  5575  0BC0                     u2820:
  5576  0BC0                     l1956:
  5577                           
  5578                           ;adc.c: 27:    return ((unsigned int)(ADRESH<<8)+ADRESL);
  5579  0BC0  081E               	movf	30,w	;volatile
  5580  0BC1  00F1               	movwf	?_ADC_Read+1
  5581  0BC2  1683               	bsf	3,5	;RP0=1, select bank1
  5582  0BC3  1303               	bcf	3,6	;RP1=0, select bank1
  5583  0BC4  081E               	movf	30,w	;volatile
  5584  0BC5  00F0               	movwf	?_ADC_Read
  5585  0BC6                     l74:
  5586  0BC6  0008               	return
  5587  0BC7                     __end_of_ADC_Read:
  5588                           
  5589                           	psect	text20
  5590  0B1B                     __ptext20:	
  5591 ;; *************** function _ADC_Init *****************
  5592 ;; Defined at:
  5593 ;;		line 11 in file "adc.c"
  5594 ;; Parameters:    Size  Location     Type
  5595 ;;		None
  5596 ;; Auto vars:     Size  Location     Type
  5597 ;;		None
  5598 ;; Return value:  Size  Location     Type
  5599 ;;                  1    wreg      void 
  5600 ;; Registers used:
  5601 ;;		wreg
  5602 ;; Tracked objects:
  5603 ;;		On entry : 0/0
  5604 ;;		On exit  : 0/0
  5605 ;;		Unchanged: 0/0
  5606 ;; Data sizes:     COMMON   BANK0   BANK1   BANK3   BANK2
  5607 ;;      Params:         0       0       0       0       0
  5608 ;;      Locals:         0       0       0       0       0
  5609 ;;      Temps:          0       0       0       0       0
  5610 ;;      Totals:         0       0       0       0       0
  5611 ;;Total ram usage:        0 bytes
  5612 ;; Hardware stack levels used: 1
  5613 ;; This function calls:
  5614 ;;		Nothing
  5615 ;; This function is called by:
  5616 ;;		_main
  5617 ;; This function uses a non-reentrant model
  5618 ;;
  5619                           
  5620                           
  5621                           ;psect for function _ADC_Init
  5622  0B1B                     _ADC_Init:
  5623  0B1B                     l1942:	
  5624                           ;incstack = 0
  5625                           ; Regs used in _ADC_Init: [wreg]
  5626                           
  5627                           
  5628                           ;adc.c: 13:    ADCON1 = 0x80;
  5629  0B1B  3080               	movlw	128
  5630  0B1C  1683               	bsf	3,5	;RP0=1, select bank1
  5631  0B1D  1303               	bcf	3,6	;RP1=0, select bank1
  5632  0B1E  009F               	movwf	31	;volatile
  5633                           
  5634                           ;adc.c: 14:    ADCON0 = 0xC1;
  5635  0B1F  30C1               	movlw	193
  5636  0B20  1283               	bcf	3,5	;RP0=0, select bank0
  5637  0B21  1303               	bcf	3,6	;RP1=0, select bank0
  5638  0B22  009F               	movwf	31	;volatile
  5639  0B23                     l70:
  5640  0B23  0008               	return
  5641  0B24                     __end_of_ADC_Init:
  5642  007E                     btemp	set	126	;btemp
  5643  007E                     wtemp0	set	126
  5644                           
  5645                           	psect	config
  5646                           
  5647                           ;Config register CONFIG @ 0x2007
  5648                           ;	Oscillator Selection bits
  5649                           ;	FOSC = HS, HS oscillator
  5650                           ;	Watchdog Timer Enable bit
  5651                           ;	WDTE = OFF, WDT disabled
  5652                           ;	Power-up Timer Enable bit
  5653                           ;	PWRTE = OFF, PWRT disabled
  5654                           ;	Brown-out Reset Enable bit
  5655                           ;	BOREN = OFF, BOR disabled
  5656                           ;	Low-Voltage (Single-Supply) In-Circuit Serial Programming Enable bit
  5657                           ;	LVP = OFF, RB3 is digital I/O, HV on MCLR must be used for programming
  5658                           ;	Data EEPROM Memory Code Protection bit
  5659                           ;	CPD = OFF, Data EEPROM code protection off
  5660                           ;	Flash Program Memory Write Enable bits
  5661                           ;	WRT = OFF, Write protection off; all program memory may be written to by EECON control
  5662                           ;	In-Circuit Debugger Mode bit
  5663                           ;	DEBUG = 0x1, unprogrammed default
  5664                           ;	Flash Program Memory Code Protection bit
  5665                           ;	CP = OFF, Code protection off
  5666  2007                     	org	8199
  5667  2007  3F3A               	dw	16186

Data Sizes:
    Strings     0
    Constant    10
    Data        0
    BSS         8
    Persistent  0
    Stack       0

Auto Spaces:
    Space          Size  Autos    Used
    COMMON           14     14      14
    BANK0            80     79      80
    BANK1            80     18      25
    BANK3            96      0       0
    BANK2            96      0       0

Pointer List with Targets:

    None.

Critical Paths under _main in COMMON

    _atualizaDisplay->___lwdiv
    ___lwdiv->___lwmod
    ___wmul->_ADC_Read
    _PWM2_Duty->_PWM_Init
    _PWM2_Duty->___xxtofl
    _PWM1_Duty->_PWM_Init
    _PWM1_Duty->___xxtofl
    ___xxtofl->___aldiv
    ___fltol->___xxtofl
    ___flmul->___xxtofl
    ___fldiv->___xxtofl
    _PWM_Init->___aldiv

Critical Paths under _main in BANK0

    _PWM2_Duty->___fltol
    _PWM1_Duty->___fltol
    ___xxtofl->___aldiv
    ___fltol->___flmul
    ___flmul->___fldiv
    ___fldiv->___xxtofl
    _PWM_Init->___aldiv

Critical Paths under _main in BANK1

    _main->_PWM1_Duty
    _main->_PWM2_Duty

Critical Paths under _main in BANK3

    None.

Critical Paths under _main in BANK2

    None.

Call Graph Tables:

 ---------------------------------------------------------------------------------
 (Depth) Function   	        Calls       Base Space   Used Autos Params    Refs
 ---------------------------------------------------------------------------------
 (0) _main                                                14    14      0   17500
                                              6 BANK1     12    12      0
                           _ADC_Init
                           _ADC_Read
                          _PWM1_Duty
                         _PWM1_Start
                          _PWM2_Duty
                         _PWM2_Start
                            ___awdiv
                             ___wmul
                    _atualizaDisplay
                  _controlarSetPoint
               _controleMaximoMinimo
 ---------------------------------------------------------------------------------
 (1) _controleMaximoMinimo                                 2     0      2     296
                                              0 COMMON     2     0      2
 ---------------------------------------------------------------------------------
 (1) _controlarSetPoint                                    3     1      2     102
                                              0 COMMON     3     1      2
 ---------------------------------------------------------------------------------
 (1) _atualizaDisplay                                     16    14      2    2014
                                              0 BANK0     16    14      2
                            ___lwdiv
                            ___lwmod
 ---------------------------------------------------------------------------------
 (2) ___lwmod                                              6     2      4    1071
                                              0 COMMON     6     2      4
 ---------------------------------------------------------------------------------
 (2) ___lwdiv                                              8     4      4     618
                                              6 COMMON     8     4      4
                            ___lwmod (ARG)
 ---------------------------------------------------------------------------------
 (1) ___wmul                                               6     2      4     396
                                              5 COMMON     6     2      4
                           _ADC_Read (ARG)
 ---------------------------------------------------------------------------------
 (1) ___awdiv                                              9     5      4     452
                                              0 COMMON     9     5      4
 ---------------------------------------------------------------------------------
 (1) _PWM2_Start                                           0     0      0       0
 ---------------------------------------------------------------------------------
 (1) _PWM2_Duty                                            6     2      4    6972
                                              0 BANK1      6     2      4
                           _PWM_Init
                            ___aldiv
                            ___fldiv
                            ___flmul
                            ___fltol
                           ___xxtofl
 ---------------------------------------------------------------------------------
 (1) _PWM1_Start                                           0     0      0       0
 ---------------------------------------------------------------------------------
 (1) _PWM1_Duty                                            6     2      4    6972
                                              0 BANK1      6     2      4
                           _PWM_Init
                            ___aldiv
                            ___fldiv
                            ___flmul
                            ___fltol
                           ___xxtofl
 ---------------------------------------------------------------------------------
 (2) ___xxtofl                                            14    10      4     626
                                              9 COMMON     4     4      0
                                              6 BANK0     10     6      4
                            ___aldiv (ARG)
 ---------------------------------------------------------------------------------
 (2) ___fltol                                             11     7      4     381
                                             68 BANK0     11     7      4
                            ___aldiv (ARG)
                            ___fldiv (ARG)
                            ___flmul (ARG)
                           ___xxtofl (ARG)
 ---------------------------------------------------------------------------------
 (2) ___flmul                                             26    18      8    2569
                                             42 BANK0     26    18      8
                          __Umul8_16
                            ___aldiv (ARG)
                            ___fldiv (ARG)
                           ___xxtofl (ARG)
 ---------------------------------------------------------------------------------
 (3) __Umul8_16                                            9     7      2     799
                                              0 COMMON     9     7      2
 ---------------------------------------------------------------------------------
 (2) ___fldiv                                             26    18      8    1425
                                             16 BANK0     26    18      8
                           ___xxtofl (ARG)
 ---------------------------------------------------------------------------------
 (2) _PWM_Init                                             8     4      4     930
                                              9 COMMON     4     4      0
                                              6 BANK0      4     0      4
                            ___aldiv
 ---------------------------------------------------------------------------------
 (2) ___aldiv                                             15     7      8     756
                                              0 COMMON     9     1      8
                                              0 BANK0      6     6      0
 ---------------------------------------------------------------------------------
 (1) _ADC_Read                                             5     3      2      44
                                              0 COMMON     5     3      2
 ---------------------------------------------------------------------------------
 (1) _ADC_Init                                             0     0      0       0
 ---------------------------------------------------------------------------------
 Estimated maximum stack depth 3
 ---------------------------------------------------------------------------------

 Call Graph Graphs:

 _main (ROOT)
   _ADC_Init
   _ADC_Read
   _PWM1_Duty
     _PWM_Init
       ___aldiv
     ___aldiv
     ___fldiv
       ___xxtofl (ARG)
         ___aldiv (ARG)
     ___flmul
       __Umul8_16
       ___aldiv (ARG)
       ___fldiv (ARG)
       ___xxtofl (ARG)
     ___fltol
       ___aldiv (ARG)
       ___fldiv (ARG)
       ___flmul (ARG)
       ___xxtofl (ARG)
     ___xxtofl
   _PWM1_Start
   _PWM2_Duty
     _PWM_Init
     ___aldiv
     ___fldiv
     ___flmul
     ___fltol
     ___xxtofl
   _PWM2_Start
   ___awdiv
   ___wmul
     _ADC_Read (ARG)
   _atualizaDisplay
     ___lwdiv
       ___lwmod (ARG)
     ___lwmod
   _controlarSetPoint
   _controleMaximoMinimo

 Address spaces:
Name               Size   Autos  Total    Cost      Usage
BITCOMMON            E      0       0       0        0.0%
EEDATA             100      0       0       0        0.0%
NULL                 0      0       0       0        0.0%
CODE                 0      0       0       0        0.0%
COMMON               E      E       E       1      100.0%
BITSFR0              0      0       0       1        0.0%
SFR0                 0      0       0       1        0.0%
BITSFR1              0      0       0       2        0.0%
SFR1                 0      0       0       2        0.0%
STACK                0      0       0       2        0.0%
ABS                  0      0      77       3        0.0%
BITBANK0            50      0       0       4        0.0%
BITSFR3              0      0       0       4        0.0%
SFR3                 0      0       0       4        0.0%
BANK0               50     4F      50       5      100.0%
BITSFR2              0      0       0       5        0.0%
SFR2                 0      0       0       5        0.0%
BITBANK1            50      0       0       6        0.0%
BANK1               50     12      19       7       31.2%
BITBANK3            60      0       0       8        0.0%
BANK3               60      0       0       9        0.0%
BITBANK2            60      0       0      10        0.0%
BANK2               60      0       0      11        0.0%
DATA                 0      0      77      12        0.0%


Microchip Technology PIC Macro Assembler V2.32 build 20210201212658 
Symbol Table                                                                                   Sat Jun 12 21:27:43 2021

                 ___fldiv@aexp 0049                   ___fldiv@bexp 0048                              pc 0002  
                 ___fldiv@sign 0041                             l35 0BFD                             l43 0FFF  
                           l70 0B23                             l46 000C                             l39 0F37  
                           l49 0B2E                             l74 0BC6                             l75 0BBC  
                 ___awdiv@sign 0076                             fsr 0004            ___wmul@multiplicand 0077  
          __Umul8_16@word_mpld 0076                            l124 02B1                            l311 0DE7  
                          l143 0CFB                            l144 0D1A                            l152 0B46  
                          l321 0E6F                            l145 0D36                            l146 0D52  
                          l147 0D56                            l246 0B53                            l432 0DD2  
                          l248 0B6B                            l442 0DD2                            l611 0400  
                          l518 0C7B                            l439 0DBD                            l528 0C37  
                          l617 0472                            l641 075B                            l619 0482  
                          l635 07EF                            l654 0B80                            l647 07E3  
                          l399 0CE2                            l656 0B92                            l681 00C8  
                          l595 030E                            l692 0092                            l597 048E  
                          l693 009E                            l685 0076                            l679 0031  
                          _RB0 0030                            _RB1 0031                            _RB2 0032  
                          _RB3 0033                            _RB4 0034                            _RB5 0035  
                          _RB6 0036                            _RB7 0037                            _PR2 0092  
 __end_of_controleMaximoMinimo 0B47                            fsr0 0004              ??_atualizaDisplay 0022  
                 ___flmul@aexp 005C                   ___flmul@bexp 005D                   ___flmul@sign 0057  
                 ___flmul@temp 0062                   ___flmul@prod 005E                   ___fltol@exp1 006E  
                         l2000 0CF5                           l2010 0D1E                           l2002 0D02  
                         l2020 0D42                           l2012 0D26                           l2004 0D0A  
                         l2100 00C9                           l2022 0D47                           l2014 0D2B  
                         l2006 0D0F                           l2030 0B2F                           l2110 00D6  
                         l2102 00CF                           l2024 0D4C                           l2016 0D30  
                         l2008 0D14                           l2032 0B33                           l2120 0120  
                         l2112 00DB                           l2104 00D0                           l2050 0B61  
                         l2042 0B47                           l2026 0D56                           l2018 0D3A  
                         l2034 0B35                           l2130 0165                           l2122 012C  
                         l2114 00E0                           l2106 00D1                           l2060 0C81  
                         l2052 0B67                           l2044 0B49                           l2036 0B42  
                         l2132 0174                           l2124 0143                           l2116 00E5  
                         l2108 00D2                           l1502 0BC7                           l1510 0D6D  
                         l2070 0C95                           l2062 0C86                           l2046 0B4D  
                         l2038 0B46                           l2134 0183                           l2126 0143  
                         l2118 00F6                           l1600 02CE                           l1520 0D91  
                         l1512 0D82                           l1504 0D57                           l2080 0CAB  
                         l2072 0C97                           l2064 0C88                           l2056 0C7C  
                         l2048 0B5A                           l2136 0190                           l2128 0156  
                         l1450 0DD6                           l1610 02E6                           l1602 02D6  
                         l1514 0D83                           l1506 0D64                           l2090 0CCE  
                         l2082 0CAF                           l2074 0C9D                           l2066 0C8C  
                         l2058 0C7D                           l2138 019F                           l1460 0E02  
                         l1452 0DDA                           l1700 040A                           l1620 02FB  
                         l1612 02EC                           l1604 02D7                           l1516 0D8B  
                         l2084 0CC0                           l2076 0CA0                           l2092 0CD4  
                         l2068 0C91                           l1540 0C38                           l1470 0E27  
                         l1462 0E0A                           l1454 0DEB                           l1710 0448  
                         l1702 0418                           l1630 0322                           l1622 0303  
                         l1614 02F0                           l1606 02D9                           l1534 0DB2  
                         l1526 0D99                           l1518 0D8D                           l2094 0CD9  
                         l2086 0CC6                           l2078 0CA7                           l1550 0C4E  
                         l1542 0C3A                           l1472 0E39                           l1464 0E0D  
                         l1480 0E57                           l1456 0DF6                           l1448 0DD3  
                         l1720 0478                           l1712 0456                           l1704 041C  
                         l1632 0326                           l1624 0304                           l1616 02F1  
                         l1608 02E1                           l1800 0632                           l1536 0DC2  
                         l1528 0DAB                           l2096 0CDE                           l2088 0CC7  
                         l1560 0C71                           l1552 0C52                           l1544 0C40  
                         l1482 0E5C                           l1474 0E47                           l1466 0E1A  
                         l1458 0DFA                           l1722 047C                           l1714 0465  
                         l1706 0435                           l1650 0367                           l1642 033D  
                         l1618 02F6                           l1626 0306                           l1490 0B6F  
                         l1810 06DF                           l1802 064F                           l1730 048F  
                         l1538 0DC7                           l1554 0C63                           l1546 0C43  
                         l1562 0C77                           l1570 0C07                           l1484 0E67  
                         l1476 0E48                           l1468 0E1E                           l1724 047E  
                         l1716 0469                           l1708 043B                           l1660 0385  
                         l1652 0369                           l1644 034F                           l1628 0316  
                         l1636 032F                           l1492 0B76                           l1820 072B  
                         l1812 0707                           l1804 067C                           l1740 04A6  
                         l1732 0496                           l1900 0096                           l1556 0C69  
                         l1548 0C4A                           l1580 0C26                           l1572 0C0E  
                         l1478 0E51                           l1718 0471                           l1654 036E  
                         l1662 038E                           l1670 03B3                           l1646 0357  
                         l1638 0334                           l1590 02B9                           l1494 0B7A  
                         l1830 0740                           l1822 072C                           l1814 0710  
                         l1806 068C                           l1750 04C2                           l1742 04AB  
                         l1734 049C                           l1910 00C0                           l1902 00A0  
                         l1558 0C6A                           l1582 0C2D                           l1574 0C12  
                         l1566 0BFE                           l1680 03D0                           l1672 03B9  
                         l1664 03A0                           l1656 0380                           l1648 035F  
                         l1592 02BF                           l1496 0B89                           l1488 0B6D  
                         l1840 0765                           l1832 0744                           l1824 0735  
                         l1816 071E                           l1808 06B9                           l1760 04D7  
                         l1752 04C8                           l1744 04B3                           l1736 04A0  
                         l1904 00B6                           l1920 0F1A                           l1576 0C16  
                         l1568 0C04                           l1584 0C33                           l1690 03E5  
                         l1682 03D1                           l1674 03C1                           l1666 03A1  
                         l1658 0384                           l1594 02C3                           l1498 0B8E  
                         l1850 07A3                           l1842 0773                           l1834 0758  
                         l1818 0727                           l1826 073B                           l1770 04F3  
                         l1762 04DF                           l1754 04CC                           l1746 04B5  
                         l1738 04A1                           l1906 00BB                           l1922 0F1D  
                         l1914 0E70                           l1930 0F56                           l1578 0C20  
                         l1692 03E9                           l1684 03DA                           l1676 03C3  
                         l1668 03AF                           l1596 02C4                           l1588 02B2  
                         l1860 07D7                           l1852 07AE                           l1844 0777  
                         l1828 073F                           l1780 0536                           l1764 04E1  
                         l1756 04CD                           l1748 04BD                           l1908 00BF  
                         l1924 0F29                           l1916 0E83                           l1932 0FE2  
                         l1940 0B24                           l1942 0B1B                           l1950 0B9D  
                         l1694 03FD                           l1678 03CC                           l1686 03E0  
                         l1598 02C9                           l1862 07DB                           l1854 07BD  
                         l1846 0790                           l1838 0760                           l1790 05BF  
                         l1782 0552                           l1774 04FC                           l1766 04E9  
                         l1758 04D2                           l1870 0010                           l1918 0E8E  
                         l1934 0FE5                           l1926 0F38                           l1952 0BB0  
                         l1944 0B94                           l1688 03E4                           l1864 07DC  
                         l1856 07C7                           l1848 0796                           l1792 05CF  
                         l1784 057E                           l1776 050C                           l1768 04EE  
                         l1872 0015                           l1936 0FF1                           l1928 0F4B  
                         l1960 01B4                           l1954 0BB9                           l1946 0B9A  
                         l1698 0405                           l1866 07E7                           l1858 07C9  
                         l1794 05EC                           l1786 059A                           l1778 0519  
                         l1890 005F                           l1882 0042                           l1874 0019  
                         l1938 0004                           l1970 026C                           l1962 0255  
                         l1956 0BC0                           l1796 05FC                           l1788 05B6  
                         l1892 006D                           l1884 0047                           l1876 0029  
                         l1980 028C                           l1972 0275                           l1964 025E  
                         l1798 0619                           l1894 007D                           l1886 0054  
                         l1878 0039                           l1990 02A4                           l1982 028D  
                         l1974 0276                           l1966 025F                           l1896 0088  
                         l1888 005B                           l1992 02AE                           l1984 0297  
                         l1976 0280                           l1968 0269                           l1898 008C  
                         l1986 029A                           l1978 0283                           l1994 0CE3  
                         l1988 02A3                           l1996 0CE9                           l1998 0CEE  
  controlarSetPoint@S1Anterior 00B8                           u2000 036E                           u2001 036D  
                         u2110 03E4                           u2030 0384                           u2111 03E3  
                         u2031 0383                           u2015 0370                           u2200 047C  
                         u2120 03E9                           u2201 047B                           u2121 03E8  
                         u2105 03D3                           u2025 0379                           u2130 03FD  
                         u2050 03A0                           u2210 04A0                           u3010 0CAF  
                         u2131 03FC                           u2051 039F                           u2211 049F  
                         u3011 0CAE                           u2140 0404                           u2060 03B9  
                         u2220 04A6                           u2141 0403                           u2061 03B8  
                         u2045 0387                           u2301 0560                           u2221 04A5  
                         u3005 0CA1                           u2150 040A                           u2070 03C1  
                         u2302 0567                           u2230 04AB                           u3030 0CC0  
                         u2151 0409                           u2071 03C0                           u2055 039C  
                         u2311 058C                           u2303 056E                           u2231 04AA  
                         u3031 0CBF                           u1600 0E39                           u2160 041C  
                         u2400 06C5                           u2312 0593                           u2240 04CC  
                         u1601 0E38                           u2161 041B                           u2321 05A8  
                         u2313 059A                           u2241 04CB                           u3025 0CB0  
                         u2170 042B                           u2090 03D0                           u2322 05AF  
                         u2250 04D2                           u3050 0CD4                           u2091 03CF  
                         u2411 06D1                           u2323 05B6                           u2251 04D1  
                         u3051 0CD3                           u3035 0CBC                           u3107 02AA  
                         u1620 0E57                           u1540 0DDA                           u2180 0448  
                         u2500 0758                           u2420 06ED                           u2412 06D8  
                         u2260 04D7                           u1700 0D7B                           u3060 0CD9  
                         u3117 0BB4                           u1621 0E56                           u1605 0E35  
                         u1541 0DD9                           u2181 0447                           u2085 03C5  
                         u2501 0757                           u2413 06DF                           u2405 06C0  
                         u2341 05DE                           u2261 04D6                           u3061 0CD8  
                         u3045 0CC8                           u1630 0E5C                           u1550 0DEB  
                         u2190 0465                           u2510 075F                           u2342 05E5  
                         u2270 04EE                           u1710 0D91                           u1631 0E5B  
                         u1615 0E49                           u1551 0DEA                           u2191 0464  
                         u2175 0426                           u2511 075E                           u2431 06F9  
                         u2351 060B                           u2343 05EC                           u2335 05B8  
                         u2271 04ED                           u1711 0D90                           u1560 0E0A  
                         u1640 0B7A                           u2520 0765                           u2432 0700  
                         u2352 0612                           u2280 04F3                           u1720 0D98  
                         u2600 0039                           u1561 0E09                           u2185 0444  
                         u1641 0B79                           u2521 0764                           u2433 0707  
                         u2425 06E8                           u2353 0619                           u2281 04F2  
                         u1721 0D97                           u1705 0D76                           u2601 0038  
                         u2530 0777                           u1810 0C52                           u2195 0461  
                         u2531 0776                           u2371 0641                           u2291 0544  
                         u1811 0C51                           u1580 0E1E                           u1660 0B8E  
                         u2540 0786                           u2460 072B                           u2372 0648  
                         u2292 054B                           u1740 0DAA                           u2700 00BB  
                         u2620 005A                           u1581 0E1D                           u1661 0B8D  
                         u2461 072A                           u2445 0709                           u2381 066E  
                         u2373 064F                           u2365 061B                           u2293 0552  
                         u1741 0DA9                           u2701 00BA                           u2621 0059  
                         u1805 0C44                           u3077 0265                           u1670 0BD7  
                         u2550 07A3                           u2382 0675                           u1750 0DB1  
                         u2710 00BF                           u1830 0C63                           u1910 0C33  
                         u1575 0E0F                           u1655 0B81                           u2551 07A2  
                         u2455 0720                           u2391 069B                           u2383 067C  
                         u1751 0DB0                           u1735 0D9A                           u2711 00BE  
                         u2615 004C                           u1831 0C62                           u1911 0C32  
                         u3087 027C                           u2800 0B9A                           u1680 0BE0  
                         u1920 02C3                           u2560 07BD                           u2480 073F  
                         u2392 06A2                           u2640 007C                           u2720 0E8E  
                         u2801 0B99                           u1921 02C2                           u2561 07BC  
                         u2545 0781                           u2481 073E                           u2393 06A9  
                         u2641 007B                           u2721 0E8D                           u1825 0C53  
                         u1905 0C27                           u3097 0293                           u1930 02C9  
                         u2570 07DB                           u2490 0744                           u1770 0DC2  
                         u1690 0D64                           u2730 0F26                           u1850 0C77  
                         u1595 0E20                           u1675 0BD2                           u1931 02C8  
                         u2571 07DA                           u2555 079F                           u2491 0743  
                         u2475 072E                           u1771 0DC1                           u1691 0D63  
                         u2635 006E                           u2731 0F22                           u1851 0C76  
                         u1835 0C5F                           u2820 0BC0                           u1940 02CE  
                         u1780 0DC7                           u2660 008C                           u2580 0015  
                         u1860 0C04                           u2900 0D4C                           u2821 0BBF  
                         u1685 0BDB                           u1941 02CD                           u2565 07B9  
                         u1781 0DC6                           u1765 0DB4                           u2661 008B  
                         u2581 0014                           u1845 0C6B                           u1861 0C03  
                         u2901 0D4B                           u1950 02F0                           u2670 0092  
                         u2590 0019                           u1790 0C40                           u2830 0CEE  
                         u2910 0B33                           u2815 0BA6                           u1951 02EF  
                         u2671 0091                           u2655 0081                           u2591 0018  
                         u1791 0C3F                           u2831 0CED                           u2911 0B32  
                         u1960 02F6                           u2680 0096                           u2744 0F29  
                         u2760 0F56                           u1880 0C16                           u2840 0CF5  
                         u2920 0B42                           u1961 02F5                           u2681 0095  
                         u2761 0F55                           u1881 0C15                           u2841 0CF4  
                         u2921 0B41                           u1970 02FB                           u2690 00AB  
                         u2770 0FEE                           u2930 0B4D                           u1890 0C20  
                         u2850 0D0F                           u1971 02FA                           u2755 0F2E  
                         u2771 0FEA                           u2931 0B4C                           u1891 0C1F  
                         u1875 0C08                           u2851 0D0E                           u1980 0316  
                         u2860 0D14                           u1981 0315                           u2861 0D13  
                         u2925 0B3E                           u1990 0334                           u2870 0D2B  
                         u1991 0333                           u2695 00A6                           u1895 0C1C  
                         u2871 0D2A                           u2784 0FF1                           u2960 0B67  
                         u2880 0D30                           u2961 0B66                           u2945 0B54  
                         u2881 0D2F                           u2970 0C81                           u2890 0D47  
                         u2795 0FF6                           u2971 0C80                           u2955 0B5B  
                         u2891 0D46                           u2980 0C8C                           u2981 0C8B  
                         u2990 0C9D                           u2991 0C9C    controlarSetPoint@S2Anterior 00B7  
                         _main 00C9    controlarSetPoint@S3Anterior 00B5                           btemp 007E  
             __end_of_ADC_Init 0B24               __end_of_ADC_Read 0BC7    controlarSetPoint@S4Anterior 00B3  
                         start 0000                ___fldiv@new_exp 0042       controlarSetPoint@S1Atual 006F  
     controlarSetPoint@S2Atual 00B6       controlarSetPoint@S3Atual 00B4       controlarSetPoint@S4Atual 00B2  
                ___fltol@sign1 006D                __end_of___aldiv 0E70                          ?_main 0070  
                        _CCP1X 00BD                __end_of___fldiv 048F                          _CCP1Y 00BC  
                        _CCP2X 00ED                          _CCP2Y 00EC                __end_of___awdiv 0CE3  
              __end_of___flmul 07F0                __end_of___fltol 0DD3                ___awdiv@divisor 0070  
              __end_of___lwdiv 0C7C                __end_of___lwmod 0C38                ___awdiv@counter 0075  
                        _PORTD 0008                          _TRISA 0085                          _TRISB 0086  
                        _TRISC 0087                          _TRISD 0088                          _TRISE 0089  
           __size_of_PWM1_Duty 00C8                    ?_PWM1_Start 0070             __size_of_PWM2_Duty 00C8  
                  ?_PWM2_Start 0070                   main@setPoint 00B0                          pclath 000A  
             __end_of_PWM_Init 0BFE                          status 0003                          wtemp0 007E  
              __initialization 07F0                   __end_of_main 01B4                         ??_main 00A6  
                       _ADCON0 001F                         _ADCON1 009F                         _CCP1M2 00BA  
                       _CCP1M3 00BB                         _CCP2M2 00EA                         _CCP2M3 00EB  
                       _ADRESH 001E                         _ADRESL 009E                         _CCPR1L 0015  
                       _CCPR2L 001B               ___awdiv@dividend 0072                         _TMR2ON 0092  
                       _TRISC1 0439                         _TRISC2 043A               __end_of___xxtofl 00C9  
         _controleMaximoMinimo 0B2F              __end_of_PWM1_Duty 0F38              __end_of_PWM2_Duty 1000  
                    ??___aldiv 0078                         ___wmul 0B47                      ??___fldiv 0038  
                    ??___awdiv 0074            __size_of_PWM1_Start 0009                      ??___flmul 0052  
                    ??___fltol 0068            __size_of_PWM2_Start 000B                         _digito 0806  
                    ??___lwdiv 007A                      ??___lwmod 0074                ADC_Read@channel 0074  
             ___awdiv@quotient 0077                         main@up 00AE             __size_of__Umul8_16 0027  
                 PWM_Init@freq 0026                      ?_ADC_Init 0070                      ?_ADC_Read 0070  
                 ___xxtofl@arg 002C                   ___xxtofl@exp 002B                   ___xxtofl@val 0026  
      __end_of__initialization 07FC                     ___fltol@f1 0064          ?_controleMaximoMinimo 0070  
               __pcstackCOMMON 0070                _atualizaDisplay 01B4                      ?_PWM_Init 0026  
                   ??_ADC_Init 0070                     ??_ADC_Read 0072                     __pbssBANK0 006F  
                   __pbssBANK1 00B2            _atualizaDisplay$752 002E            _atualizaDisplay$753 002C  
            __end_of__Umul8_16 0B93                     __pmaintext 00C9                        ?___wmul 0075  
                   ??_PWM_Init 0079                        _T2CKPS0 0090                        _T2CKPS1 0091  
                    ?___xxtofl 0026                   ??_PWM1_Start 0070                   ??_PWM2_Start 0070  
                   __stringtab 0800        __end_of_atualizaDisplay 02B2         ??_controleMaximoMinimo 0072  
                      ___aldiv 0DD3                        ___fldiv 02B2                        ___awdiv 0C7C  
                      ___flmul 048F                        ___fltol 0D57                __size_of___wmul 0025  
                      ___lwdiv 0C38                        ___lwmod 0BFE             __end_of_PWM1_Start 000D  
           __end_of_PWM2_Start 0B2F                        __ptext1 0B2F                        __ptext2 0CE3  
                      __ptext3 01B4                        __ptext4 0BFE                        __ptext5 0C38  
                      __ptext6 0B47                        __ptext7 0C7C                        __ptext8 0B24  
                      __ptext9 0F38                     ??___xxtofl 0079               ___aldiv@dividend 0074  
         end_of_initialization 07FC               ___aldiv@quotient 0022                      _PWM1_Duty 0E70  
                    _PWM2_Duty 0F38                  ___xxtofl@sign 002A      controleMaximoMinimo@valor 0070  
                  ___fldiv@grs 0044                    ___fldiv@rem 003D              __size_of_ADC_Init 0009  
            __size_of_ADC_Read 0034                    ___flmul@grs 0058                     main@cooler 00AC  
             ?_atualizaDisplay 0020                 __end_of___wmul 0B6C                 __end_of_digito 0810  
                   ?_PWM1_Duty 00A0                     ?_PWM2_Duty 00A0              __size_of_PWM_Init 0037  
          start_initialization 07F0                       ??___wmul 0079                      __Umul8_16 0B6C  
                    ___fldiv@a 0030                      ___fldiv@b 0034                      ___flmul@a 004E  
                    ___flmul@b 004A                      ___latbits 0002                  __pcstackBANK0 0020  
                __pcstackBANK1 00A0              __size_of___xxtofl 00BC               ___lwdiv@dividend 0078  
                     ?___aldiv 0070                       ?___fldiv 0030                       ?___awdiv 0070  
                     ?___flmul 004A                       ?___fltol 0064                     ?__Umul8_16 0070  
                     ?___lwdiv 0076                       ?___lwmod 0070                    ??_PWM1_Duty 00A4  
                  ??_PWM2_Duty 00A4                      __pstrings 0800         atualizaDisplay@centena 0026  
                     _ADC_Init 0B1B                       _ADC_Read 0B93               ___lwdiv@quotient 007B  
       atualizaDisplay@tempSet 0020         atualizaDisplay@unidade 002A                ___aldiv@divisor 0070  
              ___aldiv@counter 0020                 ___wmul@product 0079              _controlarSetPoint 0CE3  
           ?_controlarSetPoint 0070  __size_of_controleMaximoMinimo 0018                  PWM1_Duty@freq 00A2  
                PWM1_Duty@duty 00A0                       _GO_nDONE 00FA            ??_controlarSetPoint 0072  
                PWM2_Duty@freq 00A2                  PWM2_Duty@duty 00A0                    __stringbase 0805  
                     _PWM_Init 0BC7              ___wmul@multiplier 0075      __end_of_controlarSetPoint 0D57  
                  ??__Umul8_16 0072               __size_of___aldiv 009D               __size_of___fldiv 01DD  
             __size_of___awdiv 0067               __size_of___flmul 0361               __size_of___fltol 007C  
             __size_of___lwdiv 0044               __size_of___lwmod 003A             __end_of__stringtab 0806  
                     ___xxtofl 000D                ___lwdiv@divisor 0076                ___lwdiv@counter 007D  
                     __ptext10 0004                       __ptext11 0E70                       __ptext20 0B1B  
                     __ptext12 000D                       __ptext13 0D57                       __ptext14 048F  
                     __ptext15 0B6C                       __ptext16 02B2                       __ptext17 0BC7  
                     __ptext18 0DD3                       __ptext19 0B93          atualizaDisplay@dezena 0028  
        atualizaDisplay@milhar 0024                  __size_of_main 00EB      controlarSetPoint@setPoint 0070  
     __size_of_atualizaDisplay 00FE                       main@erro 00A8                main@temperatura 00AA  
   __size_of_controlarSetPoint 0074               ___lwmod@dividend 0072                      stringcode 0800  
       __Umul8_16@multiplicand 0070                ___lwmod@divisor 0070                ___lwmod@counter 0075  
                     stringdir 0800                       stringtab 0800                   ___aldiv@sign 0021  
                   _PWM1_Start 0004                     _PWM2_Start 0B24           __Umul8_16@multiplier 0078  
            __Umul8_16@product 0074  
