

Microchip MPLAB XC8 Assembler V2.32 build 20210201212658 
                                                                                               Sun Jun 13 14:39:01 2021

Microchip MPLAB XC8 C Compiler v2.32 (Free license) build 20210201212658 Og1 
     1                           	processor	16F877A
     2                           	pagewidth 120
     3                           	opt	flic
     4                           	psect	idataBANK1,global,class=CODE,delta=2,noexec
     5                           	psect	strings,global,class=STRING,delta=2,noexec
     6                           	psect	nvBANK1,global,class=BANK1,space=1,delta=1,noexec
     7                           	psect	cinit,global,class=CODE,merge=1,delta=2
     8                           	psect	bssBANK1,global,class=BANK1,space=1,delta=1,noexec
     9                           	psect	dataBANK1,global,class=BANK1,space=1,delta=1,noexec
    10                           	psect	cstackBANK1,global,class=BANK1,space=1,delta=1,noexec
    11                           	psect	cstackCOMMON,global,class=COMMON,space=1,delta=1,noexec
    12                           	psect	cstackBANK0,global,class=BANK0,space=1,delta=1,noexec
    13                           	psect	maintext,global,class=CODE,split=1,delta=2
    14                           	psect	text1,local,class=CODE,merge=1,delta=2
    15                           	psect	text2,local,class=CODE,merge=1,delta=2
    16                           	psect	text3,local,class=CODE,merge=1,delta=2
    17                           	psect	text4,local,class=CODE,merge=1,delta=2
    18                           	psect	text5,local,class=CODE,merge=1,delta=2
    19                           	psect	text6,local,class=CODE,merge=1,delta=2
    20                           	psect	text7,local,class=CODE,merge=1,delta=2
    21                           	psect	text8,local,class=CODE,merge=1,delta=2
    22                           	psect	text9,local,class=CODE,merge=1,delta=2
    23                           	psect	text10,local,class=CODE,merge=1,delta=2
    24                           	psect	text11,local,class=CODE,merge=1,delta=2
    25                           	psect	text12,local,class=CODE,merge=1,delta=2,group=1
    26                           	psect	text13,local,class=CODE,merge=1,delta=2,group=1
    27                           	psect	text14,local,class=CODE,merge=1,delta=2,group=1
    28                           	psect	text15,local,class=CODE,merge=1,delta=2,group=1
    29                           	psect	text16,local,class=CODE,merge=1,delta=2
    30                           	psect	text17,local,class=CODE,merge=1,delta=2
    31                           	psect	text18,local,class=CODE,merge=1,delta=2
    32                           	psect	text19,local,class=CODE,merge=1,delta=2
    33                           	psect	text20,local,class=CODE,merge=1,delta=2,group=1
    34                           	psect	text21,local,class=CODE,merge=1,delta=2,group=1
    35                           	psect	text22,local,class=CODE,merge=1,delta=2,group=1
    36                           	psect	text23,local,class=CODE,merge=1,delta=2,group=1
    37                           	psect	text24,local,class=CODE,merge=1,delta=2,group=1
    38                           	psect	text25,local,class=CODE,merge=1,delta=2
    39                           	psect	text26,local,class=CODE,merge=1,delta=2,group=1
    40                           	psect	text27,local,class=CODE,merge=1,delta=2
    41                           	psect	text28,local,class=CODE,merge=1,delta=2
    42                           	psect	config,global,abs,ovrld,class=CONFIG,space=4,delta=2,noexec
    43                           	dabs	1,0x7E,2
    44  0000                     
    45                           ; Version 2.20
    46                           ; Generated 12/02/2020 GMT
    47                           ; 
    48                           ; Copyright © 2020, Microchip Technology Inc. and its subsidiaries ("Microchip")
    49                           ; All rights reserved.
    50                           ; 
    51                           ; This software is developed by Microchip Technology Inc. and its subsidiaries ("Microch
      +                          ip").
    52                           ; 
    53                           ; Redistribution and use in source and binary forms, with or without modification, are
    54                           ; permitted provided that the following conditions are met:
    55                           ; 
    56                           ;     1. Redistributions of source code must retain the above copyright notice, this lis
      +                          t of
    57                           ;        conditions and the following disclaimer.
    58                           ; 
    59                           ;     2. Redistributions in binary form must reproduce the above copyright notice, this 
      +                          list
    60                           ;        of conditions and the following disclaimer in the documentation and/or other
    61                           ;        materials provided with the distribution.
    62                           ; 
    63                           ;     3. Microchip's name may not be used to endorse or promote products derived from th
      +                          is
    64                           ;        software without specific prior written permission.
    65                           ; 
    66                           ; THIS SOFTWARE IS PROVIDED BY MICROCHIP "AS IS" AND ANY EXPRESS OR IMPLIED WARRANTIES,
    67                           ; INCLUDING, BUT NOT LIMITED TO, THE IMPLIED WARRANTIES OF MERCHANTABILITY AND FITNESS F
      +                          OR
    68                           ; PURPOSE ARE DISCLAIMED.  IN NO EVENT SHALL MICROCHIP BE LIABLE FOR ANY DIRECT, INDIREC
      +                          T,
    69                           ; INCIDENTAL, SPECIAL, EXEMPLARY, OR CONSEQUENTIAL DAMAGES (INCLUDING BUT NOT LIMITED TO
    70                           ; PROCUREMENT OF SUBSTITUTE GOODS OR SERVICES; LOSS OF USE, DATA OR PROFITS; OR BUSINESS
    71                           ; INTERRUPTION) HOWSOEVER CAUSED AND ON ANY THEORY OF LIABILITY, WHETHER IN CONTRACT, ST
      +                          RICT
    72                           ; LIABILITY, OR TORT (INCLUDING NEGLIGENCE OR OTHERWISE) ARISING IN ANY WAY OUT OF THE U
      +                          SE OF
    73                           ; THIS SOFTWARE, EVEN IF ADVISED OF THE POSSIBILITY OF SUCH DAMAGE.
    74                           ; 
    75                           ; 
    76                           ; Code-generator required, PIC16F877A Definitions
    77                           ; 
    78                           ; SFR Addresses
    79  0000                     	;# 
    80  0001                     	;# 
    81  0002                     	;# 
    82  0003                     	;# 
    83  0004                     	;# 
    84  0005                     	;# 
    85  0006                     	;# 
    86  0007                     	;# 
    87  0008                     	;# 
    88  0009                     	;# 
    89  000A                     	;# 
    90  000B                     	;# 
    91  000C                     	;# 
    92  000D                     	;# 
    93  000E                     	;# 
    94  000E                     	;# 
    95  000F                     	;# 
    96  0010                     	;# 
    97  0011                     	;# 
    98  0012                     	;# 
    99  0013                     	;# 
   100  0014                     	;# 
   101  0015                     	;# 
   102  0015                     	;# 
   103  0016                     	;# 
   104  0017                     	;# 
   105  0018                     	;# 
   106  0019                     	;# 
   107  001A                     	;# 
   108  001B                     	;# 
   109  001B                     	;# 
   110  001C                     	;# 
   111  001D                     	;# 
   112  001E                     	;# 
   113  001F                     	;# 
   114  0081                     	;# 
   115  0085                     	;# 
   116  0086                     	;# 
   117  0087                     	;# 
   118  0088                     	;# 
   119  0089                     	;# 
   120  008C                     	;# 
   121  008D                     	;# 
   122  008E                     	;# 
   123  0091                     	;# 
   124  0092                     	;# 
   125  0093                     	;# 
   126  0094                     	;# 
   127  0098                     	;# 
   128  0099                     	;# 
   129  009C                     	;# 
   130  009D                     	;# 
   131  009E                     	;# 
   132  009F                     	;# 
   133  010C                     	;# 
   134  010D                     	;# 
   135  010E                     	;# 
   136  010F                     	;# 
   137  018C                     	;# 
   138  018D                     	;# 
   139  0000                     	;# 
   140  0001                     	;# 
   141  0002                     	;# 
   142  0003                     	;# 
   143  0004                     	;# 
   144  0005                     	;# 
   145  0006                     	;# 
   146  0007                     	;# 
   147  0008                     	;# 
   148  0009                     	;# 
   149  000A                     	;# 
   150  000B                     	;# 
   151  000C                     	;# 
   152  000D                     	;# 
   153  000E                     	;# 
   154  000E                     	;# 
   155  000F                     	;# 
   156  0010                     	;# 
   157  0011                     	;# 
   158  0012                     	;# 
   159  0013                     	;# 
   160  0014                     	;# 
   161  0015                     	;# 
   162  0015                     	;# 
   163  0016                     	;# 
   164  0017                     	;# 
   165  0018                     	;# 
   166  0019                     	;# 
   167  001A                     	;# 
   168  001B                     	;# 
   169  001B                     	;# 
   170  001C                     	;# 
   171  001D                     	;# 
   172  001E                     	;# 
   173  001F                     	;# 
   174  0081                     	;# 
   175  0085                     	;# 
   176  0086                     	;# 
   177  0087                     	;# 
   178  0088                     	;# 
   179  0089                     	;# 
   180  008C                     	;# 
   181  008D                     	;# 
   182  008E                     	;# 
   183  0091                     	;# 
   184  0092                     	;# 
   185  0093                     	;# 
   186  0094                     	;# 
   187  0098                     	;# 
   188  0099                     	;# 
   189  009C                     	;# 
   190  009D                     	;# 
   191  009E                     	;# 
   192  009F                     	;# 
   193  010C                     	;# 
   194  010D                     	;# 
   195  010E                     	;# 
   196  010F                     	;# 
   197  018C                     	;# 
   198  018D                     	;# 
   199  0000                     	;# 
   200  0001                     	;# 
   201  0002                     	;# 
   202  0003                     	;# 
   203  0004                     	;# 
   204  0005                     	;# 
   205  0006                     	;# 
   206  0007                     	;# 
   207  0008                     	;# 
   208  0009                     	;# 
   209  000A                     	;# 
   210  000B                     	;# 
   211  000C                     	;# 
   212  000D                     	;# 
   213  000E                     	;# 
   214  000E                     	;# 
   215  000F                     	;# 
   216  0010                     	;# 
   217  0011                     	;# 
   218  0012                     	;# 
   219  0013                     	;# 
   220  0014                     	;# 
   221  0015                     	;# 
   222  0015                     	;# 
   223  0016                     	;# 
   224  0017                     	;# 
   225  0018                     	;# 
   226  0019                     	;# 
   227  001A                     	;# 
   228  001B                     	;# 
   229  001B                     	;# 
   230  001C                     	;# 
   231  001D                     	;# 
   232  001E                     	;# 
   233  001F                     	;# 
   234  0081                     	;# 
   235  0085                     	;# 
   236  0086                     	;# 
   237  0087                     	;# 
   238  0088                     	;# 
   239  0089                     	;# 
   240  008C                     	;# 
   241  008D                     	;# 
   242  008E                     	;# 
   243  0091                     	;# 
   244  0092                     	;# 
   245  0093                     	;# 
   246  0094                     	;# 
   247  0098                     	;# 
   248  0099                     	;# 
   249  009C                     	;# 
   250  009D                     	;# 
   251  009E                     	;# 
   252  009F                     	;# 
   253  010C                     	;# 
   254  010D                     	;# 
   255  010E                     	;# 
   256  010F                     	;# 
   257  018C                     	;# 
   258  018D                     	;# 
   259  0000                     	;# 
   260  0001                     	;# 
   261  0002                     	;# 
   262  0003                     	;# 
   263  0004                     	;# 
   264  0005                     	;# 
   265  0006                     	;# 
   266  0007                     	;# 
   267  0008                     	;# 
   268  0009                     	;# 
   269  000A                     	;# 
   270  000B                     	;# 
   271  000C                     	;# 
   272  000D                     	;# 
   273  000E                     	;# 
   274  000E                     	;# 
   275  000F                     	;# 
   276  0010                     	;# 
   277  0011                     	;# 
   278  0012                     	;# 
   279  0013                     	;# 
   280  0014                     	;# 
   281  0015                     	;# 
   282  0015                     	;# 
   283  0016                     	;# 
   284  0017                     	;# 
   285  0018                     	;# 
   286  0019                     	;# 
   287  001A                     	;# 
   288  001B                     	;# 
   289  001B                     	;# 
   290  001C                     	;# 
   291  001D                     	;# 
   292  001E                     	;# 
   293  001F                     	;# 
   294  0081                     	;# 
   295  0085                     	;# 
   296  0086                     	;# 
   297  0087                     	;# 
   298  0088                     	;# 
   299  0089                     	;# 
   300  008C                     	;# 
   301  008D                     	;# 
   302  008E                     	;# 
   303  0091                     	;# 
   304  0092                     	;# 
   305  0093                     	;# 
   306  0094                     	;# 
   307  0098                     	;# 
   308  0099                     	;# 
   309  009C                     	;# 
   310  009D                     	;# 
   311  009E                     	;# 
   312  009F                     	;# 
   313  010C                     	;# 
   314  010D                     	;# 
   315  010E                     	;# 
   316  010F                     	;# 
   317  018C                     	;# 
   318  018D                     	;# 
   319  0000                     	;# 
   320  0001                     	;# 
   321  0002                     	;# 
   322  0003                     	;# 
   323  0004                     	;# 
   324  0005                     	;# 
   325  0006                     	;# 
   326  0007                     	;# 
   327  0008                     	;# 
   328  0009                     	;# 
   329  000A                     	;# 
   330  000B                     	;# 
   331  000C                     	;# 
   332  000D                     	;# 
   333  000E                     	;# 
   334  000E                     	;# 
   335  000F                     	;# 
   336  0010                     	;# 
   337  0011                     	;# 
   338  0012                     	;# 
   339  0013                     	;# 
   340  0014                     	;# 
   341  0015                     	;# 
   342  0015                     	;# 
   343  0016                     	;# 
   344  0017                     	;# 
   345  0018                     	;# 
   346  0019                     	;# 
   347  001A                     	;# 
   348  001B                     	;# 
   349  001B                     	;# 
   350  001C                     	;# 
   351  001D                     	;# 
   352  001E                     	;# 
   353  001F                     	;# 
   354  0081                     	;# 
   355  0085                     	;# 
   356  0086                     	;# 
   357  0087                     	;# 
   358  0088                     	;# 
   359  0089                     	;# 
   360  008C                     	;# 
   361  008D                     	;# 
   362  008E                     	;# 
   363  0091                     	;# 
   364  0092                     	;# 
   365  0093                     	;# 
   366  0094                     	;# 
   367  0098                     	;# 
   368  0099                     	;# 
   369  009C                     	;# 
   370  009D                     	;# 
   371  009E                     	;# 
   372  009F                     	;# 
   373  010C                     	;# 
   374  010D                     	;# 
   375  010E                     	;# 
   376  010F                     	;# 
   377  018C                     	;# 
   378  018D                     	;# 
   379                           
   380                           	psect	idataBANK1
   381  0944                     __pidataBANK1:
   382                           
   383                           ;initializer for _kp
   384  0944  3464               	retlw	100
   385  0945  3400               	retlw	0
   386                           
   387                           ;initializer for _setPoint
   388  0946  345E               	retlw	94
   389  0947  3410               	retlw	16
   390                           
   391                           	psect	strings
   392  0800                     __pstrings:
   393  0800                     stringtab:
   394  0800                     __stringtab:
   395  0800                     stringcode:	
   396                           ;	String table - string pointers are 1 byte each
   397                           
   398  0800                     stringdir:
   399  0800  3008               	movlw	high stringdir
   400  0801  008A               	movwf	10
   401  0802  0804               	movf	4,w
   402  0803  0A84               	incf	4,f
   403  0804  0782               	addwf	2,f
   404  0805                     __stringbase:
   405  0805  3400               	retlw	0
   406  0806                     __end_of__stringtab:
   407  0806                     _digito:
   408  0806  343F               	retlw	63
   409  0807  3406               	retlw	6
   410  0808  345B               	retlw	91
   411  0809  344F               	retlw	79
   412  080A  3466               	retlw	102
   413  080B  346D               	retlw	109
   414  080C  347D               	retlw	125
   415  080D  3407               	retlw	7
   416  080E  347F               	retlw	127
   417  080F  346F               	retlw	111
   418  0810                     __end_of_digito:
   419  0810                     STR_3:
   420  0810  3456               	retlw	86	;'V'
   421  0811  3461               	retlw	97	;'a'
   422  0812  346C               	retlw	108	;'l'
   423  0813  346F               	retlw	111	;'o'
   424  0814  3472               	retlw	114	;'r'
   425  0815  3420               	retlw	32	;' '
   426  0816  3454               	retlw	84	;'T'
   427  0817  3445               	retlw	69	;'E'
   428  0818  344D               	retlw	77	;'M'
   429  0819  3450               	retlw	80	;'P'
   430  081A  3400               	retlw	0
   431  081B                     STR_4:
   432  081B  3456               	retlw	86	;'V'
   433  081C  3461               	retlw	97	;'a'
   434  081D  346C               	retlw	108	;'l'
   435  081E  346F               	retlw	111	;'o'
   436  081F  3472               	retlw	114	;'r'
   437  0820  3420               	retlw	32	;' '
   438  0821  344B               	retlw	75	;'K'
   439  0822  3450               	retlw	80	;'P'
   440  0823  3400               	retlw	0
   441  0824                     STR_2:
   442  0824  3420               	retlw	32	;' '
   443  0825  3420               	retlw	32	;' '
   444  0826  344B               	retlw	75	;'K'
   445  0827  3450               	retlw	80	;'P'
   446  0828  343A               	retlw	58	;':'
   447  0829  3400               	retlw	0
   448  082A                     STR_1:
   449  082A  3454               	retlw	84	;'T'
   450  082B  3445               	retlw	69	;'E'
   451  082C  344D               	retlw	77	;'M'
   452  082D  3450               	retlw	80	;'P'
   453  082E  343A               	retlw	58	;':'
   454  082F  3400               	retlw	0
   455                           
   456                           	psect	nvBANK1
   457  00C2                     __pnvBANK1:
   458  00C2                     _menu:
   459  00C2                     	ds	2
   460  0009                     _PORTEbits	set	9
   461  0008                     _PORTD	set	8
   462  001E                     _ADRESH	set	30
   463  001F                     _ADCON0	set	31
   464  001B                     _CCPR2L	set	27
   465  0015                     _CCPR1L	set	21
   466  0033                     _RB3	set	51
   467  0032                     _RB2	set	50
   468  0031                     _RB1	set	49
   469  0030                     _RB0	set	48
   470  0034                     _RB4	set	52
   471  0035                     _RB5	set	53
   472  0036                     _RB6	set	54
   473  0037                     _RB7	set	55
   474  00FA                     _GO_nDONE	set	250
   475  0091                     _T2CKPS1	set	145
   476  0090                     _T2CKPS0	set	144
   477  00EA                     _CCP2M2	set	234
   478  00EB                     _CCP2M3	set	235
   479  0092                     _TMR2ON	set	146
   480  00BA                     _CCP1M2	set	186
   481  00BB                     _CCP1M3	set	187
   482  00EC                     _CCP2Y	set	236
   483  00ED                     _CCP2X	set	237
   484  00BC                     _CCP1Y	set	188
   485  00BD                     _CCP1X	set	189
   486  0089                     _TRISE	set	137
   487  0088                     _TRISD	set	136
   488  0087                     _TRISC	set	135
   489  0086                     _TRISB	set	134
   490  0085                     _TRISA	set	133
   491  009E                     _ADRESL	set	158
   492  009F                     _ADCON1	set	159
   493  0092                     _PR2	set	146
   494  0439                     _TRISC1	set	1081
   495  043A                     _TRISC2	set	1082
   496                           
   497                           	psect	cinit
   498  07D8                     start_initialization:	
   499                           ; #config settings
   500                           
   501  07D8                     __initialization:
   502                           
   503                           ; Initialize objects allocated to BANK1
   504  07D8  1683               	bsf	3,5	;RP0=1, select bank1
   505  07D9  1303               	bcf	3,6	;RP1=0, select bank1
   506  07DA  120A  158A  2144  120A  118A  	fcall	__pidataBANK1	;fetch initializer
   507  07DF  00BE               	movwf	__pdataBANK1& (0+127)
   508  07E0  120A  158A  2145  120A  118A  	fcall	__pidataBANK1+1	;fetch initializer
   509  07E5  00BF               	movwf	(__pdataBANK1+1)& (0+127)
   510  07E6  120A  158A  2146  120A  118A  	fcall	__pidataBANK1+2	;fetch initializer
   511  07EB  00C0               	movwf	(__pdataBANK1+2)& (0+127)
   512  07EC  120A  158A  2147  120A  118A  	fcall	__pidataBANK1+3	;fetch initializer
   513  07F1  00C1               	movwf	(__pdataBANK1+3)& (0+127)
   514                           
   515                           ; Clear objects allocated to BANK1
   516  07F2  01B4               	clrf	__pbssBANK1& (0+127)
   517  07F3  01B5               	clrf	(__pbssBANK1+1)& (0+127)
   518  07F4  01B6               	clrf	(__pbssBANK1+2)& (0+127)
   519  07F5  01B7               	clrf	(__pbssBANK1+3)& (0+127)
   520  07F6  01B8               	clrf	(__pbssBANK1+4)& (0+127)
   521  07F7  01B9               	clrf	(__pbssBANK1+5)& (0+127)
   522  07F8  01BA               	clrf	(__pbssBANK1+6)& (0+127)
   523  07F9  01BB               	clrf	(__pbssBANK1+7)& (0+127)
   524  07FA  01BC               	clrf	(__pbssBANK1+8)& (0+127)
   525  07FB  01BD               	clrf	(__pbssBANK1+9)& (0+127)
   526  07FC                     end_of_initialization:	
   527                           ;End of C runtime variable initialization code
   528                           
   529  07FC                     __end_of__initialization:
   530  07FC  0183               	clrf	3
   531  07FD  120A  118A  28D9   	ljmp	_main	;jump to C main() function
   532                           
   533                           	psect	bssBANK1
   534  00B4                     __pbssBANK1:
   535  00B4                     _temperatura:
   536  00B4                     	ds	2
   537  00B6                     controlarSetPoint@S3Atual:
   538  00B6                     	ds	1
   539  00B7                     controlarSetPoint@S3Anterior:
   540  00B7                     	ds	1
   541  00B8                     controlarSetPoint@S2Atual:
   542  00B8                     	ds	1
   543  00B9                     controlarSetPoint@S2Anterior:
   544  00B9                     	ds	1
   545  00BA                     controlarSetPoint@S1Atual:
   546  00BA                     	ds	1
   547  00BB                     controlarSetPoint@S1Anterior:
   548  00BB                     	ds	1
   549  00BC                     _S4Atual:
   550  00BC                     	ds	1
   551  00BD                     _S4Anterior:
   552  00BD                     	ds	1
   553                           
   554                           	psect	dataBANK1
   555  00BE                     __pdataBANK1:
   556  00BE                     _kp:
   557  00BE                     	ds	2
   558  00C0                     _setPoint:
   559  00C0                     	ds	2
   560                           
   561                           	psect	cstackBANK1
   562  00A0                     __pcstackBANK1:
   563  00A0                     ?_PWM1_Duty:
   564  00A0                     ?_PWM2_Duty:	
   565                           ; 1 bytes @ 0x0
   566                           
   567  00A0                     PWM1_Duty@duty:	
   568                           ; 1 bytes @ 0x0
   569                           
   570  00A0                     PWM2_Duty@duty:	
   571                           ; 2 bytes @ 0x0
   572                           
   573                           
   574                           ; 2 bytes @ 0x0
   575  00A0                     	ds	2
   576  00A2                     PWM1_Duty@freq:
   577  00A2                     PWM2_Duty@freq:	
   578                           ; 2 bytes @ 0x2
   579                           
   580                           
   581                           ; 2 bytes @ 0x2
   582  00A2                     	ds	2
   583  00A4                     ??_PWM1_Duty:
   584  00A4                     ??_PWM2_Duty:	
   585                           ; 1 bytes @ 0x4
   586                           
   587                           
   588                           ; 1 bytes @ 0x4
   589  00A4                     	ds	2
   590  00A6                     ??_main:
   591                           
   592                           ; 1 bytes @ 0x6
   593  00A6                     	ds	2
   594  00A8                     main@erro:
   595                           
   596                           ; 4 bytes @ 0x8
   597  00A8                     	ds	4
   598  00AC                     _main$822:
   599                           
   600                           ; 2 bytes @ 0xC
   601  00AC                     	ds	2
   602  00AE                     main@up:
   603                           
   604                           ; 4 bytes @ 0xE
   605  00AE                     	ds	4
   606  00B2                     main@cooler:
   607                           
   608                           ; 2 bytes @ 0x12
   609  00B2                     	ds	2
   610                           
   611                           	psect	cstackCOMMON
   612  0070                     __pcstackCOMMON:
   613  0070                     ?_lcd_cmd:
   614  0070                     ?_lcd_init:	
   615                           ; 1 bytes @ 0x0
   616                           
   617  0070                     ?_lcd_str:	
   618                           ; 1 bytes @ 0x0
   619                           
   620  0070                     ?_PWM1_Start:	
   621                           ; 1 bytes @ 0x0
   622                           
   623  0070                     ??_PWM1_Start:	
   624                           ; 1 bytes @ 0x0
   625                           
   626  0070                     ?_PWM2_Start:	
   627                           ; 1 bytes @ 0x0
   628                           
   629  0070                     ??_PWM2_Start:	
   630                           ; 1 bytes @ 0x0
   631                           
   632  0070                     ?_ADC_Init:	
   633                           ; 1 bytes @ 0x0
   634                           
   635  0070                     ??_ADC_Init:	
   636                           ; 1 bytes @ 0x0
   637                           
   638  0070                     ?_controlarSetPoint:	
   639                           ; 1 bytes @ 0x0
   640                           
   641  0070                     ??_controlarSetPoint:	
   642                           ; 1 bytes @ 0x0
   643                           
   644  0070                     ?_iniciarLcd:	
   645                           ; 1 bytes @ 0x0
   646                           
   647  0070                     ?_controlarLcd:	
   648                           ; 1 bytes @ 0x0
   649                           
   650  0070                     ?_main:	
   651                           ; 1 bytes @ 0x0
   652                           
   653  0070                     ?_lcd_wr:	
   654                           ; 1 bytes @ 0x0
   655                           
   656  0070                     ??_lcd_wr:	
   657                           ; 1 bytes @ 0x0
   658                           
   659  0070                     ?_lcd_dat:	
   660                           ; 1 bytes @ 0x0
   661                           
   662  0070                     ?__Umul8_16:	
   663                           ; 1 bytes @ 0x0
   664                           
   665  0070                     ?_ADC_Read:	
   666                           ; 2 bytes @ 0x0
   667                           
   668  0070                     ?___awdiv:	
   669                           ; 2 bytes @ 0x0
   670                           
   671  0070                     ?___lwmod:	
   672                           ; 2 bytes @ 0x0
   673                           
   674  0070                     ?___aldiv:	
   675                           ; 2 bytes @ 0x0
   676                           
   677  0070                     lcd_wr@val:	
   678                           ; 4 bytes @ 0x0
   679                           
   680  0070                     __Umul8_16@multiplicand:	
   681                           ; 1 bytes @ 0x0
   682                           
   683  0070                     ___awdiv@divisor:	
   684                           ; 1 bytes @ 0x0
   685                           
   686  0070                     ___lwmod@divisor:	
   687                           ; 2 bytes @ 0x0
   688                           
   689  0070                     ___aldiv@divisor:	
   690                           ; 2 bytes @ 0x0
   691                           
   692                           
   693                           ; 4 bytes @ 0x0
   694  0070                     	ds	1
   695  0071                     ??_lcd_cmd:
   696  0071                     ??_lcd_dat:	
   697                           ; 1 bytes @ 0x1
   698                           
   699  0071                     lcd_cmd@val:	
   700                           ; 1 bytes @ 0x1
   701                           
   702  0071                     lcd_dat@val:	
   703                           ; 1 bytes @ 0x1
   704                           
   705                           
   706                           ; 1 bytes @ 0x1
   707  0071                     	ds	1
   708  0072                     ??_lcd_init:
   709  0072                     ??_lcd_str:	
   710                           ; 1 bytes @ 0x2
   711                           
   712  0072                     ??__Umul8_16:	
   713                           ; 1 bytes @ 0x2
   714                           
   715  0072                     ??_ADC_Read:	
   716                           ; 1 bytes @ 0x2
   717                           
   718  0072                     ___awdiv@dividend:	
   719                           ; 1 bytes @ 0x2
   720                           
   721  0072                     ___lwmod@dividend:	
   722                           ; 2 bytes @ 0x2
   723                           
   724                           
   725                           ; 2 bytes @ 0x2
   726  0072                     	ds	1
   727  0073                     lcd_str@i:
   728                           
   729                           ; 1 bytes @ 0x3
   730  0073                     	ds	1
   731  0074                     ??___awdiv:
   732  0074                     ??___lwmod:	
   733                           ; 1 bytes @ 0x4
   734                           
   735  0074                     ADC_Read@channel:	
   736                           ; 1 bytes @ 0x4
   737                           
   738  0074                     lcd_str@str:	
   739                           ; 1 bytes @ 0x4
   740                           
   741  0074                     __Umul8_16@product:	
   742                           ; 1 bytes @ 0x4
   743                           
   744  0074                     ___aldiv@dividend:	
   745                           ; 2 bytes @ 0x4
   746                           
   747                           
   748                           ; 4 bytes @ 0x4
   749  0074                     	ds	1
   750  0075                     ??_iniciarLcd:
   751  0075                     ?_escrever:	
   752                           ; 1 bytes @ 0x5
   753                           
   754  0075                     ?___wmul:	
   755                           ; 1 bytes @ 0x5
   756                           
   757  0075                     ___awdiv@counter:	
   758                           ; 2 bytes @ 0x5
   759                           
   760  0075                     ___lwmod@counter:	
   761                           ; 1 bytes @ 0x5
   762                           
   763  0075                     escrever@linha:	
   764                           ; 1 bytes @ 0x5
   765                           
   766  0075                     ___wmul@multiplier:	
   767                           ; 2 bytes @ 0x5
   768                           
   769                           
   770                           ; 2 bytes @ 0x5
   771  0075                     	ds	1
   772  0076                     ?___lwdiv:
   773  0076                     ___awdiv@sign:	
   774                           ; 2 bytes @ 0x6
   775                           
   776  0076                     ___lwdiv@divisor:	
   777                           ; 1 bytes @ 0x6
   778                           
   779  0076                     __Umul8_16@word_mpld:	
   780                           ; 2 bytes @ 0x6
   781                           
   782                           
   783                           ; 2 bytes @ 0x6
   784  0076                     	ds	1
   785  0077                     ??_escrever:
   786  0077                     escrever@texto:	
   787                           ; 1 bytes @ 0x7
   788                           
   789  0077                     ___wmul@multiplicand:	
   790                           ; 1 bytes @ 0x7
   791                           
   792  0077                     ___awdiv@quotient:	
   793                           ; 2 bytes @ 0x7
   794                           
   795                           
   796                           ; 2 bytes @ 0x7
   797  0077                     	ds	1
   798  0078                     ??_controlarLcd:
   799  0078                     ??___aldiv:	
   800                           ; 1 bytes @ 0x8
   801                           
   802  0078                     __Umul8_16@multiplier:	
   803                           ; 1 bytes @ 0x8
   804                           
   805  0078                     ___lwdiv@dividend:	
   806                           ; 1 bytes @ 0x8
   807                           
   808                           
   809                           ; 2 bytes @ 0x8
   810  0078                     	ds	1
   811  0079                     ??_PWM_Init:
   812  0079                     ??___wmul:	
   813                           ; 1 bytes @ 0x9
   814                           
   815  0079                     ??___fltol:	
   816                           ; 1 bytes @ 0x9
   817                           
   818  0079                     ___wmul@product:	
   819                           ; 1 bytes @ 0x9
   820                           
   821                           
   822                           ; 2 bytes @ 0x9
   823  0079                     	ds	1
   824  007A                     ??___lwdiv:
   825                           
   826                           ; 1 bytes @ 0xA
   827  007A                     	ds	1
   828  007B                     ___lwdiv@quotient:
   829                           
   830                           ; 2 bytes @ 0xB
   831  007B                     	ds	2
   832  007D                     ___lwdiv@counter:
   833                           
   834                           ; 1 bytes @ 0xD
   835  007D                     	ds	1
   836  007E                     ??_controleMaximoMinimo:
   837                           
   838                           	psect	cstackBANK0
   839  0020                     __pcstackBANK0:	
   840                           ; 1 bytes @ 0xE
   841                           
   842  0020                     ?_atualizaDisplay:
   843  0020                     ___aldiv@counter:	
   844                           ; 1 bytes @ 0x0
   845                           
   846  0020                     atualizaDisplay@tempSet:	
   847                           ; 1 bytes @ 0x0
   848                           
   849                           
   850                           ; 2 bytes @ 0x0
   851  0020                     	ds	1
   852  0021                     ___aldiv@sign:
   853                           
   854                           ; 1 bytes @ 0x1
   855  0021                     	ds	1
   856  0022                     ??_atualizaDisplay:
   857  0022                     ___aldiv@quotient:	
   858                           ; 1 bytes @ 0x2
   859                           
   860                           
   861                           ; 4 bytes @ 0x2
   862  0022                     	ds	2
   863  0024                     atualizaDisplay@milhar:
   864                           
   865                           ; 2 bytes @ 0x4
   866  0024                     	ds	2
   867  0026                     ?_PWM_Init:
   868  0026                     ?___fltol:	
   869                           ; 1 bytes @ 0x6
   870                           
   871  0026                     atualizaDisplay@centena:	
   872                           ; 4 bytes @ 0x6
   873                           
   874  0026                     PWM_Init@freq:	
   875                           ; 2 bytes @ 0x6
   876                           
   877  0026                     ___fltol@f1:	
   878                           ; 4 bytes @ 0x6
   879                           
   880                           
   881                           ; 4 bytes @ 0x6
   882  0026                     	ds	2
   883  0028                     atualizaDisplay@dezena:
   884                           
   885                           ; 2 bytes @ 0x8
   886  0028                     	ds	2
   887  002A                     ___fltol@sign1:
   888  002A                     atualizaDisplay@unidade:	
   889                           ; 1 bytes @ 0xA
   890                           
   891                           
   892                           ; 2 bytes @ 0xA
   893  002A                     	ds	1
   894  002B                     ___fltol@exp1:
   895                           
   896                           ; 1 bytes @ 0xB
   897  002B                     	ds	1
   898  002C                     ?_controleMaximoMinimo:
   899  002C                     controleMaximoMinimo@valor:	
   900                           ; 2 bytes @ 0xC
   901                           
   902  002C                     _atualizaDisplay$821:	
   903                           ; 2 bytes @ 0xC
   904                           
   905                           
   906                           ; 2 bytes @ 0xC
   907  002C                     	ds	2
   908  002E                     ?___xxtofl:
   909  002E                     _atualizaDisplay$820:	
   910                           ; 4 bytes @ 0xE
   911                           
   912  002E                     ___xxtofl@val:	
   913                           ; 2 bytes @ 0xE
   914                           
   915                           
   916                           ; 4 bytes @ 0xE
   917  002E                     	ds	4
   918  0032                     ??___xxtofl:
   919                           
   920                           ; 1 bytes @ 0x12
   921  0032                     	ds	4
   922  0036                     ___xxtofl@sign:
   923                           
   924                           ; 1 bytes @ 0x16
   925  0036                     	ds	1
   926  0037                     ___xxtofl@exp:
   927                           
   928                           ; 1 bytes @ 0x17
   929  0037                     	ds	1
   930  0038                     ___xxtofl@arg:
   931                           
   932                           ; 4 bytes @ 0x18
   933  0038                     	ds	4
   934  003C                     ?___fldiv:
   935  003C                     ___fldiv@a:	
   936                           ; 4 bytes @ 0x1C
   937                           
   938                           
   939                           ; 4 bytes @ 0x1C
   940  003C                     	ds	4
   941  0040                     ___fldiv@b:
   942                           
   943                           ; 4 bytes @ 0x20
   944  0040                     	ds	4
   945  0044                     ??___fldiv:
   946                           
   947                           ; 1 bytes @ 0x24
   948  0044                     	ds	5
   949  0049                     ___fldiv@rem:
   950                           
   951                           ; 4 bytes @ 0x29
   952  0049                     	ds	4
   953  004D                     ___fldiv@sign:
   954                           
   955                           ; 1 bytes @ 0x2D
   956  004D                     	ds	1
   957  004E                     ___fldiv@new_exp:
   958                           
   959                           ; 2 bytes @ 0x2E
   960  004E                     	ds	2
   961  0050                     ___fldiv@grs:
   962                           
   963                           ; 4 bytes @ 0x30
   964  0050                     	ds	4
   965  0054                     ___fldiv@bexp:
   966                           
   967                           ; 1 bytes @ 0x34
   968  0054                     	ds	1
   969  0055                     ___fldiv@aexp:
   970                           
   971                           ; 1 bytes @ 0x35
   972  0055                     	ds	1
   973  0056                     ?___flmul:
   974  0056                     ___flmul@b:	
   975                           ; 4 bytes @ 0x36
   976                           
   977                           
   978                           ; 4 bytes @ 0x36
   979  0056                     	ds	4
   980  005A                     ___flmul@a:
   981                           
   982                           ; 4 bytes @ 0x3A
   983  005A                     	ds	4
   984  005E                     ??___flmul:
   985                           
   986                           ; 1 bytes @ 0x3E
   987  005E                     	ds	5
   988  0063                     ___flmul@sign:
   989                           
   990                           ; 1 bytes @ 0x43
   991  0063                     	ds	1
   992  0064                     ___flmul@grs:
   993                           
   994                           ; 4 bytes @ 0x44
   995  0064                     	ds	4
   996  0068                     ___flmul@aexp:
   997                           
   998                           ; 1 bytes @ 0x48
   999  0068                     	ds	1
  1000  0069                     ___flmul@bexp:
  1001                           
  1002                           ; 1 bytes @ 0x49
  1003  0069                     	ds	1
  1004  006A                     ___flmul@prod:
  1005                           
  1006                           ; 4 bytes @ 0x4A
  1007  006A                     	ds	4
  1008  006E                     ___flmul@temp:
  1009                           
  1010                           ; 2 bytes @ 0x4E
  1011  006E                     	ds	2
  1012                           
  1013                           	psect	maintext
  1014  00D9                     __pmaintext:	
  1015 ;;
  1016 ;;Main: autosize = 0, tempsize = 2, incstack = 0, save=0
  1017 ;;
  1018 ;; *************** function _main *****************
  1019 ;; Defined at:
  1020 ;;		line 151 in file "main.c"
  1021 ;; Parameters:    Size  Location     Type
  1022 ;;		None
  1023 ;; Auto vars:     Size  Location     Type
  1024 ;;  up              4   14[BANK1 ] float 
  1025 ;;  erro            4    8[BANK1 ] float 
  1026 ;;  cooler          2   18[BANK1 ] int 
  1027 ;; Return value:  Size  Location     Type
  1028 ;;                  1    wreg      void 
  1029 ;; Registers used:
  1030 ;;		wreg, fsr0l, fsr0h, status,2, status,0, btemp+1, pclath, cstack
  1031 ;; Tracked objects:
  1032 ;;		On entry : B00/0
  1033 ;;		On exit  : 0/0
  1034 ;;		Unchanged: 0/0
  1035 ;; Data sizes:     COMMON   BANK0   BANK1   BANK3   BANK2
  1036 ;;      Params:         0       0       0       0       0
  1037 ;;      Locals:         0       0      12       0       0
  1038 ;;      Temps:          0       0       2       0       0
  1039 ;;      Totals:         0       0      14       0       0
  1040 ;;Total ram usage:       14 bytes
  1041 ;; Hardware stack levels required when called: 5
  1042 ;; This function calls:
  1043 ;;		_ADC_Init
  1044 ;;		_ADC_Read
  1045 ;;		_PWM1_Duty
  1046 ;;		_PWM1_Start
  1047 ;;		_PWM2_Duty
  1048 ;;		_PWM2_Start
  1049 ;;		___awdiv
  1050 ;;		___flmul
  1051 ;;		___fltol
  1052 ;;		___wmul
  1053 ;;		___xxtofl
  1054 ;;		_atualizaDisplay
  1055 ;;		_controlarLcd
  1056 ;;		_controlarSetPoint
  1057 ;;		_controleMaximoMinimo
  1058 ;;		_iniciarLcd
  1059 ;; This function is called by:
  1060 ;;		Startup code after reset
  1061 ;; This function uses a non-reentrant model
  1062 ;;
  1063                           
  1064                           
  1065                           ;psect for function _main
  1066  00D9                     _main:
  1067  00D9                     l2274:	
  1068                           ;incstack = 0
  1069                           ; Regs used in _main: [wreg-fsr0h+status,2+status,0+btemp+1+pclath+cstack]
  1070                           
  1071                           
  1072                           ;main.c: 152:     TRISA = 0xFF;
  1073  00D9  30FF               	movlw	255
  1074  00DA  1683               	bsf	3,5	;RP0=1, select bank1
  1075  00DB  1303               	bcf	3,6	;RP1=0, select bank1
  1076  00DC  0085               	movwf	5	;volatile
  1077                           
  1078                           ;main.c: 153:     TRISB = 0x0F;
  1079  00DD  300F               	movlw	15
  1080  00DE  0086               	movwf	6	;volatile
  1081  00DF                     l2276:
  1082                           
  1083                           ;main.c: 154:     TRISC = 0x00;
  1084  00DF  0187               	clrf	7	;volatile
  1085  00E0                     l2278:
  1086                           
  1087                           ;main.c: 155:     TRISD = 0x00;
  1088  00E0  0188               	clrf	8	;volatile
  1089  00E1                     l2280:
  1090                           
  1091                           ;main.c: 156:     TRISE = 0x00;
  1092  00E1  0189               	clrf	9	;volatile
  1093  00E2                     l2282:
  1094                           
  1095                           ;main.c: 157:     int cooler;;main.c: 158:     float erro;;main.c: 159:     float up;;ma
      +                          in.c: 160:     menu = 1;
  1096  00E2  3001               	movlw	1
  1097  00E3  00C2               	movwf	_menu^(0+128)
  1098  00E4  3000               	movlw	0
  1099  00E5  00C3               	movwf	(_menu^(0+128)+1)
  1100  00E6                     l2284:
  1101                           
  1102                           ;main.c: 162:     ADC_Init();
  1103  00E6  120A  158A  214E  120A  118A  	fcall	_ADC_Init
  1104  00EB                     l2286:
  1105                           
  1106                           ;main.c: 163:     PWM1_Start();
  1107  00EB  120A  158A  2157  120A  118A  	fcall	_PWM1_Start
  1108  00F0                     l2288:
  1109                           
  1110                           ;main.c: 164:     PWM2_Start();
  1111  00F0  120A  118A  2006  120A  118A  	fcall	_PWM2_Start
  1112  00F5                     l2290:
  1113                           
  1114                           ;main.c: 165:     iniciarLcd();
  1115  00F5  120A  158A  21D9  120A  118A  	fcall	_iniciarLcd
  1116  00FA                     l2292:
  1117                           
  1118                           ;main.c: 168:         controlarSetPoint();
  1119  00FA  120A  158A  23A9  120A  118A  	fcall	_controlarSetPoint
  1120  00FF                     l2294:
  1121                           
  1122                           ;main.c: 169:         temperatura = (ADC_Read(0)*10/8 - 150);
  1123  00FF  3000               	movlw	0
  1124  0100  120A  158A  2249  120A  118A  	fcall	_ADC_Read
  1125  0105  0871               	movf	?_ADC_Read+1,w
  1126  0106  00F6               	movwf	___wmul@multiplier+1
  1127  0107  0870               	movf	?_ADC_Read,w
  1128  0108  00F5               	movwf	___wmul@multiplier
  1129  0109  300A               	movlw	10
  1130  010A  00F7               	movwf	___wmul@multiplicand
  1131  010B  3000               	movlw	0
  1132  010C  00F8               	movwf	___wmul@multiplicand+1
  1133  010D  120A  158A  21FD  120A  118A  	fcall	___wmul
  1134  0112  0875               	movf	?___wmul,w
  1135  0113  1683               	bsf	3,5	;RP0=1, select bank1
  1136  0114  1303               	bcf	3,6	;RP1=0, select bank1
  1137  0115  00A6               	movwf	??_main^(0+128)
  1138  0116  0876               	movf	?___wmul+1,w
  1139  0117  00A7               	movwf	(??_main^(0+128)+1)
  1140  0118  1003               	clrc
  1141  0119  0CA7               	rrf	(??_main^(0+128)+1),f
  1142  011A  0CA6               	rrf	??_main^(0+128),f
  1143  011B  1003               	clrc
  1144  011C  0CA7               	rrf	(??_main^(0+128)+1),f
  1145  011D  0CA6               	rrf	??_main^(0+128),f
  1146  011E  1003               	clrc
  1147  011F  0CA7               	rrf	(??_main^(0+128)+1),f
  1148  0120  0CA6               	rrf	??_main^(0+128),f
  1149  0121  0826               	movf	??_main^(0+128),w
  1150  0122  3E6A               	addlw	106
  1151  0123  00B4               	movwf	_temperatura^(0+128)
  1152  0124  0827               	movf	(??_main+1)^(0+128),w
  1153  0125  1803               	skipnc
  1154  0126  3E01               	addlw	1
  1155  0127  3EFF               	addlw	255
  1156  0128  00B5               	movwf	(_temperatura+1)^(0+128)
  1157  0129                     l2296:
  1158                           
  1159                           ;main.c: 170:         cooler = (unsigned int)ADC_Read(1);
  1160  0129  3001               	movlw	1
  1161  012A  120A  158A  2249  120A  118A  	fcall	_ADC_Read
  1162  012F  0871               	movf	?_ADC_Read+1,w
  1163  0130  1683               	bsf	3,5	;RP0=1, select bank1
  1164  0131  1303               	bcf	3,6	;RP1=0, select bank1
  1165  0132  00B3               	movwf	(main@cooler+1)^(0+128)
  1166  0133  0870               	movf	?_ADC_Read,w
  1167  0134  00B2               	movwf	main@cooler^(0+128)
  1168  0135                     l2298:
  1169                           
  1170                           ;main.c: 171:         erro = (setPoint/10) - temperatura;
  1171  0135  0841               	movf	(_setPoint+1)^(0+128),w
  1172  0136  00F3               	movwf	___awdiv@dividend+1
  1173  0137  0840               	movf	_setPoint^(0+128),w
  1174  0138  00F2               	movwf	___awdiv@dividend
  1175  0139  300A               	movlw	10
  1176  013A  00F0               	movwf	___awdiv@divisor
  1177  013B  3000               	movlw	0
  1178  013C  00F1               	movwf	___awdiv@divisor+1
  1179  013D  120A  158A  23FE  120A  118A  	fcall	___awdiv
  1180  0142  1683               	bsf	3,5	;RP0=1, select bank1
  1181  0143  1303               	bcf	3,6	;RP1=0, select bank1
  1182  0144  0834               	movf	_temperatura^(0+128),w
  1183  0145  0270               	subwf	?___awdiv,w
  1184  0146  00A6               	movwf	??_main^(0+128)
  1185  0147  0835               	movf	(_temperatura+1)^(0+128),w
  1186  0148  1C03               	skipc
  1187  0149  0A35               	incf	(_temperatura+1)^(0+128),w
  1188  014A  0271               	subwf	?___awdiv+1,w
  1189  014B  00A7               	movwf	(??_main+1)^(0+128)
  1190  014C  0826               	movf	??_main^(0+128),w
  1191  014D  1283               	bcf	3,5	;RP0=0, select bank0
  1192  014E  1303               	bcf	3,6	;RP1=0, select bank0
  1193  014F  00AE               	movwf	___xxtofl@val
  1194  0150  1683               	bsf	3,5	;RP0=1, select bank1
  1195  0151  1303               	bcf	3,6	;RP1=0, select bank1
  1196  0152  0827               	movf	(??_main+1)^(0+128),w
  1197  0153  1283               	bcf	3,5	;RP0=0, select bank0
  1198  0154  1303               	bcf	3,6	;RP1=0, select bank0
  1199  0155  00AF               	movwf	___xxtofl@val+1
  1200  0156  3000               	movlw	0
  1201  0157  1BAF               	btfsc	___xxtofl@val+1,7
  1202  0158  30FF               	movlw	255
  1203  0159  00B0               	movwf	___xxtofl@val+2
  1204  015A  00B1               	movwf	___xxtofl@val+3
  1205  015B  3001               	movlw	1
  1206  015C  120A  158A  257E  120A  118A  	fcall	___xxtofl
  1207  0161  1283               	bcf	3,5	;RP0=0, select bank0
  1208  0162  1303               	bcf	3,6	;RP1=0, select bank0
  1209  0163  0831               	movf	?___xxtofl+3,w
  1210  0164  1683               	bsf	3,5	;RP0=1, select bank1
  1211  0165  1303               	bcf	3,6	;RP1=0, select bank1
  1212  0166  00AB               	movwf	(main@erro+3)^(0+128)
  1213  0167  1283               	bcf	3,5	;RP0=0, select bank0
  1214  0168  1303               	bcf	3,6	;RP1=0, select bank0
  1215  0169  0830               	movf	?___xxtofl+2,w
  1216  016A  1683               	bsf	3,5	;RP0=1, select bank1
  1217  016B  1303               	bcf	3,6	;RP1=0, select bank1
  1218  016C  00AA               	movwf	(main@erro+2)^(0+128)
  1219  016D  1283               	bcf	3,5	;RP0=0, select bank0
  1220  016E  1303               	bcf	3,6	;RP1=0, select bank0
  1221  016F  082F               	movf	?___xxtofl+1,w
  1222  0170  1683               	bsf	3,5	;RP0=1, select bank1
  1223  0171  1303               	bcf	3,6	;RP1=0, select bank1
  1224  0172  00A9               	movwf	(main@erro+1)^(0+128)
  1225  0173  1283               	bcf	3,5	;RP0=0, select bank0
  1226  0174  1303               	bcf	3,6	;RP1=0, select bank0
  1227  0175  082E               	movf	?___xxtofl,w
  1228  0176  1683               	bsf	3,5	;RP0=1, select bank1
  1229  0177  1303               	bcf	3,6	;RP1=0, select bank1
  1230  0178  00A8               	movwf	main@erro^(0+128)
  1231  0179                     l2300:
  1232                           
  1233                           ;main.c: 172:         up = kp * erro;
  1234  0179  3042               	movlw	66
  1235  017A  1283               	bcf	3,5	;RP0=0, select bank0
  1236  017B  1303               	bcf	3,6	;RP1=0, select bank0
  1237  017C  00D9               	movwf	___flmul@b+3
  1238  017D  30C8               	movlw	200
  1239  017E  00D8               	movwf	___flmul@b+2
  1240  017F  3000               	movlw	0
  1241  0180  00D7               	movwf	___flmul@b+1
  1242  0181  3000               	movlw	0
  1243  0182  00D6               	movwf	___flmul@b
  1244  0183  1683               	bsf	3,5	;RP0=1, select bank1
  1245  0184  1303               	bcf	3,6	;RP1=0, select bank1
  1246  0185  082B               	movf	(main@erro+3)^(0+128),w
  1247  0186  1283               	bcf	3,5	;RP0=0, select bank0
  1248  0187  1303               	bcf	3,6	;RP1=0, select bank0
  1249  0188  00DD               	movwf	___flmul@a+3
  1250  0189  1683               	bsf	3,5	;RP0=1, select bank1
  1251  018A  1303               	bcf	3,6	;RP1=0, select bank1
  1252  018B  082A               	movf	(main@erro+2)^(0+128),w
  1253  018C  1283               	bcf	3,5	;RP0=0, select bank0
  1254  018D  1303               	bcf	3,6	;RP1=0, select bank0
  1255  018E  00DC               	movwf	___flmul@a+2
  1256  018F  1683               	bsf	3,5	;RP0=1, select bank1
  1257  0190  1303               	bcf	3,6	;RP1=0, select bank1
  1258  0191  0829               	movf	(main@erro+1)^(0+128),w
  1259  0192  1283               	bcf	3,5	;RP0=0, select bank0
  1260  0193  1303               	bcf	3,6	;RP1=0, select bank0
  1261  0194  00DB               	movwf	___flmul@a+1
  1262  0195  1683               	bsf	3,5	;RP0=1, select bank1
  1263  0196  1303               	bcf	3,6	;RP1=0, select bank1
  1264  0197  0828               	movf	main@erro^(0+128),w
  1265  0198  1283               	bcf	3,5	;RP0=0, select bank0
  1266  0199  1303               	bcf	3,6	;RP1=0, select bank0
  1267  019A  00DA               	movwf	___flmul@a
  1268  019B  120A  118A  2477  120A  118A  	fcall	___flmul
  1269  01A0  1283               	bcf	3,5	;RP0=0, select bank0
  1270  01A1  1303               	bcf	3,6	;RP1=0, select bank0
  1271  01A2  0859               	movf	?___flmul+3,w
  1272  01A3  1683               	bsf	3,5	;RP0=1, select bank1
  1273  01A4  1303               	bcf	3,6	;RP1=0, select bank1
  1274  01A5  00B1               	movwf	(main@up+3)^(0+128)
  1275  01A6  1283               	bcf	3,5	;RP0=0, select bank0
  1276  01A7  1303               	bcf	3,6	;RP1=0, select bank0
  1277  01A8  0858               	movf	?___flmul+2,w
  1278  01A9  1683               	bsf	3,5	;RP0=1, select bank1
  1279  01AA  1303               	bcf	3,6	;RP1=0, select bank1
  1280  01AB  00B0               	movwf	(main@up+2)^(0+128)
  1281  01AC  1283               	bcf	3,5	;RP0=0, select bank0
  1282  01AD  1303               	bcf	3,6	;RP1=0, select bank0
  1283  01AE  0857               	movf	?___flmul+1,w
  1284  01AF  1683               	bsf	3,5	;RP0=1, select bank1
  1285  01B0  1303               	bcf	3,6	;RP1=0, select bank1
  1286  01B1  00AF               	movwf	(main@up+1)^(0+128)
  1287  01B2  1283               	bcf	3,5	;RP0=0, select bank0
  1288  01B3  1303               	bcf	3,6	;RP1=0, select bank0
  1289  01B4  0856               	movf	?___flmul,w
  1290  01B5  1683               	bsf	3,5	;RP0=1, select bank1
  1291  01B6  1303               	bcf	3,6	;RP1=0, select bank1
  1292  01B7  00AE               	movwf	main@up^(0+128)
  1293  01B8                     l2302:
  1294                           
  1295                           ;main.c: 174:         cooler = controleMaximoMinimo(cooler);
  1296  01B8  0833               	movf	(main@cooler+1)^(0+128),w
  1297  01B9  1283               	bcf	3,5	;RP0=0, select bank0
  1298  01BA  1303               	bcf	3,6	;RP1=0, select bank0
  1299  01BB  00AD               	movwf	controleMaximoMinimo@valor+1
  1300  01BC  1683               	bsf	3,5	;RP0=1, select bank1
  1301  01BD  1303               	bcf	3,6	;RP1=0, select bank1
  1302  01BE  0832               	movf	main@cooler^(0+128),w
  1303  01BF  1283               	bcf	3,5	;RP0=0, select bank0
  1304  01C0  1303               	bcf	3,6	;RP1=0, select bank0
  1305  01C1  00AC               	movwf	controleMaximoMinimo@valor
  1306  01C2  120A  158A  219B  120A  118A  	fcall	_controleMaximoMinimo
  1307  01C7  1283               	bcf	3,5	;RP0=0, select bank0
  1308  01C8  1303               	bcf	3,6	;RP1=0, select bank0
  1309  01C9  082D               	movf	?_controleMaximoMinimo+1,w
  1310  01CA  1683               	bsf	3,5	;RP0=1, select bank1
  1311  01CB  1303               	bcf	3,6	;RP1=0, select bank1
  1312  01CC  00B3               	movwf	(main@cooler+1)^(0+128)
  1313  01CD  1283               	bcf	3,5	;RP0=0, select bank0
  1314  01CE  1303               	bcf	3,6	;RP1=0, select bank0
  1315  01CF  082C               	movf	?_controleMaximoMinimo,w
  1316  01D0  1683               	bsf	3,5	;RP0=1, select bank1
  1317  01D1  1303               	bcf	3,6	;RP1=0, select bank1
  1318  01D2  00B2               	movwf	main@cooler^(0+128)
  1319  01D3                     l2304:
  1320                           
  1321                           ;main.c: 175:         temperatura = controleMaximoMinimo(temperatura);
  1322  01D3  0835               	movf	(_temperatura+1)^(0+128),w
  1323  01D4  1283               	bcf	3,5	;RP0=0, select bank0
  1324  01D5  1303               	bcf	3,6	;RP1=0, select bank0
  1325  01D6  00AD               	movwf	controleMaximoMinimo@valor+1
  1326  01D7  1683               	bsf	3,5	;RP0=1, select bank1
  1327  01D8  1303               	bcf	3,6	;RP1=0, select bank1
  1328  01D9  0834               	movf	_temperatura^(0+128),w
  1329  01DA  1283               	bcf	3,5	;RP0=0, select bank0
  1330  01DB  1303               	bcf	3,6	;RP1=0, select bank0
  1331  01DC  00AC               	movwf	controleMaximoMinimo@valor
  1332  01DD  120A  158A  219B  120A  118A  	fcall	_controleMaximoMinimo
  1333  01E2  1283               	bcf	3,5	;RP0=0, select bank0
  1334  01E3  1303               	bcf	3,6	;RP1=0, select bank0
  1335  01E4  082D               	movf	?_controleMaximoMinimo+1,w
  1336  01E5  1683               	bsf	3,5	;RP0=1, select bank1
  1337  01E6  1303               	bcf	3,6	;RP1=0, select bank1
  1338  01E7  00B5               	movwf	(_temperatura+1)^(0+128)
  1339  01E8  1283               	bcf	3,5	;RP0=0, select bank0
  1340  01E9  1303               	bcf	3,6	;RP1=0, select bank0
  1341  01EA  082C               	movf	?_controleMaximoMinimo,w
  1342  01EB  1683               	bsf	3,5	;RP0=1, select bank1
  1343  01EC  1303               	bcf	3,6	;RP1=0, select bank1
  1344  01ED  00B4               	movwf	_temperatura^(0+128)
  1345  01EE                     l2306:
  1346                           
  1347                           ;main.c: 176:         up = controleMaximoMinimo(up);
  1348  01EE  0831               	movf	(main@up+3)^(0+128),w
  1349  01EF  1283               	bcf	3,5	;RP0=0, select bank0
  1350  01F0  1303               	bcf	3,6	;RP1=0, select bank0
  1351  01F1  00A9               	movwf	___fltol@f1+3
  1352  01F2  1683               	bsf	3,5	;RP0=1, select bank1
  1353  01F3  1303               	bcf	3,6	;RP1=0, select bank1
  1354  01F4  0830               	movf	(main@up+2)^(0+128),w
  1355  01F5  1283               	bcf	3,5	;RP0=0, select bank0
  1356  01F6  1303               	bcf	3,6	;RP1=0, select bank0
  1357  01F7  00A8               	movwf	___fltol@f1+2
  1358  01F8  1683               	bsf	3,5	;RP0=1, select bank1
  1359  01F9  1303               	bcf	3,6	;RP1=0, select bank1
  1360  01FA  082F               	movf	(main@up+1)^(0+128),w
  1361  01FB  1283               	bcf	3,5	;RP0=0, select bank0
  1362  01FC  1303               	bcf	3,6	;RP1=0, select bank0
  1363  01FD  00A7               	movwf	___fltol@f1+1
  1364  01FE  1683               	bsf	3,5	;RP0=1, select bank1
  1365  01FF  1303               	bcf	3,6	;RP1=0, select bank1
  1366  0200  082E               	movf	main@up^(0+128),w
  1367  0201  1283               	bcf	3,5	;RP0=0, select bank0
  1368  0202  1303               	bcf	3,6	;RP1=0, select bank0
  1369  0203  00A6               	movwf	___fltol@f1
  1370  0204  120A  158A  2465  120A  118A  	fcall	___fltol
  1371  0209  1283               	bcf	3,5	;RP0=0, select bank0
  1372  020A  1303               	bcf	3,6	;RP1=0, select bank0
  1373  020B  0827               	movf	?___fltol+1,w
  1374  020C  00AD               	movwf	controleMaximoMinimo@valor+1
  1375  020D  0826               	movf	?___fltol,w
  1376  020E  00AC               	movwf	controleMaximoMinimo@valor
  1377  020F  120A  158A  219B  120A  118A  	fcall	_controleMaximoMinimo
  1378  0214  1283               	bcf	3,5	;RP0=0, select bank0
  1379  0215  1303               	bcf	3,6	;RP1=0, select bank0
  1380  0216  082C               	movf	?_controleMaximoMinimo,w
  1381  0217  00AE               	movwf	___xxtofl@val
  1382  0218  082D               	movf	?_controleMaximoMinimo+1,w
  1383  0219  00AF               	movwf	___xxtofl@val+1
  1384  021A  3000               	movlw	0
  1385  021B  1BAF               	btfsc	___xxtofl@val+1,7
  1386  021C  30FF               	movlw	255
  1387  021D  00B0               	movwf	___xxtofl@val+2
  1388  021E  00B1               	movwf	___xxtofl@val+3
  1389  021F  3001               	movlw	1
  1390  0220  120A  158A  257E  120A  118A  	fcall	___xxtofl
  1391  0225  1283               	bcf	3,5	;RP0=0, select bank0
  1392  0226  1303               	bcf	3,6	;RP1=0, select bank0
  1393  0227  0831               	movf	?___xxtofl+3,w
  1394  0228  1683               	bsf	3,5	;RP0=1, select bank1
  1395  0229  1303               	bcf	3,6	;RP1=0, select bank1
  1396  022A  00B1               	movwf	(main@up+3)^(0+128)
  1397  022B  1283               	bcf	3,5	;RP0=0, select bank0
  1398  022C  1303               	bcf	3,6	;RP1=0, select bank0
  1399  022D  0830               	movf	?___xxtofl+2,w
  1400  022E  1683               	bsf	3,5	;RP0=1, select bank1
  1401  022F  1303               	bcf	3,6	;RP1=0, select bank1
  1402  0230  00B0               	movwf	(main@up+2)^(0+128)
  1403  0231  1283               	bcf	3,5	;RP0=0, select bank0
  1404  0232  1303               	bcf	3,6	;RP1=0, select bank0
  1405  0233  082F               	movf	?___xxtofl+1,w
  1406  0234  1683               	bsf	3,5	;RP0=1, select bank1
  1407  0235  1303               	bcf	3,6	;RP1=0, select bank1
  1408  0236  00AF               	movwf	(main@up+1)^(0+128)
  1409  0237  1283               	bcf	3,5	;RP0=0, select bank0
  1410  0238  1303               	bcf	3,6	;RP1=0, select bank0
  1411  0239  082E               	movf	?___xxtofl,w
  1412  023A  1683               	bsf	3,5	;RP0=1, select bank1
  1413  023B  1303               	bcf	3,6	;RP1=0, select bank1
  1414  023C  00AE               	movwf	main@up^(0+128)
  1415  023D                     l2308:
  1416                           
  1417                           ;main.c: 178:         PWM1_Duty(up, 4000);
  1418  023D  0831               	movf	(main@up+3)^(0+128),w
  1419  023E  1283               	bcf	3,5	;RP0=0, select bank0
  1420  023F  1303               	bcf	3,6	;RP1=0, select bank0
  1421  0240  00A9               	movwf	___fltol@f1+3
  1422  0241  1683               	bsf	3,5	;RP0=1, select bank1
  1423  0242  1303               	bcf	3,6	;RP1=0, select bank1
  1424  0243  0830               	movf	(main@up+2)^(0+128),w
  1425  0244  1283               	bcf	3,5	;RP0=0, select bank0
  1426  0245  1303               	bcf	3,6	;RP1=0, select bank0
  1427  0246  00A8               	movwf	___fltol@f1+2
  1428  0247  1683               	bsf	3,5	;RP0=1, select bank1
  1429  0248  1303               	bcf	3,6	;RP1=0, select bank1
  1430  0249  082F               	movf	(main@up+1)^(0+128),w
  1431  024A  1283               	bcf	3,5	;RP0=0, select bank0
  1432  024B  1303               	bcf	3,6	;RP1=0, select bank0
  1433  024C  00A7               	movwf	___fltol@f1+1
  1434  024D  1683               	bsf	3,5	;RP0=1, select bank1
  1435  024E  1303               	bcf	3,6	;RP1=0, select bank1
  1436  024F  082E               	movf	main@up^(0+128),w
  1437  0250  1283               	bcf	3,5	;RP0=0, select bank0
  1438  0251  1303               	bcf	3,6	;RP1=0, select bank0
  1439  0252  00A6               	movwf	___fltol@f1
  1440  0253  120A  158A  2465  120A  118A  	fcall	___fltol
  1441  0258  1283               	bcf	3,5	;RP0=0, select bank0
  1442  0259  1303               	bcf	3,6	;RP1=0, select bank0
  1443  025A  0827               	movf	?___fltol+1,w
  1444  025B  1683               	bsf	3,5	;RP0=1, select bank1
  1445  025C  1303               	bcf	3,6	;RP1=0, select bank1
  1446  025D  00AD               	movwf	(_main$822+1)^(0+128)
  1447  025E  1283               	bcf	3,5	;RP0=0, select bank0
  1448  025F  1303               	bcf	3,6	;RP1=0, select bank0
  1449  0260  0826               	movf	?___fltol,w
  1450  0261  1683               	bsf	3,5	;RP0=1, select bank1
  1451  0262  1303               	bcf	3,6	;RP1=0, select bank1
  1452  0263  00AC               	movwf	_main$822^(0+128)
  1453  0264                     l2310:
  1454                           
  1455                           ;main.c: 178:         PWM1_Duty(up, 4000);
  1456  0264  082D               	movf	(_main$822+1)^(0+128),w
  1457  0265  00A1               	movwf	(PWM1_Duty@duty+1)^(0+128)
  1458  0266  082C               	movf	_main$822^(0+128),w
  1459  0267  00A0               	movwf	PWM1_Duty@duty^(0+128)
  1460  0268  30A0               	movlw	160
  1461  0269  00A2               	movwf	PWM1_Duty@freq^(0+128)
  1462  026A  300F               	movlw	15
  1463  026B  00A3               	movwf	(PWM1_Duty@freq^(0+128)+1)
  1464  026C  120A  158A  263A  120A  118A  	fcall	_PWM1_Duty
  1465  0271                     l2312:
  1466                           
  1467                           ;main.c: 179:         PWM2_Duty(cooler, 4000);
  1468  0271  1683               	bsf	3,5	;RP0=1, select bank1
  1469  0272  1303               	bcf	3,6	;RP1=0, select bank1
  1470  0273  0833               	movf	(main@cooler+1)^(0+128),w
  1471  0274  00A1               	movwf	(PWM2_Duty@duty+1)^(0+128)
  1472  0275  0832               	movf	main@cooler^(0+128),w
  1473  0276  00A0               	movwf	PWM2_Duty@duty^(0+128)
  1474  0277  30A0               	movlw	160
  1475  0278  00A2               	movwf	PWM2_Duty@freq^(0+128)
  1476  0279  300F               	movlw	15
  1477  027A  00A3               	movwf	(PWM2_Duty@freq^(0+128)+1)
  1478  027B  120A  118A  2011  120A  118A  	fcall	_PWM2_Duty
  1479  0280                     l2314:
  1480                           
  1481                           ;main.c: 180:         controlarLcd();
  1482  0280  120A  158A  2324  120A  118A  	fcall	_controlarLcd
  1483  0285                     l2316:
  1484                           
  1485                           ;main.c: 181:         atualizaDisplay(setPoint);
  1486  0285  1683               	bsf	3,5	;RP0=1, select bank1
  1487  0286  1303               	bcf	3,6	;RP1=0, select bank1
  1488  0287  0841               	movf	(_setPoint+1)^(0+128),w
  1489  0288  1283               	bcf	3,5	;RP0=0, select bank0
  1490  0289  1303               	bcf	3,6	;RP1=0, select bank0
  1491  028A  00A1               	movwf	atualizaDisplay@tempSet+1
  1492  028B  1683               	bsf	3,5	;RP0=1, select bank1
  1493  028C  1303               	bcf	3,6	;RP1=0, select bank1
  1494  028D  0840               	movf	_setPoint^(0+128),w
  1495  028E  1283               	bcf	3,5	;RP0=0, select bank0
  1496  028F  1303               	bcf	3,6	;RP1=0, select bank0
  1497  0290  00A0               	movwf	atualizaDisplay@tempSet
  1498  0291  120A  158A  2702  120A  118A  	fcall	_atualizaDisplay
  1499  0296  28FA               	goto	l2292
  1500  0297  120A  118A  2800   	ljmp	start
  1501  029A                     __end_of_main:
  1502                           
  1503                           	psect	text1
  1504  09D9                     __ptext1:	
  1505 ;; *************** function _iniciarLcd *****************
  1506 ;; Defined at:
  1507 ;;		line 112 in file "main.c"
  1508 ;; Parameters:    Size  Location     Type
  1509 ;;		None
  1510 ;; Auto vars:     Size  Location     Type
  1511 ;;		None
  1512 ;; Return value:  Size  Location     Type
  1513 ;;                  1    wreg      void 
  1514 ;; Registers used:
  1515 ;;		wreg, fsr0l, fsr0h, status,2, status,0, pclath, cstack
  1516 ;; Tracked objects:
  1517 ;;		On entry : 0/0
  1518 ;;		On exit  : 0/0
  1519 ;;		Unchanged: 0/0
  1520 ;; Data sizes:     COMMON   BANK0   BANK1   BANK3   BANK2
  1521 ;;      Params:         0       0       0       0       0
  1522 ;;      Locals:         0       0       0       0       0
  1523 ;;      Temps:          0       0       0       0       0
  1524 ;;      Totals:         0       0       0       0       0
  1525 ;;Total ram usage:        0 bytes
  1526 ;; Hardware stack levels used: 1
  1527 ;; Hardware stack levels required when called: 3
  1528 ;; This function calls:
  1529 ;;		_lcd_cmd
  1530 ;;		_lcd_init
  1531 ;;		_lcd_str
  1532 ;; This function is called by:
  1533 ;;		_main
  1534 ;; This function uses a non-reentrant model
  1535 ;;
  1536                           
  1537                           
  1538                           ;psect for function _iniciarLcd
  1539  09D9                     _iniciarLcd:
  1540  09D9                     l2188:	
  1541                           ;incstack = 0
  1542                           ; Regs used in _iniciarLcd: [wreg-fsr0h+status,2+status,0+pclath+cstack]
  1543                           
  1544                           
  1545                           ;main.c: 113:     lcd_init();
  1546  09D9  120A  158A  227D  120A  158A  	fcall	_lcd_init
  1547                           
  1548                           ;main.c: 114:     lcd_cmd(0x80);
  1549  09DE  3080               	movlw	128
  1550  09DF  120A  158A  2160  120A  158A  	fcall	_lcd_cmd
  1551  09E4                     l2190:
  1552                           
  1553                           ;main.c: 115:     lcd_str("TEMP:");
  1554  09E4  3025               	movlw	(low ((STR_1-__stringbase)| (0+32768)))& (0+255)
  1555  09E5  120A  158A  21B7  120A  158A  	fcall	_lcd_str
  1556  09EA                     l2192:
  1557                           
  1558                           ;main.c: 116:     lcd_cmd(0xC0);
  1559  09EA  30C0               	movlw	192
  1560  09EB  120A  158A  2160  120A  158A  	fcall	_lcd_cmd
  1561                           
  1562                           ;main.c: 117:     lcd_str("  KP:");
  1563  09F0  301F               	movlw	(low ((STR_2-__stringbase)| (0+32768)))& (0+255)
  1564  09F1  120A  158A  21B7  120A  158A  	fcall	_lcd_str
  1565  09F6                     l2194:
  1566                           
  1567                           ;main.c: 118:     lcd_cmd(0x85);
  1568  09F6  3085               	movlw	133
  1569  09F7  120A  158A  2160  120A  158A  	fcall	_lcd_cmd
  1570  09FC                     l171:
  1571  09FC  0008               	return
  1572  09FD                     __end_of_iniciarLcd:
  1573                           
  1574                           	psect	text2
  1575  0A7D                     __ptext2:	
  1576 ;; *************** function _lcd_init *****************
  1577 ;; Defined at:
  1578 ;;		line 57 in file "lcd.c"
  1579 ;; Parameters:    Size  Location     Type
  1580 ;;		None
  1581 ;; Auto vars:     Size  Location     Type
  1582 ;;		None
  1583 ;; Return value:  Size  Location     Type
  1584 ;;                  1    wreg      void 
  1585 ;; Registers used:
  1586 ;;		wreg, status,2, status,0, pclath, cstack
  1587 ;; Tracked objects:
  1588 ;;		On entry : 0/0
  1589 ;;		On exit  : 0/0
  1590 ;;		Unchanged: 0/0
  1591 ;; Data sizes:     COMMON   BANK0   BANK1   BANK3   BANK2
  1592 ;;      Params:         0       0       0       0       0
  1593 ;;      Locals:         0       0       0       0       0
  1594 ;;      Temps:          0       0       0       0       0
  1595 ;;      Totals:         0       0       0       0       0
  1596 ;;Total ram usage:        0 bytes
  1597 ;; Hardware stack levels used: 1
  1598 ;; Hardware stack levels required when called: 2
  1599 ;; This function calls:
  1600 ;;		_lcd_cmd
  1601 ;; This function is called by:
  1602 ;;		_iniciarLcd
  1603 ;; This function uses a non-reentrant model
  1604 ;;
  1605                           
  1606                           
  1607                           ;psect for function _lcd_init
  1608  0A7D                     _lcd_init:
  1609  0A7D                     l1650:	
  1610                           ;incstack = 0
  1611                           ; Regs used in _lcd_init: [wreg+status,2+status,0+pclath+cstack]
  1612                           
  1613                           
  1614                           ;lcd.c: 59:  PORTEbits.RE1=0;
  1615  0A7D  1283               	bcf	3,5	;RP0=0, select bank0
  1616  0A7E  1303               	bcf	3,6	;RP1=0, select bank0
  1617  0A7F  1089               	bcf	9,1	;volatile
  1618                           
  1619                           ;lcd.c: 60:  PORTEbits.RE0=0;
  1620  0A80  1009               	bcf	9,0	;volatile
  1621                           
  1622                           ;lcd.c: 62:  PORTEbits.RE1=1;
  1623  0A81  1489               	bsf	9,1	;volatile
  1624  0A82                     l1652:
  1625                           
  1626                           ;lcd.c: 64:  lcd_cmd(0x38);
  1627  0A82  3038               	movlw	56
  1628  0A83  120A  158A  2160  120A  158A  	fcall	_lcd_cmd
  1629                           
  1630                           ;lcd.c: 66:  lcd_cmd(0x38);
  1631  0A88  3038               	movlw	56
  1632  0A89  120A  158A  2160  120A  158A  	fcall	_lcd_cmd
  1633                           
  1634                           ;lcd.c: 68:  lcd_cmd(0x38);
  1635  0A8E  3038               	movlw	56
  1636  0A8F  120A  158A  2160  120A  158A  	fcall	_lcd_cmd
  1637                           
  1638                           ;lcd.c: 69:  lcd_cmd(0x08);
  1639  0A94  3008               	movlw	8
  1640  0A95  120A  158A  2160  120A  158A  	fcall	_lcd_cmd
  1641                           
  1642                           ;lcd.c: 70:  lcd_cmd(0x0F);
  1643  0A9A  300F               	movlw	15
  1644  0A9B  120A  158A  2160  120A  158A  	fcall	_lcd_cmd
  1645                           
  1646                           ;lcd.c: 71:  lcd_cmd(0x01);
  1647  0AA0  3001               	movlw	1
  1648  0AA1  120A  158A  2160  120A  158A  	fcall	_lcd_cmd
  1649                           
  1650                           ;lcd.c: 72:  lcd_cmd(0x38);
  1651  0AA6  3038               	movlw	56
  1652  0AA7  120A  158A  2160  120A  158A  	fcall	_lcd_cmd
  1653                           
  1654                           ;lcd.c: 73:     lcd_cmd(0x80);
  1655  0AAC  3080               	movlw	128
  1656  0AAD  120A  158A  2160  120A  158A  	fcall	_lcd_cmd
  1657  0AB2                     l208:
  1658  0AB2  0008               	return
  1659  0AB3                     __end_of_lcd_init:
  1660                           
  1661                           	psect	text3
  1662  099B                     __ptext3:	
  1663 ;; *************** function _controleMaximoMinimo *****************
  1664 ;; Defined at:
  1665 ;;		line 96 in file "main.c"
  1666 ;; Parameters:    Size  Location     Type
  1667 ;;  valor           2   12[BANK0 ] int 
  1668 ;; Auto vars:     Size  Location     Type
  1669 ;;		None
  1670 ;; Return value:  Size  Location     Type
  1671 ;;                  2   12[BANK0 ] int 
  1672 ;; Registers used:
  1673 ;;		wreg, status,2, btemp+1
  1674 ;; Tracked objects:
  1675 ;;		On entry : 0/0
  1676 ;;		On exit  : 0/0
  1677 ;;		Unchanged: 0/0
  1678 ;; Data sizes:     COMMON   BANK0   BANK1   BANK3   BANK2
  1679 ;;      Params:         0       2       0       0       0
  1680 ;;      Locals:         0       0       0       0       0
  1681 ;;      Temps:          0       0       0       0       0
  1682 ;;      Totals:         0       2       0       0       0
  1683 ;;Total ram usage:        2 bytes
  1684 ;; Hardware stack levels used: 1
  1685 ;; This function calls:
  1686 ;;		Nothing
  1687 ;; This function is called by:
  1688 ;;		_main
  1689 ;; This function uses a non-reentrant model
  1690 ;;
  1691                           
  1692                           
  1693                           ;psect for function _controleMaximoMinimo
  1694  099B                     _controleMaximoMinimo:
  1695  099B                     l2176:	
  1696                           ;incstack = 0
  1697                           ; Regs used in _controleMaximoMinimo: [wreg+status,2+btemp+1]
  1698                           
  1699                           
  1700                           ;main.c: 97:     if (valor < 0){
  1701  099B  1283               	bcf	3,5	;RP0=0, select bank0
  1702  099C  1303               	bcf	3,6	;RP1=0, select bank0
  1703  099D  1FAD               	btfss	controleMaximoMinimo@valor+1,7
  1704  099E  29A0               	goto	u2951
  1705  099F  29A1               	goto	u2950
  1706  09A0                     u2951:
  1707  09A0  29A3               	goto	l2180
  1708  09A1                     u2950:
  1709  09A1                     l2178:
  1710                           
  1711                           ;main.c: 98:         valor = 0;
  1712  09A1  01AC               	clrf	controleMaximoMinimo@valor
  1713  09A2  01AD               	clrf	controleMaximoMinimo@valor+1
  1714  09A3                     l2180:
  1715                           
  1716                           ;main.c: 101:     if (valor > 1023){
  1717  09A3  082D               	movf	controleMaximoMinimo@valor+1,w
  1718  09A4  3A80               	xorlw	128
  1719  09A5  00FF               	movwf	btemp+1
  1720  09A6  3084               	movlw	132
  1721  09A7  027F               	subwf	btemp+1,w
  1722  09A8  1D03               	skipz
  1723  09A9  29AC               	goto	u2965
  1724  09AA  3000               	movlw	0
  1725  09AB  022C               	subwf	controleMaximoMinimo@valor,w
  1726  09AC                     u2965:
  1727  09AC  1C03               	skipc
  1728  09AD  29AF               	goto	u2961
  1729  09AE  29B0               	goto	u2960
  1730  09AF                     u2961:
  1731  09AF  29B6               	goto	l2184
  1732  09B0                     u2960:
  1733  09B0                     l2182:
  1734                           
  1735                           ;main.c: 102:         valor = 1023;
  1736  09B0  30FF               	movlw	255
  1737  09B1  1283               	bcf	3,5	;RP0=0, select bank0
  1738  09B2  1303               	bcf	3,6	;RP1=0, select bank0
  1739  09B3  00AC               	movwf	controleMaximoMinimo@valor
  1740  09B4  3003               	movlw	3
  1741  09B5  00AD               	movwf	controleMaximoMinimo@valor+1
  1742  09B6                     l2184:
  1743  09B6                     l165:	
  1744                           ;main.c: 105:     return valor;
  1745                           
  1746  09B6  0008               	return
  1747  09B7                     __end_of_controleMaximoMinimo:
  1748                           
  1749                           	psect	text4
  1750  0BA9                     __ptext4:	
  1751 ;; *************** function _controlarSetPoint *****************
  1752 ;; Defined at:
  1753 ;;		line 65 in file "main.c"
  1754 ;; Parameters:    Size  Location     Type
  1755 ;;		None
  1756 ;; Auto vars:     Size  Location     Type
  1757 ;;		None
  1758 ;; Return value:  Size  Location     Type
  1759 ;;                  1    wreg      void 
  1760 ;; Registers used:
  1761 ;;		wreg, status,2, status,0
  1762 ;; Tracked objects:
  1763 ;;		On entry : 0/0
  1764 ;;		On exit  : 0/0
  1765 ;;		Unchanged: 0/0
  1766 ;; Data sizes:     COMMON   BANK0   BANK1   BANK3   BANK2
  1767 ;;      Params:         0       0       0       0       0
  1768 ;;      Locals:         0       0       0       0       0
  1769 ;;      Temps:          1       0       0       0       0
  1770 ;;      Totals:         1       0       0       0       0
  1771 ;;Total ram usage:        1 bytes
  1772 ;; Hardware stack levels used: 1
  1773 ;; This function calls:
  1774 ;;		Nothing
  1775 ;; This function is called by:
  1776 ;;		_main
  1777 ;; This function uses a non-reentrant model
  1778 ;;
  1779                           
  1780                           
  1781                           ;psect for function _controlarSetPoint
  1782  0BA9                     _controlarSetPoint:
  1783  0BA9                     l2152:	
  1784                           ;incstack = 0
  1785                           ; Regs used in _controlarSetPoint: [wreg+status,2+status,0]
  1786                           
  1787                           
  1788                           ;main.c: 66:     static char S1Anterior;;main.c: 67:     static char S1Atual;;main.c: 68
      +                          :     static char S2Anterior;;main.c: 69:     static char S2Atual;;main.c: 70:     stati
      +                          c char S3Anterior;;main.c: 71:     static char S3Atual;;main.c: 73:     S1Atual = RB0;
  1789  0BA9  3000               	movlw	0
  1790  0BAA  1283               	bcf	3,5	;RP0=0, select bank0
  1791  0BAB  1303               	bcf	3,6	;RP1=0, select bank0
  1792  0BAC  1806               	btfsc	6,0	;volatile
  1793  0BAD  3001               	movlw	1
  1794  0BAE  1683               	bsf	3,5	;RP0=1, select bank1
  1795  0BAF  1303               	bcf	3,6	;RP1=0, select bank1
  1796  0BB0  00BA               	movwf	controlarSetPoint@S1Atual^(0+128)
  1797  0BB1                     l2154:
  1798                           
  1799                           ;main.c: 75:     if((S1Atual)&&(!S1Anterior)){
  1800  0BB1  083A               	movf	controlarSetPoint@S1Atual^(0+128),w
  1801  0BB2  1903               	btfsc	3,2
  1802  0BB3  2BB5               	goto	u2891
  1803  0BB4  2BB6               	goto	u2890
  1804  0BB5                     u2891:
  1805  0BB5  2BC1               	goto	l157
  1806  0BB6                     u2890:
  1807  0BB6                     l2156:
  1808  0BB6  083B               	movf	controlarSetPoint@S1Anterior^(0+128),w
  1809  0BB7  1D03               	btfss	3,2
  1810  0BB8  2BBA               	goto	u2901
  1811  0BB9  2BBB               	goto	u2900
  1812  0BBA                     u2901:
  1813  0BBA  2BC1               	goto	l157
  1814  0BBB                     u2900:
  1815  0BBB                     l2158:
  1816                           
  1817                           ;main.c: 76:         setPoint += 100;
  1818  0BBB  3064               	movlw	100
  1819  0BBC  07C0               	addwf	_setPoint^(0+128),f
  1820  0BBD  1803               	skipnc
  1821  0BBE  0AC1               	incf	(_setPoint+1)^(0+128),f
  1822  0BBF  3000               	movlw	0
  1823  0BC0  07C1               	addwf	(_setPoint+1)^(0+128),f
  1824  0BC1                     l157:	
  1825                           ;main.c: 77:     }
  1826                           
  1827                           
  1828                           ;main.c: 79:     S1Anterior = S1Atual;
  1829  0BC1  083A               	movf	controlarSetPoint@S1Atual^(0+128),w
  1830  0BC2  00F0               	movwf	??_controlarSetPoint
  1831  0BC3  0870               	movf	??_controlarSetPoint,w
  1832  0BC4  00BB               	movwf	controlarSetPoint@S1Anterior^(0+128)
  1833  0BC5                     l2160:
  1834                           
  1835                           ;main.c: 80:     S2Atual = RB1;
  1836  0BC5  3000               	movlw	0
  1837  0BC6  1283               	bcf	3,5	;RP0=0, select bank0
  1838  0BC7  1303               	bcf	3,6	;RP1=0, select bank0
  1839  0BC8  1886               	btfsc	6,1	;volatile
  1840  0BC9  3001               	movlw	1
  1841  0BCA  1683               	bsf	3,5	;RP0=1, select bank1
  1842  0BCB  1303               	bcf	3,6	;RP1=0, select bank1
  1843  0BCC  00B8               	movwf	controlarSetPoint@S2Atual^(0+128)
  1844  0BCD                     l2162:
  1845                           
  1846                           ;main.c: 82:     if((S2Atual)&&(!S2Anterior)){
  1847  0BCD  0838               	movf	controlarSetPoint@S2Atual^(0+128),w
  1848  0BCE  1903               	btfsc	3,2
  1849  0BCF  2BD1               	goto	u2911
  1850  0BD0  2BD2               	goto	u2910
  1851  0BD1                     u2911:
  1852  0BD1  2BDD               	goto	l158
  1853  0BD2                     u2910:
  1854  0BD2                     l2164:
  1855  0BD2  0839               	movf	controlarSetPoint@S2Anterior^(0+128),w
  1856  0BD3  1D03               	btfss	3,2
  1857  0BD4  2BD6               	goto	u2921
  1858  0BD5  2BD7               	goto	u2920
  1859  0BD6                     u2921:
  1860  0BD6  2BDD               	goto	l158
  1861  0BD7                     u2920:
  1862  0BD7                     l2166:
  1863                           
  1864                           ;main.c: 83:         setPoint -= 100;
  1865  0BD7  309C               	movlw	156
  1866  0BD8  07C0               	addwf	_setPoint^(0+128),f
  1867  0BD9  1803               	skipnc
  1868  0BDA  0AC1               	incf	(_setPoint+1)^(0+128),f
  1869  0BDB  30FF               	movlw	255
  1870  0BDC  07C1               	addwf	(_setPoint+1)^(0+128),f
  1871  0BDD                     l158:	
  1872                           ;main.c: 84:     }
  1873                           
  1874                           
  1875                           ;main.c: 86:     S2Anterior = S2Atual;
  1876  0BDD  0838               	movf	controlarSetPoint@S2Atual^(0+128),w
  1877  0BDE  00F0               	movwf	??_controlarSetPoint
  1878  0BDF  0870               	movf	??_controlarSetPoint,w
  1879  0BE0  00B9               	movwf	controlarSetPoint@S2Anterior^(0+128)
  1880  0BE1                     l2168:
  1881                           
  1882                           ;main.c: 87:     S3Atual = RB2;
  1883  0BE1  3000               	movlw	0
  1884  0BE2  1283               	bcf	3,5	;RP0=0, select bank0
  1885  0BE3  1303               	bcf	3,6	;RP1=0, select bank0
  1886  0BE4  1906               	btfsc	6,2	;volatile
  1887  0BE5  3001               	movlw	1
  1888  0BE6  1683               	bsf	3,5	;RP0=1, select bank1
  1889  0BE7  1303               	bcf	3,6	;RP1=0, select bank1
  1890  0BE8  00B6               	movwf	controlarSetPoint@S3Atual^(0+128)
  1891  0BE9                     l2170:
  1892                           
  1893                           ;main.c: 89:     if((S3Atual)&&(!S3Anterior)){
  1894  0BE9  0836               	movf	controlarSetPoint@S3Atual^(0+128),w
  1895  0BEA  1903               	btfsc	3,2
  1896  0BEB  2BED               	goto	u2931
  1897  0BEC  2BEE               	goto	u2930
  1898  0BED                     u2931:
  1899  0BED  2BF9               	goto	l159
  1900  0BEE                     u2930:
  1901  0BEE                     l2172:
  1902  0BEE  0837               	movf	controlarSetPoint@S3Anterior^(0+128),w
  1903  0BEF  1D03               	btfss	3,2
  1904  0BF0  2BF2               	goto	u2941
  1905  0BF1  2BF3               	goto	u2940
  1906  0BF2                     u2941:
  1907  0BF2  2BF9               	goto	l159
  1908  0BF3                     u2940:
  1909  0BF3                     l2174:
  1910                           
  1911                           ;main.c: 90:         setPoint += 10;
  1912  0BF3  300A               	movlw	10
  1913  0BF4  07C0               	addwf	_setPoint^(0+128),f
  1914  0BF5  1803               	skipnc
  1915  0BF6  0AC1               	incf	(_setPoint+1)^(0+128),f
  1916  0BF7  3000               	movlw	0
  1917  0BF8  07C1               	addwf	(_setPoint+1)^(0+128),f
  1918  0BF9                     l159:	
  1919                           ;main.c: 91:     }
  1920                           
  1921                           
  1922                           ;main.c: 93:     S3Anterior = S3Atual;
  1923  0BF9  0836               	movf	controlarSetPoint@S3Atual^(0+128),w
  1924  0BFA  00F0               	movwf	??_controlarSetPoint
  1925  0BFB  0870               	movf	??_controlarSetPoint,w
  1926  0BFC  00B7               	movwf	controlarSetPoint@S3Anterior^(0+128)
  1927  0BFD                     l160:
  1928  0BFD  0008               	return
  1929  0BFE                     __end_of_controlarSetPoint:
  1930                           
  1931                           	psect	text5
  1932  0B24                     __ptext5:	
  1933 ;; *************** function _controlarLcd *****************
  1934 ;; Defined at:
  1935 ;;		line 131 in file "main.c"
  1936 ;; Parameters:    Size  Location     Type
  1937 ;;		None
  1938 ;; Auto vars:     Size  Location     Type
  1939 ;;		None
  1940 ;; Return value:  Size  Location     Type
  1941 ;;                  1    wreg      void 
  1942 ;; Registers used:
  1943 ;;		wreg, fsr0l, fsr0h, status,2, status,0, pclath, cstack
  1944 ;; Tracked objects:
  1945 ;;		On entry : 0/0
  1946 ;;		On exit  : 0/0
  1947 ;;		Unchanged: 0/0
  1948 ;; Data sizes:     COMMON   BANK0   BANK1   BANK3   BANK2
  1949 ;;      Params:         0       0       0       0       0
  1950 ;;      Locals:         0       0       0       0       0
  1951 ;;      Temps:          1       0       0       0       0
  1952 ;;      Totals:         1       0       0       0       0
  1953 ;;Total ram usage:        1 bytes
  1954 ;; Hardware stack levels used: 1
  1955 ;; Hardware stack levels required when called: 4
  1956 ;; This function calls:
  1957 ;;		_escrever
  1958 ;; This function is called by:
  1959 ;;		_main
  1960 ;; This function uses a non-reentrant model
  1961 ;;
  1962                           
  1963                           
  1964                           ;psect for function _controlarLcd
  1965  0B24                     _controlarLcd:
  1966  0B24                     l2196:	
  1967                           ;incstack = 0
  1968                           ; Regs used in _controlarLcd: [wreg-fsr0h+status,2+status,0+pclath+cstack]
  1969                           
  1970                           
  1971                           ;main.c: 132:     S4Atual = RB3;
  1972  0B24  3000               	movlw	0
  1973  0B25  1283               	bcf	3,5	;RP0=0, select bank0
  1974  0B26  1303               	bcf	3,6	;RP1=0, select bank0
  1975  0B27  1986               	btfsc	6,3	;volatile
  1976  0B28  3001               	movlw	1
  1977  0B29  1683               	bsf	3,5	;RP0=1, select bank1
  1978  0B2A  1303               	bcf	3,6	;RP1=0, select bank1
  1979  0B2B  00BC               	movwf	_S4Atual^(0+128)
  1980  0B2C                     l2198:
  1981                           
  1982                           ;main.c: 134:     if((S4Atual)&&(!S4Anterior)){
  1983  0B2C  083C               	movf	_S4Atual^(0+128),w
  1984  0B2D  1903               	btfsc	3,2
  1985  0B2E  2B30               	goto	u2971
  1986  0B2F  2B31               	goto	u2970
  1987  0B30                     u2971:
  1988  0B30  2B45               	goto	l179
  1989  0B31                     u2970:
  1990  0B31                     l2200:
  1991  0B31  083D               	movf	_S4Anterior^(0+128),w
  1992  0B32  1D03               	btfss	3,2
  1993  0B33  2B35               	goto	u2981
  1994  0B34  2B36               	goto	u2980
  1995  0B35                     u2981:
  1996  0B35  2B45               	goto	l179
  1997  0B36                     u2980:
  1998  0B36                     l2202:
  1999                           
  2000                           ;main.c: 135:         if (menu == 1){
  2001  0B36  0342               	decf	_menu^(0+128),w
  2002  0B37  0443               	iorwf	(_menu+1)^(0+128),w
  2003  0B38  1D03               	btfss	3,2
  2004  0B39  2B3B               	goto	u2991
  2005  0B3A  2B3C               	goto	u2990
  2006  0B3B                     u2991:
  2007  0B3B  2B41               	goto	l2206
  2008  0B3C                     u2990:
  2009  0B3C                     l2204:
  2010                           
  2011                           ;main.c: 136:             menu = 2;
  2012  0B3C  3002               	movlw	2
  2013  0B3D  00C2               	movwf	_menu^(0+128)
  2014  0B3E  3000               	movlw	0
  2015  0B3F  00C3               	movwf	(_menu^(0+128)+1)
  2016                           
  2017                           ;main.c: 137:         } else {
  2018  0B40  2B45               	goto	l179
  2019  0B41                     l2206:
  2020                           
  2021                           ;main.c: 138:             menu = 1;
  2022  0B41  3001               	movlw	1
  2023  0B42  00C2               	movwf	_menu^(0+128)
  2024  0B43  3000               	movlw	0
  2025  0B44  00C3               	movwf	(_menu^(0+128)+1)
  2026  0B45                     l179:	
  2027                           ;main.c: 140:     }
  2028                           
  2029                           
  2030                           ;main.c: 142:     S4Anterior = S4Atual;
  2031  0B45  083C               	movf	_S4Atual^(0+128),w
  2032  0B46  00F8               	movwf	??_controlarLcd
  2033  0B47  0878               	movf	??_controlarLcd,w
  2034  0B48  00BD               	movwf	_S4Anterior^(0+128)
  2035  0B49                     l2208:
  2036                           
  2037                           ;main.c: 144:     if (menu != 1){
  2038  0B49  0342               	decf	_menu^(0+128),w
  2039  0B4A  0443               	iorwf	(_menu+1)^(0+128),w
  2040  0B4B  1903               	btfsc	3,2
  2041  0B4C  2B4E               	goto	u3001
  2042  0B4D  2B4F               	goto	u3000
  2043  0B4E                     u3001:
  2044  0B4E  2B5A               	goto	l2212
  2045  0B4F                     u3000:
  2046  0B4F                     l2210:
  2047                           
  2048                           ;main.c: 145:         escrever("Valor TEMP", 1);
  2049  0B4F  3001               	movlw	1
  2050  0B50  00F5               	movwf	escrever@linha
  2051  0B51  3000               	movlw	0
  2052  0B52  00F6               	movwf	escrever@linha+1
  2053  0B53  300B               	movlw	(low ((STR_3-__stringbase)| (0+32768)))& (0+255)
  2054  0B54  120A  158A  2180  120A  158A  	fcall	_escrever
  2055                           
  2056                           ;main.c: 146:     } else {
  2057  0B59  2B64               	goto	l184
  2058  0B5A                     l2212:
  2059                           
  2060                           ;main.c: 147:         escrever("Valor KP", 2);
  2061  0B5A  3002               	movlw	2
  2062  0B5B  00F5               	movwf	escrever@linha
  2063  0B5C  3000               	movlw	0
  2064  0B5D  00F6               	movwf	escrever@linha+1
  2065  0B5E  3016               	movlw	(low ((STR_4-__stringbase)| (0+32768)))& (0+255)
  2066  0B5F  120A  158A  2180  120A  158A  	fcall	_escrever
  2067  0B64                     l184:
  2068  0B64  0008               	return
  2069  0B65                     __end_of_controlarLcd:
  2070                           
  2071                           	psect	text6
  2072  0980                     __ptext6:	
  2073 ;; *************** function _escrever *****************
  2074 ;; Defined at:
  2075 ;;		line 121 in file "main.c"
  2076 ;; Parameters:    Size  Location     Type
  2077 ;;  texto           1    wreg     unsigned char 
  2078 ;;  linha           2    5[COMMON] int 
  2079 ;; Auto vars:     Size  Location     Type
  2080 ;;  texto           1    7[COMMON] unsigned char 
  2081 ;; Return value:  Size  Location     Type
  2082 ;;                  1    wreg      void 
  2083 ;; Registers used:
  2084 ;;		wreg, fsr0l, fsr0h, status,2, status,0, pclath, cstack
  2085 ;; Tracked objects:
  2086 ;;		On entry : 0/0
  2087 ;;		On exit  : 0/0
  2088 ;;		Unchanged: 0/0
  2089 ;; Data sizes:     COMMON   BANK0   BANK1   BANK3   BANK2
  2090 ;;      Params:         2       0       0       0       0
  2091 ;;      Locals:         1       0       0       0       0
  2092 ;;      Temps:          0       0       0       0       0
  2093 ;;      Totals:         3       0       0       0       0
  2094 ;;Total ram usage:        3 bytes
  2095 ;; Hardware stack levels used: 1
  2096 ;; Hardware stack levels required when called: 3
  2097 ;; This function calls:
  2098 ;;		_lcd_cmd
  2099 ;;		_lcd_str
  2100 ;; This function is called by:
  2101 ;;		_controlarLcd
  2102 ;; This function uses a non-reentrant model
  2103 ;;
  2104                           
  2105                           
  2106                           ;psect for function _escrever
  2107  0980                     _escrever:
  2108                           
  2109                           ;incstack = 0
  2110                           ; Regs used in _escrever: [wreg-fsr0h+status,2+status,0+pclath+cstack]
  2111                           ;escrever@texto stored from wreg
  2112  0980  00F7               	movwf	escrever@texto
  2113  0981                     l1654:
  2114                           
  2115                           ;main.c: 122:     if (linha == 1){
  2116  0981  0375               	decf	escrever@linha,w
  2117  0982  0476               	iorwf	escrever@linha+1,w
  2118  0983  1D03               	btfss	3,2
  2119  0984  2986               	goto	u1741
  2120  0985  2987               	goto	u1740
  2121  0986                     u1741:
  2122  0986  298E               	goto	l1658
  2123  0987                     u1740:
  2124  0987                     l1656:
  2125                           
  2126                           ;main.c: 123:         lcd_cmd(0x85);
  2127  0987  3085               	movlw	133
  2128  0988  120A  158A  2160  120A  158A  	fcall	_lcd_cmd
  2129                           
  2130                           ;main.c: 124:     } else {
  2131  098D  2994               	goto	l1660
  2132  098E                     l1658:
  2133                           
  2134                           ;main.c: 125:         lcd_cmd(0xC5);
  2135  098E  30C5               	movlw	197
  2136  098F  120A  158A  2160  120A  158A  	fcall	_lcd_cmd
  2137  0994                     l1660:
  2138                           
  2139                           ;main.c: 128:     lcd_str(texto);
  2140  0994  0877               	movf	escrever@texto,w
  2141  0995  120A  158A  21B7  120A  158A  	fcall	_lcd_str
  2142  099A                     l176:
  2143  099A  0008               	return
  2144  099B                     __end_of_escrever:
  2145                           
  2146                           	psect	text7
  2147  09B7                     __ptext7:	
  2148 ;; *************** function _lcd_str *****************
  2149 ;; Defined at:
  2150 ;;		line 76 in file "lcd.c"
  2151 ;; Parameters:    Size  Location     Type
  2152 ;;  str             1    wreg     PTR const unsigned char 
  2153 ;;		 -> ROM(8192), STR_2(6), STR_1(6), 
  2154 ;; Auto vars:     Size  Location     Type
  2155 ;;  str             1    4[COMMON] PTR const unsigned char 
  2156 ;;		 -> ROM(8192), STR_2(6), STR_1(6), 
  2157 ;;  i               1    3[COMMON] unsigned char 
  2158 ;; Return value:  Size  Location     Type
  2159 ;;                  1    wreg      void 
  2160 ;; Registers used:
  2161 ;;		wreg, fsr0l, fsr0h, status,2, status,0, pclath, cstack
  2162 ;; Tracked objects:
  2163 ;;		On entry : 0/0
  2164 ;;		On exit  : 0/0
  2165 ;;		Unchanged: 0/0
  2166 ;; Data sizes:     COMMON   BANK0   BANK1   BANK3   BANK2
  2167 ;;      Params:         0       0       0       0       0
  2168 ;;      Locals:         2       0       0       0       0
  2169 ;;      Temps:          1       0       0       0       0
  2170 ;;      Totals:         3       0       0       0       0
  2171 ;;Total ram usage:        3 bytes
  2172 ;; Hardware stack levels used: 1
  2173 ;; Hardware stack levels required when called: 2
  2174 ;; This function calls:
  2175 ;;		_lcd_dat
  2176 ;; This function is called by:
  2177 ;;		_iniciarLcd
  2178 ;;		_escrever
  2179 ;; This function uses a non-reentrant model
  2180 ;;
  2181                           
  2182                           
  2183                           ;psect for function _lcd_str
  2184  09B7                     _lcd_str:
  2185                           
  2186                           ;incstack = 0
  2187                           ; Regs used in _lcd_str: [wreg-fsr0h+status,2+status,0+pclath+cstack]
  2188                           ;lcd_str@str stored from wreg
  2189  09B7  00F4               	movwf	lcd_str@str
  2190  09B8                     l1586:
  2191                           
  2192                           ;lcd.c: 76: void lcd_str(const char* str);lcd.c: 77: {;lcd.c: 78:  unsigned char i=0;
  2193  09B8  01F3               	clrf	lcd_str@i
  2194                           
  2195                           ;lcd.c: 80:  while(str[i] != 0 )
  2196  09B9  29CB               	goto	l1592
  2197  09BA                     l1588:
  2198                           
  2199                           ;lcd.c: 81:  {;lcd.c: 82:    lcd_dat(str[i]);
  2200  09BA  0873               	movf	lcd_str@i,w
  2201  09BB  0774               	addwf	lcd_str@str,w
  2202  09BC  0084               	movwf	4
  2203  09BD  120A  158A  2000  120A  158A  	fcall	stringdir
  2204  09C2  120A  158A  2170  120A  158A  	fcall	_lcd_dat
  2205  09C7                     l1590:
  2206                           
  2207                           ;lcd.c: 83:    i++;
  2208  09C7  3001               	movlw	1
  2209  09C8  00F2               	movwf	??_lcd_str
  2210  09C9  0872               	movf	??_lcd_str,w
  2211  09CA  07F3               	addwf	lcd_str@i,f
  2212  09CB                     l1592:
  2213                           
  2214                           ;lcd.c: 80:  while(str[i] != 0 )
  2215  09CB  0873               	movf	lcd_str@i,w
  2216  09CC  0774               	addwf	lcd_str@str,w
  2217  09CD  0084               	movwf	4
  2218  09CE  120A  158A  2000  120A  158A  	fcall	stringdir
  2219  09D3  3A00               	xorlw	0
  2220  09D4  1D03               	skipz
  2221  09D5  29D7               	goto	u1581
  2222  09D6  29D8               	goto	u1580
  2223  09D7                     u1581:
  2224  09D7  29BA               	goto	l1588
  2225  09D8                     u1580:
  2226  09D8                     l214:
  2227  09D8  0008               	return
  2228  09D9                     __end_of_lcd_str:
  2229                           
  2230                           	psect	text8
  2231  0970                     __ptext8:	
  2232 ;; *************** function _lcd_dat *****************
  2233 ;; Defined at:
  2234 ;;		line 46 in file "lcd.c"
  2235 ;; Parameters:    Size  Location     Type
  2236 ;;  val             1    wreg     unsigned char 
  2237 ;; Auto vars:     Size  Location     Type
  2238 ;;  val             1    1[COMMON] unsigned char 
  2239 ;; Return value:  Size  Location     Type
  2240 ;;                  1    wreg      void 
  2241 ;; Registers used:
  2242 ;;		wreg, status,2, status,0, pclath, cstack
  2243 ;; Tracked objects:
  2244 ;;		On entry : 0/0
  2245 ;;		On exit  : 0/0
  2246 ;;		Unchanged: 0/0
  2247 ;; Data sizes:     COMMON   BANK0   BANK1   BANK3   BANK2
  2248 ;;      Params:         0       0       0       0       0
  2249 ;;      Locals:         1       0       0       0       0
  2250 ;;      Temps:          0       0       0       0       0
  2251 ;;      Totals:         1       0       0       0       0
  2252 ;;Total ram usage:        1 bytes
  2253 ;; Hardware stack levels used: 1
  2254 ;; Hardware stack levels required when called: 1
  2255 ;; This function calls:
  2256 ;;		_lcd_wr
  2257 ;; This function is called by:
  2258 ;;		_lcd_str
  2259 ;; This function uses a non-reentrant model
  2260 ;;
  2261                           
  2262                           
  2263                           ;psect for function _lcd_dat
  2264  0970                     _lcd_dat:
  2265                           
  2266                           ;incstack = 0
  2267                           ; Regs used in _lcd_dat: [wreg+status,2+status,0+pclath+cstack]
  2268                           ;lcd_dat@val stored from wreg
  2269  0970  00F1               	movwf	lcd_dat@val
  2270  0971                     l1566:
  2271                           
  2272                           ;lcd.c: 46: void lcd_dat(unsigned char val);lcd.c: 47: {;lcd.c: 48:  PORTEbits.RE1=1;
  2273  0971  1283               	bcf	3,5	;RP0=0, select bank0
  2274  0972  1303               	bcf	3,6	;RP1=0, select bank0
  2275  0973  1489               	bsf	9,1	;volatile
  2276  0974                     l1568:
  2277                           
  2278                           ;lcd.c: 49:         lcd_wr(val);
  2279  0974  0871               	movf	lcd_dat@val,w
  2280  0975  120A  158A  2148  120A  158A  	fcall	_lcd_wr
  2281  097A                     l1570:
  2282                           
  2283                           ;lcd.c: 50:         PORTEbits.RE0=1;
  2284  097A  1283               	bcf	3,5	;RP0=0, select bank0
  2285  097B  1303               	bcf	3,6	;RP1=0, select bank0
  2286  097C  1409               	bsf	9,0	;volatile
  2287  097D                     l1572:
  2288                           
  2289                           ;lcd.c: 52:         PORTEbits.RE1=0;
  2290  097D  1089               	bcf	9,1	;volatile
  2291  097E                     l1574:
  2292                           
  2293                           ;lcd.c: 54:  PORTEbits.RE1=1;
  2294  097E  1489               	bsf	9,1	;volatile
  2295  097F                     l205:
  2296  097F  0008               	return
  2297  0980                     __end_of_lcd_dat:
  2298                           
  2299                           	psect	text9
  2300  0960                     __ptext9:	
  2301 ;; *************** function _lcd_cmd *****************
  2302 ;; Defined at:
  2303 ;;		line 35 in file "lcd.c"
  2304 ;; Parameters:    Size  Location     Type
  2305 ;;  val             1    wreg     unsigned char 
  2306 ;; Auto vars:     Size  Location     Type
  2307 ;;  val             1    1[COMMON] unsigned char 
  2308 ;; Return value:  Size  Location     Type
  2309 ;;                  1    wreg      void 
  2310 ;; Registers used:
  2311 ;;		wreg, status,2, status,0, pclath, cstack
  2312 ;; Tracked objects:
  2313 ;;		On entry : 0/0
  2314 ;;		On exit  : 0/0
  2315 ;;		Unchanged: 0/0
  2316 ;; Data sizes:     COMMON   BANK0   BANK1   BANK3   BANK2
  2317 ;;      Params:         0       0       0       0       0
  2318 ;;      Locals:         1       0       0       0       0
  2319 ;;      Temps:          0       0       0       0       0
  2320 ;;      Totals:         1       0       0       0       0
  2321 ;;Total ram usage:        1 bytes
  2322 ;; Hardware stack levels used: 1
  2323 ;; Hardware stack levels required when called: 1
  2324 ;; This function calls:
  2325 ;;		_lcd_wr
  2326 ;; This function is called by:
  2327 ;;		_iniciarLcd
  2328 ;;		_escrever
  2329 ;;		_lcd_init
  2330 ;;		_limpar
  2331 ;; This function uses a non-reentrant model
  2332 ;;
  2333                           
  2334                           
  2335                           ;psect for function _lcd_cmd
  2336  0960                     _lcd_cmd:
  2337                           
  2338                           ;incstack = 0
  2339                           ; Regs used in _lcd_cmd: [wreg+status,2+status,0+pclath+cstack]
  2340                           ;lcd_cmd@val stored from wreg
  2341  0960  00F1               	movwf	lcd_cmd@val
  2342  0961                     l1576:
  2343                           
  2344                           ;lcd.c: 35: void lcd_cmd(unsigned char val);lcd.c: 36: {;lcd.c: 37:  PORTEbits.RE1=1;
  2345  0961  1283               	bcf	3,5	;RP0=0, select bank0
  2346  0962  1303               	bcf	3,6	;RP1=0, select bank0
  2347  0963  1489               	bsf	9,1	;volatile
  2348  0964                     l1578:
  2349                           
  2350                           ;lcd.c: 38:         lcd_wr(val);
  2351  0964  0871               	movf	lcd_cmd@val,w
  2352  0965  120A  158A  2148  120A  158A  	fcall	_lcd_wr
  2353  096A                     l1580:
  2354                           
  2355                           ;lcd.c: 39:         PORTEbits.RE0=0;
  2356  096A  1283               	bcf	3,5	;RP0=0, select bank0
  2357  096B  1303               	bcf	3,6	;RP1=0, select bank0
  2358  096C  1009               	bcf	9,0	;volatile
  2359  096D                     l1582:
  2360                           
  2361                           ;lcd.c: 41:         PORTEbits.RE1=0;
  2362  096D  1089               	bcf	9,1	;volatile
  2363  096E                     l1584:
  2364                           
  2365                           ;lcd.c: 43:  PORTEbits.RE1=1;
  2366  096E  1489               	bsf	9,1	;volatile
  2367  096F                     l202:
  2368  096F  0008               	return
  2369  0970                     __end_of_lcd_cmd:
  2370                           
  2371                           	psect	text10
  2372  0948                     __ptext10:	
  2373 ;; *************** function _lcd_wr *****************
  2374 ;; Defined at:
  2375 ;;		line 30 in file "lcd.c"
  2376 ;; Parameters:    Size  Location     Type
  2377 ;;  val             1    wreg     unsigned char 
  2378 ;; Auto vars:     Size  Location     Type
  2379 ;;  val             1    0[COMMON] unsigned char 
  2380 ;; Return value:  Size  Location     Type
  2381 ;;                  1    wreg      void 
  2382 ;; Registers used:
  2383 ;;		wreg
  2384 ;; Tracked objects:
  2385 ;;		On entry : 0/0
  2386 ;;		On exit  : 0/0
  2387 ;;		Unchanged: 0/0
  2388 ;; Data sizes:     COMMON   BANK0   BANK1   BANK3   BANK2
  2389 ;;      Params:         0       0       0       0       0
  2390 ;;      Locals:         1       0       0       0       0
  2391 ;;      Temps:          0       0       0       0       0
  2392 ;;      Totals:         1       0       0       0       0
  2393 ;;Total ram usage:        1 bytes
  2394 ;; Hardware stack levels used: 1
  2395 ;; This function calls:
  2396 ;;		Nothing
  2397 ;; This function is called by:
  2398 ;;		_lcd_cmd
  2399 ;;		_lcd_dat
  2400 ;; This function uses a non-reentrant model
  2401 ;;
  2402                           
  2403                           
  2404                           ;psect for function _lcd_wr
  2405  0948                     _lcd_wr:
  2406                           
  2407                           ;incstack = 0
  2408                           ; Regs used in _lcd_wr: [wreg]
  2409                           ;lcd_wr@val stored from wreg
  2410  0948  00F0               	movwf	lcd_wr@val
  2411  0949                     l1564:
  2412                           
  2413                           ;lcd.c: 30: void lcd_wr(unsigned char val);lcd.c: 31: {;lcd.c: 32:   PORTD=val;
  2414  0949  0870               	movf	lcd_wr@val,w
  2415  094A  1283               	bcf	3,5	;RP0=0, select bank0
  2416  094B  1303               	bcf	3,6	;RP1=0, select bank0
  2417  094C  0088               	movwf	8	;volatile
  2418  094D                     l199:
  2419  094D  0008               	return
  2420  094E                     __end_of_lcd_wr:
  2421                           
  2422                           	psect	text11
  2423  0F02                     __ptext11:	
  2424 ;; *************** function _atualizaDisplay *****************
  2425 ;; Defined at:
  2426 ;;		line 42 in file "main.c"
  2427 ;; Parameters:    Size  Location     Type
  2428 ;;  tempSet         2    0[BANK0 ] unsigned int 
  2429 ;; Auto vars:     Size  Location     Type
  2430 ;;  unidade         2   10[BANK0 ] int 
  2431 ;;  dezena          2    8[BANK0 ] int 
  2432 ;;  centena         2    6[BANK0 ] int 
  2433 ;;  milhar          2    4[BANK0 ] int 
  2434 ;; Return value:  Size  Location     Type
  2435 ;;                  1    wreg      void 
  2436 ;; Registers used:
  2437 ;;		wreg, fsr0l, fsr0h, status,2, status,0, pclath, cstack
  2438 ;; Tracked objects:
  2439 ;;		On entry : 0/0
  2440 ;;		On exit  : 0/0
  2441 ;;		Unchanged: 0/0
  2442 ;; Data sizes:     COMMON   BANK0   BANK1   BANK3   BANK2
  2443 ;;      Params:         0       2       0       0       0
  2444 ;;      Locals:         0      12       0       0       0
  2445 ;;      Temps:          0       2       0       0       0
  2446 ;;      Totals:         0      16       0       0       0
  2447 ;;Total ram usage:       16 bytes
  2448 ;; Hardware stack levels used: 1
  2449 ;; Hardware stack levels required when called: 1
  2450 ;; This function calls:
  2451 ;;		___lwdiv
  2452 ;;		___lwmod
  2453 ;; This function is called by:
  2454 ;;		_main
  2455 ;; This function uses a non-reentrant model
  2456 ;;
  2457                           
  2458                           
  2459                           ;psect for function _atualizaDisplay
  2460  0F02                     _atualizaDisplay:
  2461  0F02                     l2118:	
  2462                           ;incstack = 0
  2463                           ; Regs used in _atualizaDisplay: [wreg-fsr0h+status,2+status,0+pclath+cstack]
  2464                           
  2465                           
  2466                           ;main.c: 43:     int milhar = tempSet/1000;
  2467  0F02  30E8               	movlw	232
  2468  0F03  00F6               	movwf	___lwdiv@divisor
  2469  0F04  3003               	movlw	3
  2470  0F05  00F7               	movwf	___lwdiv@divisor+1
  2471  0F06  1283               	bcf	3,5	;RP0=0, select bank0
  2472  0F07  1303               	bcf	3,6	;RP1=0, select bank0
  2473  0F08  0821               	movf	atualizaDisplay@tempSet+1,w
  2474  0F09  00F9               	movwf	___lwdiv@dividend+1
  2475  0F0A  0820               	movf	atualizaDisplay@tempSet,w
  2476  0F0B  00F8               	movwf	___lwdiv@dividend
  2477  0F0C  120A  158A  2365  120A  158A  	fcall	___lwdiv
  2478  0F11  0877               	movf	?___lwdiv+1,w
  2479  0F12  1283               	bcf	3,5	;RP0=0, select bank0
  2480  0F13  1303               	bcf	3,6	;RP1=0, select bank0
  2481  0F14  00A5               	movwf	atualizaDisplay@milhar+1
  2482  0F15  0876               	movf	?___lwdiv,w
  2483  0F16  00A4               	movwf	atualizaDisplay@milhar
  2484                           
  2485                           ;main.c: 44:     int centena = (tempSet%1000)/100;
  2486  0F17  3064               	movlw	100
  2487  0F18  00F6               	movwf	___lwdiv@divisor
  2488  0F19  3000               	movlw	0
  2489  0F1A  00F7               	movwf	___lwdiv@divisor+1
  2490  0F1B  0821               	movf	atualizaDisplay@tempSet+1,w
  2491  0F1C  00F3               	movwf	___lwmod@dividend+1
  2492  0F1D  0820               	movf	atualizaDisplay@tempSet,w
  2493  0F1E  00F2               	movwf	___lwmod@dividend
  2494  0F1F  30E8               	movlw	232
  2495  0F20  00F0               	movwf	___lwmod@divisor
  2496  0F21  3003               	movlw	3
  2497  0F22  00F1               	movwf	___lwmod@divisor+1
  2498  0F23  120A  158A  22EA  120A  158A  	fcall	___lwmod
  2499  0F28  0871               	movf	?___lwmod+1,w
  2500  0F29  00F9               	movwf	___lwdiv@dividend+1
  2501  0F2A  0870               	movf	?___lwmod,w
  2502  0F2B  00F8               	movwf	___lwdiv@dividend
  2503  0F2C  120A  158A  2365  120A  158A  	fcall	___lwdiv
  2504  0F31  0877               	movf	?___lwdiv+1,w
  2505  0F32  1283               	bcf	3,5	;RP0=0, select bank0
  2506  0F33  1303               	bcf	3,6	;RP1=0, select bank0
  2507  0F34  00A7               	movwf	atualizaDisplay@centena+1
  2508  0F35  0876               	movf	?___lwdiv,w
  2509  0F36  00A6               	movwf	atualizaDisplay@centena
  2510                           
  2511                           ;main.c: 45:     int dezena = ((tempSet%1000)%100)/10;
  2512  0F37  0821               	movf	atualizaDisplay@tempSet+1,w
  2513  0F38  00F3               	movwf	___lwmod@dividend+1
  2514  0F39  0820               	movf	atualizaDisplay@tempSet,w
  2515  0F3A  00F2               	movwf	___lwmod@dividend
  2516  0F3B  30E8               	movlw	232
  2517  0F3C  00F0               	movwf	___lwmod@divisor
  2518  0F3D  3003               	movlw	3
  2519  0F3E  00F1               	movwf	___lwmod@divisor+1
  2520  0F3F  120A  158A  22EA  120A  158A  	fcall	___lwmod
  2521  0F44  0871               	movf	?___lwmod+1,w
  2522  0F45  1283               	bcf	3,5	;RP0=0, select bank0
  2523  0F46  1303               	bcf	3,6	;RP1=0, select bank0
  2524  0F47  00AF               	movwf	_atualizaDisplay$820+1
  2525  0F48  0870               	movf	?___lwmod,w
  2526  0F49  00AE               	movwf	_atualizaDisplay$820
  2527                           
  2528                           ;main.c: 45:     int dezena = ((tempSet%1000)%100)/10;
  2529  0F4A  300A               	movlw	10
  2530  0F4B  00F6               	movwf	___lwdiv@divisor
  2531  0F4C  3000               	movlw	0
  2532  0F4D  00F7               	movwf	___lwdiv@divisor+1
  2533  0F4E  082F               	movf	_atualizaDisplay$820+1,w
  2534  0F4F  00F3               	movwf	___lwmod@dividend+1
  2535  0F50  082E               	movf	_atualizaDisplay$820,w
  2536  0F51  00F2               	movwf	___lwmod@dividend
  2537  0F52  3064               	movlw	100
  2538  0F53  00F0               	movwf	___lwmod@divisor
  2539  0F54  3000               	movlw	0
  2540  0F55  00F1               	movwf	___lwmod@divisor+1
  2541  0F56  120A  158A  22EA  120A  158A  	fcall	___lwmod
  2542  0F5B  0871               	movf	?___lwmod+1,w
  2543  0F5C  00F9               	movwf	___lwdiv@dividend+1
  2544  0F5D  0870               	movf	?___lwmod,w
  2545  0F5E  00F8               	movwf	___lwdiv@dividend
  2546  0F5F  120A  158A  2365  120A  158A  	fcall	___lwdiv
  2547  0F64  0877               	movf	?___lwdiv+1,w
  2548  0F65  1283               	bcf	3,5	;RP0=0, select bank0
  2549  0F66  1303               	bcf	3,6	;RP1=0, select bank0
  2550  0F67  00A9               	movwf	atualizaDisplay@dezena+1
  2551  0F68  0876               	movf	?___lwdiv,w
  2552  0F69  00A8               	movwf	atualizaDisplay@dezena
  2553                           
  2554                           ;main.c: 46:     int unidade = ((tempSet%1000)%100)%10;
  2555  0F6A  0821               	movf	atualizaDisplay@tempSet+1,w
  2556  0F6B  00F3               	movwf	___lwmod@dividend+1
  2557  0F6C  0820               	movf	atualizaDisplay@tempSet,w
  2558  0F6D  00F2               	movwf	___lwmod@dividend
  2559  0F6E  30E8               	movlw	232
  2560  0F6F  00F0               	movwf	___lwmod@divisor
  2561  0F70  3003               	movlw	3
  2562  0F71  00F1               	movwf	___lwmod@divisor+1
  2563  0F72  120A  158A  22EA  120A  158A  	fcall	___lwmod
  2564  0F77  0871               	movf	?___lwmod+1,w
  2565  0F78  1283               	bcf	3,5	;RP0=0, select bank0
  2566  0F79  1303               	bcf	3,6	;RP1=0, select bank0
  2567  0F7A  00AF               	movwf	_atualizaDisplay$820+1
  2568  0F7B  0870               	movf	?___lwmod,w
  2569  0F7C  00AE               	movwf	_atualizaDisplay$820
  2570                           
  2571                           ;main.c: 46:     int unidade = ((tempSet%1000)%100)%10;
  2572  0F7D  082F               	movf	_atualizaDisplay$820+1,w
  2573  0F7E  00F3               	movwf	___lwmod@dividend+1
  2574  0F7F  082E               	movf	_atualizaDisplay$820,w
  2575  0F80  00F2               	movwf	___lwmod@dividend
  2576  0F81  3064               	movlw	100
  2577  0F82  00F0               	movwf	___lwmod@divisor
  2578  0F83  3000               	movlw	0
  2579  0F84  00F1               	movwf	___lwmod@divisor+1
  2580  0F85  120A  158A  22EA  120A  158A  	fcall	___lwmod
  2581  0F8A  0871               	movf	?___lwmod+1,w
  2582  0F8B  1283               	bcf	3,5	;RP0=0, select bank0
  2583  0F8C  1303               	bcf	3,6	;RP1=0, select bank0
  2584  0F8D  00AD               	movwf	_atualizaDisplay$821+1
  2585  0F8E  0870               	movf	?___lwmod,w
  2586  0F8F  00AC               	movwf	_atualizaDisplay$821
  2587                           
  2588                           ;main.c: 46:     int unidade = ((tempSet%1000)%100)%10;
  2589  0F90  300A               	movlw	10
  2590  0F91  00F0               	movwf	___lwmod@divisor
  2591  0F92  3000               	movlw	0
  2592  0F93  00F1               	movwf	___lwmod@divisor+1
  2593  0F94  082D               	movf	_atualizaDisplay$821+1,w
  2594  0F95  00F3               	movwf	___lwmod@dividend+1
  2595  0F96  082C               	movf	_atualizaDisplay$821,w
  2596  0F97  00F2               	movwf	___lwmod@dividend
  2597  0F98  120A  158A  22EA  120A  158A  	fcall	___lwmod
  2598  0F9D  0871               	movf	?___lwmod+1,w
  2599  0F9E  1283               	bcf	3,5	;RP0=0, select bank0
  2600  0F9F  1303               	bcf	3,6	;RP1=0, select bank0
  2601  0FA0  00AB               	movwf	atualizaDisplay@unidade+1
  2602  0FA1  0870               	movf	?___lwmod,w
  2603  0FA2  00AA               	movwf	atualizaDisplay@unidade
  2604  0FA3                     l2120:
  2605                           
  2606                           ;main.c: 47:     PORTD = digito[milhar];
  2607  0FA3  0824               	movf	atualizaDisplay@milhar,w
  2608  0FA4  3E01               	addlw	low ((_digito-__stringbase)| (0+32768))
  2609  0FA5  0084               	movwf	4
  2610  0FA6  120A  158A  2000  120A  158A  	fcall	stringdir
  2611  0FAB  0088               	movwf	8	;volatile
  2612  0FAC                     l2122:
  2613                           
  2614                           ;main.c: 48:     RB7 = 1;
  2615  0FAC  1786               	bsf	6,7	;volatile
  2616  0FAD                     l2124:
  2617                           
  2618                           ;main.c: 49:     _delay((unsigned long)((10)*(4000000/4000.0)));
  2619  0FAD  300D               	movlw	13
  2620  0FAE  1283               	bcf	3,5	;RP0=0, select bank0
  2621  0FAF  1303               	bcf	3,6	;RP1=0, select bank0
  2622  0FB0  00A3               	movwf	??_atualizaDisplay+1
  2623  0FB1  30FB               	movlw	251
  2624  0FB2  00A2               	movwf	??_atualizaDisplay
  2625  0FB3                     u3157:
  2626  0FB3  0BA2               	decfsz	??_atualizaDisplay,f
  2627  0FB4  2FB3               	goto	u3157
  2628  0FB5  0BA3               	decfsz	??_atualizaDisplay+1,f
  2629  0FB6  2FB3               	goto	u3157
  2630  0FB7                     l2126:
  2631                           
  2632                           ;main.c: 50:     RB7 = 0;
  2633  0FB7  1283               	bcf	3,5	;RP0=0, select bank0
  2634  0FB8  1303               	bcf	3,6	;RP1=0, select bank0
  2635  0FB9  1386               	bcf	6,7	;volatile
  2636  0FBA                     l2128:
  2637                           
  2638                           ;main.c: 51:     PORTD = digito[centena];
  2639  0FBA  0826               	movf	atualizaDisplay@centena,w
  2640  0FBB  3E01               	addlw	low ((_digito-__stringbase)| (0+32768))
  2641  0FBC  0084               	movwf	4
  2642  0FBD  120A  158A  2000  120A  158A  	fcall	stringdir
  2643  0FC2  0088               	movwf	8	;volatile
  2644  0FC3                     l2130:
  2645                           
  2646                           ;main.c: 52:     RB6 = 1;
  2647  0FC3  1706               	bsf	6,6	;volatile
  2648  0FC4                     l2132:
  2649                           
  2650                           ;main.c: 53:     _delay((unsigned long)((10)*(4000000/4000.0)));
  2651  0FC4  300D               	movlw	13
  2652  0FC5  1283               	bcf	3,5	;RP0=0, select bank0
  2653  0FC6  1303               	bcf	3,6	;RP1=0, select bank0
  2654  0FC7  00A3               	movwf	??_atualizaDisplay+1
  2655  0FC8  30FB               	movlw	251
  2656  0FC9  00A2               	movwf	??_atualizaDisplay
  2657  0FCA                     u3167:
  2658  0FCA  0BA2               	decfsz	??_atualizaDisplay,f
  2659  0FCB  2FCA               	goto	u3167
  2660  0FCC  0BA3               	decfsz	??_atualizaDisplay+1,f
  2661  0FCD  2FCA               	goto	u3167
  2662  0FCE                     l2134:
  2663                           
  2664                           ;main.c: 54:     RB6 = 0;
  2665  0FCE  1283               	bcf	3,5	;RP0=0, select bank0
  2666  0FCF  1303               	bcf	3,6	;RP1=0, select bank0
  2667  0FD0  1306               	bcf	6,6	;volatile
  2668  0FD1                     l2136:
  2669                           
  2670                           ;main.c: 55:     PORTD = digito[dezena];
  2671  0FD1  0828               	movf	atualizaDisplay@dezena,w
  2672  0FD2  3E01               	addlw	low ((_digito-__stringbase)| (0+32768))
  2673  0FD3  0084               	movwf	4
  2674  0FD4  120A  158A  2000  120A  158A  	fcall	stringdir
  2675  0FD9  0088               	movwf	8	;volatile
  2676  0FDA                     l2138:
  2677                           
  2678                           ;main.c: 56:     RB5 = 1;
  2679  0FDA  1686               	bsf	6,5	;volatile
  2680  0FDB                     l2140:
  2681                           
  2682                           ;main.c: 57:     _delay((unsigned long)((10)*(4000000/4000.0)));
  2683  0FDB  300D               	movlw	13
  2684  0FDC  1283               	bcf	3,5	;RP0=0, select bank0
  2685  0FDD  1303               	bcf	3,6	;RP1=0, select bank0
  2686  0FDE  00A3               	movwf	??_atualizaDisplay+1
  2687  0FDF  30FB               	movlw	251
  2688  0FE0  00A2               	movwf	??_atualizaDisplay
  2689  0FE1                     u3177:
  2690  0FE1  0BA2               	decfsz	??_atualizaDisplay,f
  2691  0FE2  2FE1               	goto	u3177
  2692  0FE3  0BA3               	decfsz	??_atualizaDisplay+1,f
  2693  0FE4  2FE1               	goto	u3177
  2694  0FE5                     l2142:
  2695                           
  2696                           ;main.c: 58:     RB5 = 0;
  2697  0FE5  1283               	bcf	3,5	;RP0=0, select bank0
  2698  0FE6  1303               	bcf	3,6	;RP1=0, select bank0
  2699  0FE7  1286               	bcf	6,5	;volatile
  2700  0FE8                     l2144:
  2701                           
  2702                           ;main.c: 59:     PORTD = digito[unidade];
  2703  0FE8  082A               	movf	atualizaDisplay@unidade,w
  2704  0FE9  3E01               	addlw	low ((_digito-__stringbase)| (0+32768))
  2705  0FEA  0084               	movwf	4
  2706  0FEB  120A  158A  2000  120A  158A  	fcall	stringdir
  2707  0FF0  0088               	movwf	8	;volatile
  2708  0FF1                     l2146:
  2709                           
  2710                           ;main.c: 60:     RB4 = 1;
  2711  0FF1  1606               	bsf	6,4	;volatile
  2712  0FF2                     l2148:
  2713                           
  2714                           ;main.c: 61:     _delay((unsigned long)((10)*(4000000/4000.0)));
  2715  0FF2  300D               	movlw	13
  2716  0FF3  1283               	bcf	3,5	;RP0=0, select bank0
  2717  0FF4  1303               	bcf	3,6	;RP1=0, select bank0
  2718  0FF5  00A3               	movwf	??_atualizaDisplay+1
  2719  0FF6  30FB               	movlw	251
  2720  0FF7  00A2               	movwf	??_atualizaDisplay
  2721  0FF8                     u3187:
  2722  0FF8  0BA2               	decfsz	??_atualizaDisplay,f
  2723  0FF9  2FF8               	goto	u3187
  2724  0FFA  0BA3               	decfsz	??_atualizaDisplay+1,f
  2725  0FFB  2FF8               	goto	u3187
  2726  0FFC                     l2150:
  2727                           
  2728                           ;main.c: 62:     RB4 = 0;
  2729  0FFC  1283               	bcf	3,5	;RP0=0, select bank0
  2730  0FFD  1303               	bcf	3,6	;RP1=0, select bank0
  2731  0FFE  1206               	bcf	6,4	;volatile
  2732  0FFF                     l142:
  2733  0FFF  0008               	return
  2734  1000                     __end_of_atualizaDisplay:
  2735                           
  2736                           	psect	text12
  2737  0AEA                     __ptext12:	
  2738 ;; *************** function ___lwmod *****************
  2739 ;; Defined at:
  2740 ;;		line 5 in file "C:\Program Files\Microchip\xc8\v2.32\pic\sources\c90\common\lwmod.c"
  2741 ;; Parameters:    Size  Location     Type
  2742 ;;  divisor         2    0[COMMON] unsigned int 
  2743 ;;  dividend        2    2[COMMON] unsigned int 
  2744 ;; Auto vars:     Size  Location     Type
  2745 ;;  counter         1    5[COMMON] unsigned char 
  2746 ;; Return value:  Size  Location     Type
  2747 ;;                  2    0[COMMON] unsigned int 
  2748 ;; Registers used:
  2749 ;;		wreg, status,2, status,0
  2750 ;; Tracked objects:
  2751 ;;		On entry : 0/0
  2752 ;;		On exit  : 0/0
  2753 ;;		Unchanged: 0/0
  2754 ;; Data sizes:     COMMON   BANK0   BANK1   BANK3   BANK2
  2755 ;;      Params:         4       0       0       0       0
  2756 ;;      Locals:         1       0       0       0       0
  2757 ;;      Temps:          1       0       0       0       0
  2758 ;;      Totals:         6       0       0       0       0
  2759 ;;Total ram usage:        6 bytes
  2760 ;; Hardware stack levels used: 1
  2761 ;; This function calls:
  2762 ;;		Nothing
  2763 ;; This function is called by:
  2764 ;;		_atualizaDisplay
  2765 ;; This function uses a non-reentrant model
  2766 ;;
  2767                           
  2768                           
  2769                           ;psect for function ___lwmod
  2770  0AEA                     ___lwmod:
  2771  0AEA                     l1724:	
  2772                           ;incstack = 0
  2773                           ; Regs used in ___lwmod: [wreg+status,2+status,0]
  2774                           
  2775  0AEA  0870               	movf	___lwmod@divisor,w
  2776  0AEB  0471               	iorwf	___lwmod@divisor+1,w
  2777  0AEC  1903               	btfsc	3,2
  2778  0AED  2AEF               	goto	u1921
  2779  0AEE  2AF0               	goto	u1920
  2780  0AEF                     u1921:
  2781  0AEF  2B1F               	goto	l1742
  2782  0AF0                     u1920:
  2783  0AF0                     l1726:
  2784  0AF0  01F5               	clrf	___lwmod@counter
  2785  0AF1  0AF5               	incf	___lwmod@counter,f
  2786  0AF2  2AFE               	goto	l1732
  2787  0AF3                     l1728:
  2788  0AF3  3001               	movlw	1
  2789  0AF4                     u1935:
  2790  0AF4  1003               	clrc
  2791  0AF5  0DF0               	rlf	___lwmod@divisor,f
  2792  0AF6  0DF1               	rlf	___lwmod@divisor+1,f
  2793  0AF7  3EFF               	addlw	-1
  2794  0AF8  1D03               	skipz
  2795  0AF9  2AF4               	goto	u1935
  2796  0AFA                     l1730:
  2797  0AFA  3001               	movlw	1
  2798  0AFB  00F4               	movwf	??___lwmod
  2799  0AFC  0874               	movf	??___lwmod,w
  2800  0AFD  07F5               	addwf	___lwmod@counter,f
  2801  0AFE                     l1732:
  2802  0AFE  1FF1               	btfss	___lwmod@divisor+1,7
  2803  0AFF  2B01               	goto	u1941
  2804  0B00  2B02               	goto	u1940
  2805  0B01                     u1941:
  2806  0B01  2AF3               	goto	l1728
  2807  0B02                     u1940:
  2808  0B02                     l1734:
  2809  0B02  0871               	movf	___lwmod@divisor+1,w
  2810  0B03  0273               	subwf	___lwmod@dividend+1,w
  2811  0B04  1D03               	skipz
  2812  0B05  2B08               	goto	u1955
  2813  0B06  0870               	movf	___lwmod@divisor,w
  2814  0B07  0272               	subwf	___lwmod@dividend,w
  2815  0B08                     u1955:
  2816  0B08  1C03               	skipc
  2817  0B09  2B0B               	goto	u1951
  2818  0B0A  2B0C               	goto	u1950
  2819  0B0B                     u1951:
  2820  0B0B  2B12               	goto	l1738
  2821  0B0C                     u1950:
  2822  0B0C                     l1736:
  2823  0B0C  0870               	movf	___lwmod@divisor,w
  2824  0B0D  02F2               	subwf	___lwmod@dividend,f
  2825  0B0E  0871               	movf	___lwmod@divisor+1,w
  2826  0B0F  1C03               	skipc
  2827  0B10  03F3               	decf	___lwmod@dividend+1,f
  2828  0B11  02F3               	subwf	___lwmod@dividend+1,f
  2829  0B12                     l1738:
  2830  0B12  3001               	movlw	1
  2831  0B13                     u1965:
  2832  0B13  1003               	clrc
  2833  0B14  0CF1               	rrf	___lwmod@divisor+1,f
  2834  0B15  0CF0               	rrf	___lwmod@divisor,f
  2835  0B16  3EFF               	addlw	-1
  2836  0B17  1D03               	skipz
  2837  0B18  2B13               	goto	u1965
  2838  0B19                     l1740:
  2839  0B19  3001               	movlw	1
  2840  0B1A  02F5               	subwf	___lwmod@counter,f
  2841  0B1B  1D03               	btfss	3,2
  2842  0B1C  2B1E               	goto	u1971
  2843  0B1D  2B1F               	goto	u1970
  2844  0B1E                     u1971:
  2845  0B1E  2B02               	goto	l1734
  2846  0B1F                     u1970:
  2847  0B1F                     l1742:
  2848  0B1F  0873               	movf	___lwmod@dividend+1,w
  2849  0B20  00F1               	movwf	?___lwmod+1
  2850  0B21  0872               	movf	___lwmod@dividend,w
  2851  0B22  00F0               	movwf	?___lwmod
  2852  0B23                     l582:
  2853  0B23  0008               	return
  2854  0B24                     __end_of___lwmod:
  2855                           
  2856                           	psect	text13
  2857  0B65                     __ptext13:	
  2858 ;; *************** function ___lwdiv *****************
  2859 ;; Defined at:
  2860 ;;		line 5 in file "C:\Program Files\Microchip\xc8\v2.32\pic\sources\c90\common\lwdiv.c"
  2861 ;; Parameters:    Size  Location     Type
  2862 ;;  divisor         2    6[COMMON] unsigned int 
  2863 ;;  dividend        2    8[COMMON] unsigned int 
  2864 ;; Auto vars:     Size  Location     Type
  2865 ;;  quotient        2   11[COMMON] unsigned int 
  2866 ;;  counter         1   13[COMMON] unsigned char 
  2867 ;; Return value:  Size  Location     Type
  2868 ;;                  2    6[COMMON] unsigned int 
  2869 ;; Registers used:
  2870 ;;		wreg, status,2, status,0
  2871 ;; Tracked objects:
  2872 ;;		On entry : 0/0
  2873 ;;		On exit  : 0/0
  2874 ;;		Unchanged: 0/0
  2875 ;; Data sizes:     COMMON   BANK0   BANK1   BANK3   BANK2
  2876 ;;      Params:         4       0       0       0       0
  2877 ;;      Locals:         3       0       0       0       0
  2878 ;;      Temps:          1       0       0       0       0
  2879 ;;      Totals:         8       0       0       0       0
  2880 ;;Total ram usage:        8 bytes
  2881 ;; Hardware stack levels used: 1
  2882 ;; This function calls:
  2883 ;;		Nothing
  2884 ;; This function is called by:
  2885 ;;		_atualizaDisplay
  2886 ;; This function uses a non-reentrant model
  2887 ;;
  2888                           
  2889                           
  2890                           ;psect for function ___lwdiv
  2891  0B65                     ___lwdiv:
  2892  0B65                     l1698:	
  2893                           ;incstack = 0
  2894                           ; Regs used in ___lwdiv: [wreg+status,2+status,0]
  2895                           
  2896  0B65  01FB               	clrf	___lwdiv@quotient
  2897  0B66  01FC               	clrf	___lwdiv@quotient+1
  2898  0B67                     l1700:
  2899  0B67  0876               	movf	___lwdiv@divisor,w
  2900  0B68  0477               	iorwf	___lwdiv@divisor+1,w
  2901  0B69  1903               	btfsc	3,2
  2902  0B6A  2B6C               	goto	u1851
  2903  0B6B  2B6D               	goto	u1850
  2904  0B6C                     u1851:
  2905  0B6C  2BA4               	goto	l1720
  2906  0B6D                     u1850:
  2907  0B6D                     l1702:
  2908  0B6D  01FD               	clrf	___lwdiv@counter
  2909  0B6E  0AFD               	incf	___lwdiv@counter,f
  2910  0B6F  2B7B               	goto	l1708
  2911  0B70                     l1704:
  2912  0B70  3001               	movlw	1
  2913  0B71                     u1865:
  2914  0B71  1003               	clrc
  2915  0B72  0DF6               	rlf	___lwdiv@divisor,f
  2916  0B73  0DF7               	rlf	___lwdiv@divisor+1,f
  2917  0B74  3EFF               	addlw	-1
  2918  0B75  1D03               	skipz
  2919  0B76  2B71               	goto	u1865
  2920  0B77                     l1706:
  2921  0B77  3001               	movlw	1
  2922  0B78  00FA               	movwf	??___lwdiv
  2923  0B79  087A               	movf	??___lwdiv,w
  2924  0B7A  07FD               	addwf	___lwdiv@counter,f
  2925  0B7B                     l1708:
  2926  0B7B  1FF7               	btfss	___lwdiv@divisor+1,7
  2927  0B7C  2B7E               	goto	u1871
  2928  0B7D  2B7F               	goto	u1870
  2929  0B7E                     u1871:
  2930  0B7E  2B70               	goto	l1704
  2931  0B7F                     u1870:
  2932  0B7F                     l1710:
  2933  0B7F  3001               	movlw	1
  2934  0B80                     u1885:
  2935  0B80  1003               	clrc
  2936  0B81  0DFB               	rlf	___lwdiv@quotient,f
  2937  0B82  0DFC               	rlf	___lwdiv@quotient+1,f
  2938  0B83  3EFF               	addlw	-1
  2939  0B84  1D03               	skipz
  2940  0B85  2B80               	goto	u1885
  2941  0B86  0877               	movf	___lwdiv@divisor+1,w
  2942  0B87  0279               	subwf	___lwdiv@dividend+1,w
  2943  0B88  1D03               	skipz
  2944  0B89  2B8C               	goto	u1895
  2945  0B8A  0876               	movf	___lwdiv@divisor,w
  2946  0B8B  0278               	subwf	___lwdiv@dividend,w
  2947  0B8C                     u1895:
  2948  0B8C  1C03               	skipc
  2949  0B8D  2B8F               	goto	u1891
  2950  0B8E  2B90               	goto	u1890
  2951  0B8F                     u1891:
  2952  0B8F  2B97               	goto	l1716
  2953  0B90                     u1890:
  2954  0B90                     l1712:
  2955  0B90  0876               	movf	___lwdiv@divisor,w
  2956  0B91  02F8               	subwf	___lwdiv@dividend,f
  2957  0B92  0877               	movf	___lwdiv@divisor+1,w
  2958  0B93  1C03               	skipc
  2959  0B94  03F9               	decf	___lwdiv@dividend+1,f
  2960  0B95  02F9               	subwf	___lwdiv@dividend+1,f
  2961  0B96                     l1714:
  2962  0B96  147B               	bsf	___lwdiv@quotient,0
  2963  0B97                     l1716:
  2964  0B97  3001               	movlw	1
  2965  0B98                     u1905:
  2966  0B98  1003               	clrc
  2967  0B99  0CF7               	rrf	___lwdiv@divisor+1,f
  2968  0B9A  0CF6               	rrf	___lwdiv@divisor,f
  2969  0B9B  3EFF               	addlw	-1
  2970  0B9C  1D03               	skipz
  2971  0B9D  2B98               	goto	u1905
  2972  0B9E                     l1718:
  2973  0B9E  3001               	movlw	1
  2974  0B9F  02FD               	subwf	___lwdiv@counter,f
  2975  0BA0  1D03               	btfss	3,2
  2976  0BA1  2BA3               	goto	u1911
  2977  0BA2  2BA4               	goto	u1910
  2978  0BA3                     u1911:
  2979  0BA3  2B7F               	goto	l1710
  2980  0BA4                     u1910:
  2981  0BA4                     l1720:
  2982  0BA4  087C               	movf	___lwdiv@quotient+1,w
  2983  0BA5  00F7               	movwf	?___lwdiv+1
  2984  0BA6  087B               	movf	___lwdiv@quotient,w
  2985  0BA7  00F6               	movwf	?___lwdiv
  2986  0BA8                     l572:
  2987  0BA8  0008               	return
  2988  0BA9                     __end_of___lwdiv:
  2989                           
  2990                           	psect	text14
  2991  09FD                     __ptext14:	
  2992 ;; *************** function ___wmul *****************
  2993 ;; Defined at:
  2994 ;;		line 15 in file "C:\Program Files\Microchip\xc8\v2.32\pic\sources\c90\common\Umul16.c"
  2995 ;; Parameters:    Size  Location     Type
  2996 ;;  multiplier      2    5[COMMON] unsigned int 
  2997 ;;  multiplicand    2    7[COMMON] unsigned int 
  2998 ;; Auto vars:     Size  Location     Type
  2999 ;;  product         2    9[COMMON] unsigned int 
  3000 ;; Return value:  Size  Location     Type
  3001 ;;                  2    5[COMMON] unsigned int 
  3002 ;; Registers used:
  3003 ;;		wreg, status,2, status,0
  3004 ;; Tracked objects:
  3005 ;;		On entry : 0/0
  3006 ;;		On exit  : 0/0
  3007 ;;		Unchanged: 0/0
  3008 ;; Data sizes:     COMMON   BANK0   BANK1   BANK3   BANK2
  3009 ;;      Params:         4       0       0       0       0
  3010 ;;      Locals:         2       0       0       0       0
  3011 ;;      Temps:          0       0       0       0       0
  3012 ;;      Totals:         6       0       0       0       0
  3013 ;;Total ram usage:        6 bytes
  3014 ;; Hardware stack levels used: 1
  3015 ;; This function calls:
  3016 ;;		Nothing
  3017 ;; This function is called by:
  3018 ;;		_main
  3019 ;; This function uses a non-reentrant model
  3020 ;;
  3021                           
  3022                           
  3023                           ;psect for function ___wmul
  3024  09FD                     ___wmul:
  3025  09FD                     l2214:	
  3026                           ;incstack = 0
  3027                           ; Regs used in ___wmul: [wreg+status,2+status,0]
  3028                           
  3029  09FD  01F9               	clrf	___wmul@product
  3030  09FE  01FA               	clrf	___wmul@product+1
  3031  09FF                     l2216:
  3032  09FF  1C75               	btfss	___wmul@multiplier,0
  3033  0A00  2A02               	goto	u3011
  3034  0A01  2A03               	goto	u3010
  3035  0A02                     u3011:
  3036  0A02  2A09               	goto	l300
  3037  0A03                     u3010:
  3038  0A03                     l2218:
  3039  0A03  0877               	movf	___wmul@multiplicand,w
  3040  0A04  07F9               	addwf	___wmul@product,f
  3041  0A05  1803               	skipnc
  3042  0A06  0AFA               	incf	___wmul@product+1,f
  3043  0A07  0878               	movf	___wmul@multiplicand+1,w
  3044  0A08  07FA               	addwf	___wmul@product+1,f
  3045  0A09                     l300:
  3046  0A09  3001               	movlw	1
  3047  0A0A                     u3025:
  3048  0A0A  1003               	clrc
  3049  0A0B  0DF7               	rlf	___wmul@multiplicand,f
  3050  0A0C  0DF8               	rlf	___wmul@multiplicand+1,f
  3051  0A0D  3EFF               	addlw	-1
  3052  0A0E  1D03               	skipz
  3053  0A0F  2A0A               	goto	u3025
  3054  0A10                     l2220:
  3055  0A10  3001               	movlw	1
  3056  0A11                     u3035:
  3057  0A11  1003               	clrc
  3058  0A12  0CF6               	rrf	___wmul@multiplier+1,f
  3059  0A13  0CF5               	rrf	___wmul@multiplier,f
  3060  0A14  3EFF               	addlw	-1
  3061  0A15  1D03               	skipz
  3062  0A16  2A11               	goto	u3035
  3063  0A17                     l2222:
  3064  0A17  0875               	movf	___wmul@multiplier,w
  3065  0A18  0476               	iorwf	___wmul@multiplier+1,w
  3066  0A19  1D03               	btfss	3,2
  3067  0A1A  2A1C               	goto	u3041
  3068  0A1B  2A1D               	goto	u3040
  3069  0A1C                     u3041:
  3070  0A1C  29FF               	goto	l2216
  3071  0A1D                     u3040:
  3072  0A1D                     l2224:
  3073  0A1D  087A               	movf	___wmul@product+1,w
  3074  0A1E  00F6               	movwf	?___wmul+1
  3075  0A1F  0879               	movf	___wmul@product,w
  3076  0A20  00F5               	movwf	?___wmul
  3077  0A21                     l302:
  3078  0A21  0008               	return
  3079  0A22                     __end_of___wmul:
  3080                           
  3081                           	psect	text15
  3082  0BFE                     __ptext15:	
  3083 ;; *************** function ___awdiv *****************
  3084 ;; Defined at:
  3085 ;;		line 5 in file "C:\Program Files\Microchip\xc8\v2.32\pic\sources\c90\common\awdiv.c"
  3086 ;; Parameters:    Size  Location     Type
  3087 ;;  divisor         2    0[COMMON] int 
  3088 ;;  dividend        2    2[COMMON] int 
  3089 ;; Auto vars:     Size  Location     Type
  3090 ;;  quotient        2    7[COMMON] int 
  3091 ;;  sign            1    6[COMMON] unsigned char 
  3092 ;;  counter         1    5[COMMON] unsigned char 
  3093 ;; Return value:  Size  Location     Type
  3094 ;;                  2    0[COMMON] int 
  3095 ;; Registers used:
  3096 ;;		wreg, status,2, status,0
  3097 ;; Tracked objects:
  3098 ;;		On entry : 0/0
  3099 ;;		On exit  : 0/0
  3100 ;;		Unchanged: 0/0
  3101 ;; Data sizes:     COMMON   BANK0   BANK1   BANK3   BANK2
  3102 ;;      Params:         4       0       0       0       0
  3103 ;;      Locals:         4       0       0       0       0
  3104 ;;      Temps:          1       0       0       0       0
  3105 ;;      Totals:         9       0       0       0       0
  3106 ;;Total ram usage:        9 bytes
  3107 ;; Hardware stack levels used: 1
  3108 ;; This function calls:
  3109 ;;		Nothing
  3110 ;; This function is called by:
  3111 ;;		_main
  3112 ;; This function uses a non-reentrant model
  3113 ;;
  3114                           
  3115                           
  3116                           ;psect for function ___awdiv
  3117  0BFE                     ___awdiv:
  3118  0BFE                     l2228:	
  3119                           ;incstack = 0
  3120                           ; Regs used in ___awdiv: [wreg+status,2+status,0]
  3121                           
  3122  0BFE  01F6               	clrf	___awdiv@sign
  3123  0BFF                     l2230:
  3124  0BFF  1FF1               	btfss	___awdiv@divisor+1,7
  3125  0C00  2C02               	goto	u3051
  3126  0C01  2C03               	goto	u3050
  3127  0C02                     u3051:
  3128  0C02  2C0A               	goto	l2236
  3129  0C03                     u3050:
  3130  0C03                     l2232:
  3131  0C03  09F0               	comf	___awdiv@divisor,f
  3132  0C04  09F1               	comf	___awdiv@divisor+1,f
  3133  0C05  0AF0               	incf	___awdiv@divisor,f
  3134  0C06  1903               	skipnz
  3135  0C07  0AF1               	incf	___awdiv@divisor+1,f
  3136  0C08                     l2234:
  3137  0C08  01F6               	clrf	___awdiv@sign
  3138  0C09  0AF6               	incf	___awdiv@sign,f
  3139  0C0A                     l2236:
  3140  0C0A  1FF3               	btfss	___awdiv@dividend+1,7
  3141  0C0B  2C0D               	goto	u3061
  3142  0C0C  2C0E               	goto	u3060
  3143  0C0D                     u3061:
  3144  0C0D  2C17               	goto	l2242
  3145  0C0E                     u3060:
  3146  0C0E                     l2238:
  3147  0C0E  09F2               	comf	___awdiv@dividend,f
  3148  0C0F  09F3               	comf	___awdiv@dividend+1,f
  3149  0C10  0AF2               	incf	___awdiv@dividend,f
  3150  0C11  1903               	skipnz
  3151  0C12  0AF3               	incf	___awdiv@dividend+1,f
  3152  0C13                     l2240:
  3153  0C13  3001               	movlw	1
  3154  0C14  00F4               	movwf	??___awdiv
  3155  0C15  0874               	movf	??___awdiv,w
  3156  0C16  06F6               	xorwf	___awdiv@sign,f
  3157  0C17                     l2242:
  3158  0C17  01F7               	clrf	___awdiv@quotient
  3159  0C18  01F8               	clrf	___awdiv@quotient+1
  3160  0C19                     l2244:
  3161  0C19  0870               	movf	___awdiv@divisor,w
  3162  0C1A  0471               	iorwf	___awdiv@divisor+1,w
  3163  0C1B  1903               	btfsc	3,2
  3164  0C1C  2C1E               	goto	u3071
  3165  0C1D  2C1F               	goto	u3070
  3166  0C1E                     u3071:
  3167  0C1E  2C56               	goto	l2264
  3168  0C1F                     u3070:
  3169  0C1F                     l2246:
  3170  0C1F  01F5               	clrf	___awdiv@counter
  3171  0C20  0AF5               	incf	___awdiv@counter,f
  3172  0C21  2C2D               	goto	l2252
  3173  0C22                     l2248:
  3174  0C22  3001               	movlw	1
  3175  0C23                     u3085:
  3176  0C23  1003               	clrc
  3177  0C24  0DF0               	rlf	___awdiv@divisor,f
  3178  0C25  0DF1               	rlf	___awdiv@divisor+1,f
  3179  0C26  3EFF               	addlw	-1
  3180  0C27  1D03               	skipz
  3181  0C28  2C23               	goto	u3085
  3182  0C29                     l2250:
  3183  0C29  3001               	movlw	1
  3184  0C2A  00F4               	movwf	??___awdiv
  3185  0C2B  0874               	movf	??___awdiv,w
  3186  0C2C  07F5               	addwf	___awdiv@counter,f
  3187  0C2D                     l2252:
  3188  0C2D  1FF1               	btfss	___awdiv@divisor+1,7
  3189  0C2E  2C30               	goto	u3091
  3190  0C2F  2C31               	goto	u3090
  3191  0C30                     u3091:
  3192  0C30  2C22               	goto	l2248
  3193  0C31                     u3090:
  3194  0C31                     l2254:
  3195  0C31  3001               	movlw	1
  3196  0C32                     u3105:
  3197  0C32  1003               	clrc
  3198  0C33  0DF7               	rlf	___awdiv@quotient,f
  3199  0C34  0DF8               	rlf	___awdiv@quotient+1,f
  3200  0C35  3EFF               	addlw	-1
  3201  0C36  1D03               	skipz
  3202  0C37  2C32               	goto	u3105
  3203  0C38  0871               	movf	___awdiv@divisor+1,w
  3204  0C39  0273               	subwf	___awdiv@dividend+1,w
  3205  0C3A  1D03               	skipz
  3206  0C3B  2C3E               	goto	u3115
  3207  0C3C  0870               	movf	___awdiv@divisor,w
  3208  0C3D  0272               	subwf	___awdiv@dividend,w
  3209  0C3E                     u3115:
  3210  0C3E  1C03               	skipc
  3211  0C3F  2C41               	goto	u3111
  3212  0C40  2C42               	goto	u3110
  3213  0C41                     u3111:
  3214  0C41  2C49               	goto	l2260
  3215  0C42                     u3110:
  3216  0C42                     l2256:
  3217  0C42  0870               	movf	___awdiv@divisor,w
  3218  0C43  02F2               	subwf	___awdiv@dividend,f
  3219  0C44  0871               	movf	___awdiv@divisor+1,w
  3220  0C45  1C03               	skipc
  3221  0C46  03F3               	decf	___awdiv@dividend+1,f
  3222  0C47  02F3               	subwf	___awdiv@dividend+1,f
  3223  0C48                     l2258:
  3224  0C48  1477               	bsf	___awdiv@quotient,0
  3225  0C49                     l2260:
  3226  0C49  3001               	movlw	1
  3227  0C4A                     u3125:
  3228  0C4A  1003               	clrc
  3229  0C4B  0CF1               	rrf	___awdiv@divisor+1,f
  3230  0C4C  0CF0               	rrf	___awdiv@divisor,f
  3231  0C4D  3EFF               	addlw	-1
  3232  0C4E  1D03               	skipz
  3233  0C4F  2C4A               	goto	u3125
  3234  0C50                     l2262:
  3235  0C50  3001               	movlw	1
  3236  0C51  02F5               	subwf	___awdiv@counter,f
  3237  0C52  1D03               	btfss	3,2
  3238  0C53  2C55               	goto	u3131
  3239  0C54  2C56               	goto	u3130
  3240  0C55                     u3131:
  3241  0C55  2C31               	goto	l2254
  3242  0C56                     u3130:
  3243  0C56                     l2264:
  3244  0C56  0876               	movf	___awdiv@sign,w
  3245  0C57  1903               	btfsc	3,2
  3246  0C58  2C5A               	goto	u3141
  3247  0C59  2C5B               	goto	u3140
  3248  0C5A                     u3141:
  3249  0C5A  2C60               	goto	l2268
  3250  0C5B                     u3140:
  3251  0C5B                     l2266:
  3252  0C5B  09F7               	comf	___awdiv@quotient,f
  3253  0C5C  09F8               	comf	___awdiv@quotient+1,f
  3254  0C5D  0AF7               	incf	___awdiv@quotient,f
  3255  0C5E  1903               	skipnz
  3256  0C5F  0AF8               	incf	___awdiv@quotient+1,f
  3257  0C60                     l2268:
  3258  0C60  0878               	movf	___awdiv@quotient+1,w
  3259  0C61  00F1               	movwf	?___awdiv+1
  3260  0C62  0877               	movf	___awdiv@quotient,w
  3261  0C63  00F0               	movwf	?___awdiv
  3262  0C64                     l453:
  3263  0C64  0008               	return
  3264  0C65                     __end_of___awdiv:
  3265                           
  3266                           	psect	text16
  3267  0006                     __ptext16:	
  3268 ;; *************** function _PWM2_Start *****************
  3269 ;; Defined at:
  3270 ;;		line 59 in file "PWM.c"
  3271 ;; Parameters:    Size  Location     Type
  3272 ;;		None
  3273 ;; Auto vars:     Size  Location     Type
  3274 ;;		None
  3275 ;; Return value:  Size  Location     Type
  3276 ;;                  1    wreg      void 
  3277 ;; Registers used:
  3278 ;;		None
  3279 ;; Tracked objects:
  3280 ;;		On entry : 0/0
  3281 ;;		On exit  : 0/0
  3282 ;;		Unchanged: 0/0
  3283 ;; Data sizes:     COMMON   BANK0   BANK1   BANK3   BANK2
  3284 ;;      Params:         0       0       0       0       0
  3285 ;;      Locals:         0       0       0       0       0
  3286 ;;      Temps:          0       0       0       0       0
  3287 ;;      Totals:         0       0       0       0       0
  3288 ;;Total ram usage:        0 bytes
  3289 ;; Hardware stack levels used: 1
  3290 ;; This function calls:
  3291 ;;		Nothing
  3292 ;; This function is called by:
  3293 ;;		_main
  3294 ;; This function uses a non-reentrant model
  3295 ;;
  3296                           
  3297                           
  3298                           ;psect for function _PWM2_Start
  3299  0006                     _PWM2_Start:
  3300  0006                     l2098:	
  3301                           ;incstack = 0
  3302                           ; Regs used in _PWM2_Start: []
  3303                           
  3304                           
  3305                           ;PWM.c: 61:   CCP2M3 = 1;
  3306  0006  1283               	bcf	3,5	;RP0=0, select bank0
  3307  0007  1303               	bcf	3,6	;RP1=0, select bank0
  3308  0008  159D               	bsf	29,3	;volatile
  3309                           
  3310                           ;PWM.c: 62:   CCP2M2 = 1;
  3311  0009  151D               	bsf	29,2	;volatile
  3312                           
  3313                           ;PWM.c: 67:     T2CKPS0 = 1;
  3314  000A  1412               	bsf	18,0	;volatile
  3315                           
  3316                           ;PWM.c: 68:     T2CKPS1 = 0;
  3317  000B  1092               	bcf	18,1	;volatile
  3318                           
  3319                           ;PWM.c: 73:     TMR2ON = 1;
  3320  000C  1512               	bsf	18,2	;volatile
  3321                           
  3322                           ;PWM.c: 74:     TRISC1 = 0;
  3323  000D  1683               	bsf	3,5	;RP0=1, select bank1
  3324  000E  1303               	bcf	3,6	;RP1=0, select bank1
  3325  000F  1087               	bcf	7,1	;volatile
  3326  0010                     l49:
  3327  0010  0008               	return
  3328  0011                     __end_of_PWM2_Start:
  3329                           
  3330                           	psect	text17
  3331  0011                     __ptext17:	
  3332 ;; *************** function _PWM2_Duty *****************
  3333 ;; Defined at:
  3334 ;;		line 29 in file "PWM.c"
  3335 ;; Parameters:    Size  Location     Type
  3336 ;;  duty            2    0[BANK1 ] unsigned int 
  3337 ;;  freq            2    2[BANK1 ] unsigned int 
  3338 ;; Auto vars:     Size  Location     Type
  3339 ;;		None
  3340 ;; Return value:  Size  Location     Type
  3341 ;;                  1    wreg      void 
  3342 ;; Registers used:
  3343 ;;		wreg, status,2, status,0, btemp+1, pclath, cstack
  3344 ;; Tracked objects:
  3345 ;;		On entry : 0/0
  3346 ;;		On exit  : 0/0
  3347 ;;		Unchanged: 0/0
  3348 ;; Data sizes:     COMMON   BANK0   BANK1   BANK3   BANK2
  3349 ;;      Params:         0       0       4       0       0
  3350 ;;      Locals:         0       0       0       0       0
  3351 ;;      Temps:          0       0       2       0       0
  3352 ;;      Totals:         0       0       6       0       0
  3353 ;;Total ram usage:        6 bytes
  3354 ;; Hardware stack levels used: 1
  3355 ;; Hardware stack levels required when called: 2
  3356 ;; This function calls:
  3357 ;;		_PWM_Init
  3358 ;;		___aldiv
  3359 ;;		___fldiv
  3360 ;;		___flmul
  3361 ;;		___fltol
  3362 ;;		___xxtofl
  3363 ;; This function is called by:
  3364 ;;		_main
  3365 ;; This function uses a non-reentrant model
  3366 ;;
  3367                           
  3368                           
  3369                           ;psect for function _PWM2_Duty
  3370  0011                     _PWM2_Duty:
  3371  0011                     l2084:	
  3372                           ;incstack = 0
  3373                           ; Regs used in _PWM2_Duty: [wreg+status,2+status,0+btemp+1+pclath+cstack]
  3374                           
  3375                           
  3376                           ;PWM.c: 29: void PWM2_Duty(unsigned int duty, unsigned int freq);PWM.c: 30: {;PWM.c: 31:
      +                             PWM_Init(freq);
  3377  0011  1683               	bsf	3,5	;RP0=1, select bank1
  3378  0012  1303               	bcf	3,6	;RP1=0, select bank1
  3379  0013  0822               	movf	PWM2_Duty@freq^(0+128),w
  3380  0014  1283               	bcf	3,5	;RP0=0, select bank0
  3381  0015  1303               	bcf	3,6	;RP1=0, select bank0
  3382  0016  00A6               	movwf	PWM_Init@freq
  3383  0017  1683               	bsf	3,5	;RP0=1, select bank1
  3384  0018  1303               	bcf	3,6	;RP1=0, select bank1
  3385  0019  0823               	movf	(PWM2_Duty@freq+1)^(0+128),w
  3386  001A  1283               	bcf	3,5	;RP0=0, select bank0
  3387  001B  1303               	bcf	3,6	;RP1=0, select bank0
  3388  001C  00A7               	movwf	PWM_Init@freq+1
  3389  001D  01A8               	clrf	PWM_Init@freq+2
  3390  001E  01A9               	clrf	PWM_Init@freq+3
  3391  001F  120A  158A  22B3  120A  118A  	fcall	_PWM_Init
  3392  0024                     l2086:
  3393                           
  3394                           ;PWM.c: 32:   if(duty<1024)
  3395  0024  3004               	movlw	4
  3396  0025  1683               	bsf	3,5	;RP0=1, select bank1
  3397  0026  1303               	bcf	3,6	;RP1=0, select bank1
  3398  0027  0221               	subwf	(PWM2_Duty@duty+1)^(0+128),w
  3399  0028  3000               	movlw	0
  3400  0029  1903               	skipnz
  3401  002A  0220               	subwf	PWM2_Duty@duty^(0+128),w
  3402  002B  1803               	skipnc
  3403  002C  282E               	goto	u2821
  3404  002D  282F               	goto	u2820
  3405  002E                     u2821:
  3406  002E  28D8               	goto	l43
  3407  002F                     u2820:
  3408  002F                     l2088:
  3409                           
  3410                           ;PWM.c: 33:   {;PWM.c: 34:     duty = ((float)duty/1023.0)*(4000000/(freq*4));
  3411  002F  0820               	movf	PWM2_Duty@duty^(0+128),w
  3412  0030  1283               	bcf	3,5	;RP0=0, select bank0
  3413  0031  1303               	bcf	3,6	;RP1=0, select bank0
  3414  0032  00AE               	movwf	___xxtofl@val
  3415  0033  1683               	bsf	3,5	;RP0=1, select bank1
  3416  0034  1303               	bcf	3,6	;RP1=0, select bank1
  3417  0035  0821               	movf	(PWM2_Duty@duty+1)^(0+128),w
  3418  0036  1283               	bcf	3,5	;RP0=0, select bank0
  3419  0037  1303               	bcf	3,6	;RP1=0, select bank0
  3420  0038  00AF               	movwf	___xxtofl@val+1
  3421  0039  01B0               	clrf	___xxtofl@val+2
  3422  003A  01B1               	clrf	___xxtofl@val+3
  3423  003B  3000               	movlw	0
  3424  003C  120A  158A  257E  120A  118A  	fcall	___xxtofl
  3425  0041  1283               	bcf	3,5	;RP0=0, select bank0
  3426  0042  1303               	bcf	3,6	;RP1=0, select bank0
  3427  0043  0831               	movf	?___xxtofl+3,w
  3428  0044  00C3               	movwf	___fldiv@b+3
  3429  0045  0830               	movf	?___xxtofl+2,w
  3430  0046  00C2               	movwf	___fldiv@b+2
  3431  0047  082F               	movf	?___xxtofl+1,w
  3432  0048  00C1               	movwf	___fldiv@b+1
  3433  0049  082E               	movf	?___xxtofl,w
  3434  004A  00C0               	movwf	___fldiv@b
  3435  004B  3044               	movlw	68
  3436  004C  00BF               	movwf	___fldiv@a+3
  3437  004D  307F               	movlw	127
  3438  004E  00BE               	movwf	___fldiv@a+2
  3439  004F  30C0               	movlw	192
  3440  0050  00BD               	movwf	___fldiv@a+1
  3441  0051  3000               	movlw	0
  3442  0052  00BC               	movwf	___fldiv@a
  3443  0053  120A  118A  229A  120A  118A  	fcall	___fldiv
  3444  0058  1283               	bcf	3,5	;RP0=0, select bank0
  3445  0059  1303               	bcf	3,6	;RP1=0, select bank0
  3446  005A  083F               	movf	?___fldiv+3,w
  3447  005B  00DD               	movwf	___flmul@a+3
  3448  005C  083E               	movf	?___fldiv+2,w
  3449  005D  00DC               	movwf	___flmul@a+2
  3450  005E  083D               	movf	?___fldiv+1,w
  3451  005F  00DB               	movwf	___flmul@a+1
  3452  0060  083C               	movf	?___fldiv,w
  3453  0061  00DA               	movwf	___flmul@a
  3454  0062  3000               	movlw	0
  3455  0063  00F7               	movwf	___aldiv@dividend+3
  3456  0064  303D               	movlw	61
  3457  0065  00F6               	movwf	___aldiv@dividend+2
  3458  0066  3009               	movlw	9
  3459  0067  00F5               	movwf	___aldiv@dividend+1
  3460  0068  3000               	movlw	0
  3461  0069  00F4               	movwf	___aldiv@dividend
  3462  006A  1683               	bsf	3,5	;RP0=1, select bank1
  3463  006B  1303               	bcf	3,6	;RP1=0, select bank1
  3464  006C  0823               	movf	(PWM2_Duty@freq+1)^(0+128),w
  3465  006D  00A5               	movwf	(??_PWM2_Duty^(0+128)+1)
  3466  006E  0822               	movf	PWM2_Duty@freq^(0+128),w
  3467  006F  00A4               	movwf	??_PWM2_Duty^(0+128)
  3468  0070  1003               	clrc
  3469  0071  0DA4               	rlf	??_PWM2_Duty^(0+128),f
  3470  0072  0DA5               	rlf	(??_PWM2_Duty^(0+128)+1),f
  3471  0073  1003               	clrc
  3472  0074  0DA4               	rlf	??_PWM2_Duty^(0+128),f
  3473  0075  0DA5               	rlf	(??_PWM2_Duty^(0+128)+1),f
  3474  0076  0824               	movf	??_PWM2_Duty^(0+128),w
  3475  0077  00F0               	movwf	___aldiv@divisor
  3476  0078  0825               	movf	(??_PWM2_Duty+1)^(0+128),w
  3477  0079  00F1               	movwf	___aldiv@divisor+1
  3478  007A  01F2               	clrf	___aldiv@divisor+2
  3479  007B  01F3               	clrf	___aldiv@divisor+3
  3480  007C  120A  158A  24E1  120A  118A  	fcall	___aldiv
  3481  0081  0873               	movf	?___aldiv+3,w
  3482  0082  1283               	bcf	3,5	;RP0=0, select bank0
  3483  0083  1303               	bcf	3,6	;RP1=0, select bank0
  3484  0084  00B1               	movwf	___xxtofl@val+3
  3485  0085  0872               	movf	?___aldiv+2,w
  3486  0086  00B0               	movwf	___xxtofl@val+2
  3487  0087  0871               	movf	?___aldiv+1,w
  3488  0088  00AF               	movwf	___xxtofl@val+1
  3489  0089  0870               	movf	?___aldiv,w
  3490  008A  00AE               	movwf	___xxtofl@val
  3491  008B  3001               	movlw	1
  3492  008C  120A  158A  257E  120A  118A  	fcall	___xxtofl
  3493  0091  1283               	bcf	3,5	;RP0=0, select bank0
  3494  0092  1303               	bcf	3,6	;RP1=0, select bank0
  3495  0093  0831               	movf	?___xxtofl+3,w
  3496  0094  00D9               	movwf	___flmul@b+3
  3497  0095  0830               	movf	?___xxtofl+2,w
  3498  0096  00D8               	movwf	___flmul@b+2
  3499  0097  082F               	movf	?___xxtofl+1,w
  3500  0098  00D7               	movwf	___flmul@b+1
  3501  0099  082E               	movf	?___xxtofl,w
  3502  009A  00D6               	movwf	___flmul@b
  3503  009B  120A  118A  2477  120A  118A  	fcall	___flmul
  3504  00A0  1283               	bcf	3,5	;RP0=0, select bank0
  3505  00A1  1303               	bcf	3,6	;RP1=0, select bank0
  3506  00A2  0859               	movf	?___flmul+3,w
  3507  00A3  00A9               	movwf	___fltol@f1+3
  3508  00A4  0858               	movf	?___flmul+2,w
  3509  00A5  00A8               	movwf	___fltol@f1+2
  3510  00A6  0857               	movf	?___flmul+1,w
  3511  00A7  00A7               	movwf	___fltol@f1+1
  3512  00A8  0856               	movf	?___flmul,w
  3513  00A9  00A6               	movwf	___fltol@f1
  3514  00AA  120A  158A  2465  120A  118A  	fcall	___fltol
  3515  00AF  1283               	bcf	3,5	;RP0=0, select bank0
  3516  00B0  1303               	bcf	3,6	;RP1=0, select bank0
  3517  00B1  0827               	movf	?___fltol+1,w
  3518  00B2  1683               	bsf	3,5	;RP0=1, select bank1
  3519  00B3  1303               	bcf	3,6	;RP1=0, select bank1
  3520  00B4  00A1               	movwf	(PWM2_Duty@duty+1)^(0+128)
  3521  00B5  1283               	bcf	3,5	;RP0=0, select bank0
  3522  00B6  1303               	bcf	3,6	;RP1=0, select bank0
  3523  00B7  0826               	movf	?___fltol,w
  3524  00B8  1683               	bsf	3,5	;RP0=1, select bank1
  3525  00B9  1303               	bcf	3,6	;RP1=0, select bank1
  3526  00BA  00A0               	movwf	PWM2_Duty@duty^(0+128)
  3527  00BB                     l2090:
  3528                           
  3529                           ;PWM.c: 35:     CCP2X = duty & 0b00000010;;
  3530  00BB  1283               	bcf	3,5	;RP0=0, select bank0
  3531  00BC  1303               	bcf	3,6	;RP1=0, select bank0
  3532  00BD  129D               	bcf	29,5	;volatile
  3533  00BE                     l2092:
  3534                           
  3535                           ;PWM.c: 36:     CCP2Y = duty & 0b00000001;;
  3536  00BE  1683               	bsf	3,5	;RP0=1, select bank1
  3537  00BF  1303               	bcf	3,6	;RP1=0, select bank1
  3538  00C0  1820               	btfsc	PWM2_Duty@duty^(0+128),0
  3539  00C1  28C3               	goto	u2831
  3540  00C2  28C7               	goto	u2830
  3541  00C3                     u2831:
  3542  00C3  1283               	bcf	3,5	;RP0=0, select bank0
  3543  00C4  1303               	bcf	3,6	;RP1=0, select bank0
  3544  00C5  161D               	bsf	29,4	;volatile
  3545  00C6  28CA               	goto	u2844
  3546  00C7                     u2830:
  3547  00C7  1283               	bcf	3,5	;RP0=0, select bank0
  3548  00C8  1303               	bcf	3,6	;RP1=0, select bank0
  3549  00C9  121D               	bcf	29,4	;volatile
  3550  00CA                     u2844:
  3551  00CA                     l2094:
  3552                           
  3553                           ;PWM.c: 37:     CCPR2L = (unsigned char)duty>>2;
  3554  00CA  1683               	bsf	3,5	;RP0=1, select bank1
  3555  00CB  1303               	bcf	3,6	;RP1=0, select bank1
  3556  00CC  0820               	movf	PWM2_Duty@duty^(0+128),w
  3557  00CD  00A4               	movwf	??_PWM2_Duty^(0+128)
  3558  00CE  3002               	movlw	2
  3559  00CF                     u2855:
  3560  00CF  1003               	clrc
  3561  00D0  0CA4               	rrf	??_PWM2_Duty^(0+128),f
  3562  00D1  3EFF               	addlw	-1
  3563  00D2  1D03               	skipz
  3564  00D3  28CF               	goto	u2855
  3565  00D4  0824               	movf	??_PWM2_Duty^(0+128),w
  3566  00D5  1283               	bcf	3,5	;RP0=0, select bank0
  3567  00D6  1303               	bcf	3,6	;RP1=0, select bank0
  3568  00D7  009B               	movwf	27	;volatile
  3569  00D8                     l43:
  3570  00D8  0008               	return
  3571  00D9                     __end_of_PWM2_Duty:
  3572                           
  3573                           	psect	text18
  3574  0957                     __ptext18:	
  3575 ;; *************** function _PWM1_Start *****************
  3576 ;; Defined at:
  3577 ;;		line 41 in file "PWM.c"
  3578 ;; Parameters:    Size  Location     Type
  3579 ;;		None
  3580 ;; Auto vars:     Size  Location     Type
  3581 ;;		None
  3582 ;; Return value:  Size  Location     Type
  3583 ;;                  1    wreg      void 
  3584 ;; Registers used:
  3585 ;;		None
  3586 ;; Tracked objects:
  3587 ;;		On entry : 0/0
  3588 ;;		On exit  : 0/0
  3589 ;;		Unchanged: 0/0
  3590 ;; Data sizes:     COMMON   BANK0   BANK1   BANK3   BANK2
  3591 ;;      Params:         0       0       0       0       0
  3592 ;;      Locals:         0       0       0       0       0
  3593 ;;      Temps:          0       0       0       0       0
  3594 ;;      Totals:         0       0       0       0       0
  3595 ;;Total ram usage:        0 bytes
  3596 ;; Hardware stack levels used: 1
  3597 ;; This function calls:
  3598 ;;		Nothing
  3599 ;; This function is called by:
  3600 ;;		_main
  3601 ;; This function uses a non-reentrant model
  3602 ;;
  3603                           
  3604                           
  3605                           ;psect for function _PWM1_Start
  3606  0957                     _PWM1_Start:
  3607  0957                     l2096:	
  3608                           ;incstack = 0
  3609                           ; Regs used in _PWM1_Start: []
  3610                           
  3611                           
  3612                           ;PWM.c: 43:   CCP1M3 = 1;
  3613  0957  1283               	bcf	3,5	;RP0=0, select bank0
  3614  0958  1303               	bcf	3,6	;RP1=0, select bank0
  3615  0959  1597               	bsf	23,3	;volatile
  3616                           
  3617                           ;PWM.c: 44:   CCP1M2 = 1;
  3618  095A  1517               	bsf	23,2	;volatile
  3619                           
  3620                           ;PWM.c: 55:   TMR2ON = 1;
  3621  095B  1512               	bsf	18,2	;volatile
  3622                           
  3623                           ;PWM.c: 56:   TRISC2 = 0;
  3624  095C  1683               	bsf	3,5	;RP0=1, select bank1
  3625  095D  1303               	bcf	3,6	;RP1=0, select bank1
  3626  095E  1107               	bcf	7,2	;volatile
  3627  095F                     l46:
  3628  095F  0008               	return
  3629  0960                     __end_of_PWM1_Start:
  3630                           
  3631                           	psect	text19
  3632  0E3A                     __ptext19:	
  3633 ;; *************** function _PWM1_Duty *****************
  3634 ;; Defined at:
  3635 ;;		line 17 in file "PWM.c"
  3636 ;; Parameters:    Size  Location     Type
  3637 ;;  duty            2    0[BANK1 ] unsigned int 
  3638 ;;  freq            2    2[BANK1 ] unsigned int 
  3639 ;; Auto vars:     Size  Location     Type
  3640 ;;		None
  3641 ;; Return value:  Size  Location     Type
  3642 ;;                  1    wreg      void 
  3643 ;; Registers used:
  3644 ;;		wreg, status,2, status,0, btemp+1, pclath, cstack
  3645 ;; Tracked objects:
  3646 ;;		On entry : 0/0
  3647 ;;		On exit  : 0/0
  3648 ;;		Unchanged: 0/0
  3649 ;; Data sizes:     COMMON   BANK0   BANK1   BANK3   BANK2
  3650 ;;      Params:         0       0       4       0       0
  3651 ;;      Locals:         0       0       0       0       0
  3652 ;;      Temps:          0       0       2       0       0
  3653 ;;      Totals:         0       0       6       0       0
  3654 ;;Total ram usage:        6 bytes
  3655 ;; Hardware stack levels used: 1
  3656 ;; Hardware stack levels required when called: 2
  3657 ;; This function calls:
  3658 ;;		_PWM_Init
  3659 ;;		___aldiv
  3660 ;;		___fldiv
  3661 ;;		___flmul
  3662 ;;		___fltol
  3663 ;;		___xxtofl
  3664 ;; This function is called by:
  3665 ;;		_main
  3666 ;; This function uses a non-reentrant model
  3667 ;;
  3668                           
  3669                           
  3670                           ;psect for function _PWM1_Duty
  3671  0E3A                     _PWM1_Duty:
  3672  0E3A                     l2072:	
  3673                           ;incstack = 0
  3674                           ; Regs used in _PWM1_Duty: [wreg+status,2+status,0+btemp+1+pclath+cstack]
  3675                           
  3676                           
  3677                           ;PWM.c: 17: void PWM1_Duty(unsigned int duty, unsigned int freq);PWM.c: 18: {;PWM.c: 19:
      +                             PWM_Init(freq);
  3678  0E3A  1683               	bsf	3,5	;RP0=1, select bank1
  3679  0E3B  1303               	bcf	3,6	;RP1=0, select bank1
  3680  0E3C  0822               	movf	PWM1_Duty@freq^(0+128),w
  3681  0E3D  1283               	bcf	3,5	;RP0=0, select bank0
  3682  0E3E  1303               	bcf	3,6	;RP1=0, select bank0
  3683  0E3F  00A6               	movwf	PWM_Init@freq
  3684  0E40  1683               	bsf	3,5	;RP0=1, select bank1
  3685  0E41  1303               	bcf	3,6	;RP1=0, select bank1
  3686  0E42  0823               	movf	(PWM1_Duty@freq+1)^(0+128),w
  3687  0E43  1283               	bcf	3,5	;RP0=0, select bank0
  3688  0E44  1303               	bcf	3,6	;RP1=0, select bank0
  3689  0E45  00A7               	movwf	PWM_Init@freq+1
  3690  0E46  01A8               	clrf	PWM_Init@freq+2
  3691  0E47  01A9               	clrf	PWM_Init@freq+3
  3692  0E48  120A  158A  22B3  120A  158A  	fcall	_PWM_Init
  3693  0E4D                     l2074:
  3694                           
  3695                           ;PWM.c: 20:   if(duty<1024)
  3696  0E4D  3004               	movlw	4
  3697  0E4E  1683               	bsf	3,5	;RP0=1, select bank1
  3698  0E4F  1303               	bcf	3,6	;RP1=0, select bank1
  3699  0E50  0221               	subwf	(PWM1_Duty@duty+1)^(0+128),w
  3700  0E51  3000               	movlw	0
  3701  0E52  1903               	skipnz
  3702  0E53  0220               	subwf	PWM1_Duty@duty^(0+128),w
  3703  0E54  1803               	skipnc
  3704  0E55  2E57               	goto	u2781
  3705  0E56  2E58               	goto	u2780
  3706  0E57                     u2781:
  3707  0E57  2F01               	goto	l39
  3708  0E58                     u2780:
  3709  0E58                     l2076:
  3710                           
  3711                           ;PWM.c: 21:   {;PWM.c: 22:     duty = ((float)duty/1023.0)*(4000000/(freq*4));
  3712  0E58  0820               	movf	PWM1_Duty@duty^(0+128),w
  3713  0E59  1283               	bcf	3,5	;RP0=0, select bank0
  3714  0E5A  1303               	bcf	3,6	;RP1=0, select bank0
  3715  0E5B  00AE               	movwf	___xxtofl@val
  3716  0E5C  1683               	bsf	3,5	;RP0=1, select bank1
  3717  0E5D  1303               	bcf	3,6	;RP1=0, select bank1
  3718  0E5E  0821               	movf	(PWM1_Duty@duty+1)^(0+128),w
  3719  0E5F  1283               	bcf	3,5	;RP0=0, select bank0
  3720  0E60  1303               	bcf	3,6	;RP1=0, select bank0
  3721  0E61  00AF               	movwf	___xxtofl@val+1
  3722  0E62  01B0               	clrf	___xxtofl@val+2
  3723  0E63  01B1               	clrf	___xxtofl@val+3
  3724  0E64  3000               	movlw	0
  3725  0E65  120A  158A  257E  120A  158A  	fcall	___xxtofl
  3726  0E6A  1283               	bcf	3,5	;RP0=0, select bank0
  3727  0E6B  1303               	bcf	3,6	;RP1=0, select bank0
  3728  0E6C  0831               	movf	?___xxtofl+3,w
  3729  0E6D  00C3               	movwf	___fldiv@b+3
  3730  0E6E  0830               	movf	?___xxtofl+2,w
  3731  0E6F  00C2               	movwf	___fldiv@b+2
  3732  0E70  082F               	movf	?___xxtofl+1,w
  3733  0E71  00C1               	movwf	___fldiv@b+1
  3734  0E72  082E               	movf	?___xxtofl,w
  3735  0E73  00C0               	movwf	___fldiv@b
  3736  0E74  3044               	movlw	68
  3737  0E75  00BF               	movwf	___fldiv@a+3
  3738  0E76  307F               	movlw	127
  3739  0E77  00BE               	movwf	___fldiv@a+2
  3740  0E78  30C0               	movlw	192
  3741  0E79  00BD               	movwf	___fldiv@a+1
  3742  0E7A  3000               	movlw	0
  3743  0E7B  00BC               	movwf	___fldiv@a
  3744  0E7C  120A  118A  229A  120A  158A  	fcall	___fldiv
  3745  0E81  1283               	bcf	3,5	;RP0=0, select bank0
  3746  0E82  1303               	bcf	3,6	;RP1=0, select bank0
  3747  0E83  083F               	movf	?___fldiv+3,w
  3748  0E84  00DD               	movwf	___flmul@a+3
  3749  0E85  083E               	movf	?___fldiv+2,w
  3750  0E86  00DC               	movwf	___flmul@a+2
  3751  0E87  083D               	movf	?___fldiv+1,w
  3752  0E88  00DB               	movwf	___flmul@a+1
  3753  0E89  083C               	movf	?___fldiv,w
  3754  0E8A  00DA               	movwf	___flmul@a
  3755  0E8B  3000               	movlw	0
  3756  0E8C  00F7               	movwf	___aldiv@dividend+3
  3757  0E8D  303D               	movlw	61
  3758  0E8E  00F6               	movwf	___aldiv@dividend+2
  3759  0E8F  3009               	movlw	9
  3760  0E90  00F5               	movwf	___aldiv@dividend+1
  3761  0E91  3000               	movlw	0
  3762  0E92  00F4               	movwf	___aldiv@dividend
  3763  0E93  1683               	bsf	3,5	;RP0=1, select bank1
  3764  0E94  1303               	bcf	3,6	;RP1=0, select bank1
  3765  0E95  0823               	movf	(PWM1_Duty@freq+1)^(0+128),w
  3766  0E96  00A5               	movwf	(??_PWM1_Duty^(0+128)+1)
  3767  0E97  0822               	movf	PWM1_Duty@freq^(0+128),w
  3768  0E98  00A4               	movwf	??_PWM1_Duty^(0+128)
  3769  0E99  1003               	clrc
  3770  0E9A  0DA4               	rlf	??_PWM1_Duty^(0+128),f
  3771  0E9B  0DA5               	rlf	(??_PWM1_Duty^(0+128)+1),f
  3772  0E9C  1003               	clrc
  3773  0E9D  0DA4               	rlf	??_PWM1_Duty^(0+128),f
  3774  0E9E  0DA5               	rlf	(??_PWM1_Duty^(0+128)+1),f
  3775  0E9F  0824               	movf	??_PWM1_Duty^(0+128),w
  3776  0EA0  00F0               	movwf	___aldiv@divisor
  3777  0EA1  0825               	movf	(??_PWM1_Duty+1)^(0+128),w
  3778  0EA2  00F1               	movwf	___aldiv@divisor+1
  3779  0EA3  01F2               	clrf	___aldiv@divisor+2
  3780  0EA4  01F3               	clrf	___aldiv@divisor+3
  3781  0EA5  120A  158A  24E1  120A  158A  	fcall	___aldiv
  3782  0EAA  0873               	movf	?___aldiv+3,w
  3783  0EAB  1283               	bcf	3,5	;RP0=0, select bank0
  3784  0EAC  1303               	bcf	3,6	;RP1=0, select bank0
  3785  0EAD  00B1               	movwf	___xxtofl@val+3
  3786  0EAE  0872               	movf	?___aldiv+2,w
  3787  0EAF  00B0               	movwf	___xxtofl@val+2
  3788  0EB0  0871               	movf	?___aldiv+1,w
  3789  0EB1  00AF               	movwf	___xxtofl@val+1
  3790  0EB2  0870               	movf	?___aldiv,w
  3791  0EB3  00AE               	movwf	___xxtofl@val
  3792  0EB4  3001               	movlw	1
  3793  0EB5  120A  158A  257E  120A  158A  	fcall	___xxtofl
  3794  0EBA  1283               	bcf	3,5	;RP0=0, select bank0
  3795  0EBB  1303               	bcf	3,6	;RP1=0, select bank0
  3796  0EBC  0831               	movf	?___xxtofl+3,w
  3797  0EBD  00D9               	movwf	___flmul@b+3
  3798  0EBE  0830               	movf	?___xxtofl+2,w
  3799  0EBF  00D8               	movwf	___flmul@b+2
  3800  0EC0  082F               	movf	?___xxtofl+1,w
  3801  0EC1  00D7               	movwf	___flmul@b+1
  3802  0EC2  082E               	movf	?___xxtofl,w
  3803  0EC3  00D6               	movwf	___flmul@b
  3804  0EC4  120A  118A  2477  120A  158A  	fcall	___flmul
  3805  0EC9  1283               	bcf	3,5	;RP0=0, select bank0
  3806  0ECA  1303               	bcf	3,6	;RP1=0, select bank0
  3807  0ECB  0859               	movf	?___flmul+3,w
  3808  0ECC  00A9               	movwf	___fltol@f1+3
  3809  0ECD  0858               	movf	?___flmul+2,w
  3810  0ECE  00A8               	movwf	___fltol@f1+2
  3811  0ECF  0857               	movf	?___flmul+1,w
  3812  0ED0  00A7               	movwf	___fltol@f1+1
  3813  0ED1  0856               	movf	?___flmul,w
  3814  0ED2  00A6               	movwf	___fltol@f1
  3815  0ED3  120A  158A  2465  120A  158A  	fcall	___fltol
  3816  0ED8  1283               	bcf	3,5	;RP0=0, select bank0
  3817  0ED9  1303               	bcf	3,6	;RP1=0, select bank0
  3818  0EDA  0827               	movf	?___fltol+1,w
  3819  0EDB  1683               	bsf	3,5	;RP0=1, select bank1
  3820  0EDC  1303               	bcf	3,6	;RP1=0, select bank1
  3821  0EDD  00A1               	movwf	(PWM1_Duty@duty+1)^(0+128)
  3822  0EDE  1283               	bcf	3,5	;RP0=0, select bank0
  3823  0EDF  1303               	bcf	3,6	;RP1=0, select bank0
  3824  0EE0  0826               	movf	?___fltol,w
  3825  0EE1  1683               	bsf	3,5	;RP0=1, select bank1
  3826  0EE2  1303               	bcf	3,6	;RP1=0, select bank1
  3827  0EE3  00A0               	movwf	PWM1_Duty@duty^(0+128)
  3828  0EE4                     l2078:
  3829                           
  3830                           ;PWM.c: 23:     CCP1X = duty & 0b00000010;
  3831  0EE4  1283               	bcf	3,5	;RP0=0, select bank0
  3832  0EE5  1303               	bcf	3,6	;RP1=0, select bank0
  3833  0EE6  1297               	bcf	23,5	;volatile
  3834  0EE7                     l2080:
  3835                           
  3836                           ;PWM.c: 24:     CCP1Y = duty & 0b00000001;
  3837  0EE7  1683               	bsf	3,5	;RP0=1, select bank1
  3838  0EE8  1303               	bcf	3,6	;RP1=0, select bank1
  3839  0EE9  1820               	btfsc	PWM1_Duty@duty^(0+128),0
  3840  0EEA  2EEC               	goto	u2791
  3841  0EEB  2EF0               	goto	u2790
  3842  0EEC                     u2791:
  3843  0EEC  1283               	bcf	3,5	;RP0=0, select bank0
  3844  0EED  1303               	bcf	3,6	;RP1=0, select bank0
  3845  0EEE  1617               	bsf	23,4	;volatile
  3846  0EEF  2EF3               	goto	u2804
  3847  0EF0                     u2790:
  3848  0EF0  1283               	bcf	3,5	;RP0=0, select bank0
  3849  0EF1  1303               	bcf	3,6	;RP1=0, select bank0
  3850  0EF2  1217               	bcf	23,4	;volatile
  3851  0EF3                     u2804:
  3852  0EF3                     l2082:
  3853                           
  3854                           ;PWM.c: 25:     CCPR1L = (unsigned char)duty>>2;
  3855  0EF3  1683               	bsf	3,5	;RP0=1, select bank1
  3856  0EF4  1303               	bcf	3,6	;RP1=0, select bank1
  3857  0EF5  0820               	movf	PWM1_Duty@duty^(0+128),w
  3858  0EF6  00A4               	movwf	??_PWM1_Duty^(0+128)
  3859  0EF7  3002               	movlw	2
  3860  0EF8                     u2815:
  3861  0EF8  1003               	clrc
  3862  0EF9  0CA4               	rrf	??_PWM1_Duty^(0+128),f
  3863  0EFA  3EFF               	addlw	-1
  3864  0EFB  1D03               	skipz
  3865  0EFC  2EF8               	goto	u2815
  3866  0EFD  0824               	movf	??_PWM1_Duty^(0+128),w
  3867  0EFE  1283               	bcf	3,5	;RP0=0, select bank0
  3868  0EFF  1303               	bcf	3,6	;RP1=0, select bank0
  3869  0F00  0095               	movwf	21	;volatile
  3870  0F01                     l39:
  3871  0F01  0008               	return
  3872  0F02                     __end_of_PWM1_Duty:
  3873                           
  3874                           	psect	text20
  3875  0D7E                     __ptext20:	
  3876 ;; *************** function ___xxtofl *****************
  3877 ;; Defined at:
  3878 ;;		line 10 in file "C:\Program Files\Microchip\xc8\v2.32\pic\sources\c90\common\xxtofl.c"
  3879 ;; Parameters:    Size  Location     Type
  3880 ;;  sign            1    wreg     unsigned char 
  3881 ;;  val             4   14[BANK0 ] long 
  3882 ;; Auto vars:     Size  Location     Type
  3883 ;;  sign            1   22[BANK0 ] unsigned char 
  3884 ;;  arg             4   24[BANK0 ] unsigned long 
  3885 ;;  exp             1   23[BANK0 ] unsigned char 
  3886 ;; Return value:  Size  Location     Type
  3887 ;;                  4   14[BANK0 ] unsigned char 
  3888 ;; Registers used:
  3889 ;;		wreg, status,2, status,0
  3890 ;; Tracked objects:
  3891 ;;		On entry : 0/0
  3892 ;;		On exit  : 0/0
  3893 ;;		Unchanged: 0/0
  3894 ;; Data sizes:     COMMON   BANK0   BANK1   BANK3   BANK2
  3895 ;;      Params:         0       4       0       0       0
  3896 ;;      Locals:         0       6       0       0       0
  3897 ;;      Temps:          0       4       0       0       0
  3898 ;;      Totals:         0      14       0       0       0
  3899 ;;Total ram usage:       14 bytes
  3900 ;; Hardware stack levels used: 1
  3901 ;; This function calls:
  3902 ;;		Nothing
  3903 ;; This function is called by:
  3904 ;;		_PWM1_Duty
  3905 ;;		_PWM2_Duty
  3906 ;;		_main
  3907 ;; This function uses a non-reentrant model
  3908 ;;
  3909                           
  3910                           
  3911                           ;psect for function ___xxtofl
  3912  0D7E                     ___xxtofl:
  3913                           
  3914                           ;incstack = 0
  3915                           ; Regs used in ___xxtofl: [wreg+status,2+status,0]
  3916                           ;___xxtofl@sign stored from wreg
  3917  0D7E  1283               	bcf	3,5	;RP0=0, select bank0
  3918  0D7F  1303               	bcf	3,6	;RP1=0, select bank0
  3919  0D80  00B6               	movwf	___xxtofl@sign
  3920  0D81                     l2028:
  3921  0D81  0836               	movf	___xxtofl@sign,w
  3922  0D82  1903               	btfsc	3,2
  3923  0D83  2D85               	goto	u2641
  3924  0D84  2D86               	goto	u2640
  3925  0D85                     u2641:
  3926  0D85  2D9A               	goto	l2034
  3927  0D86                     u2640:
  3928  0D86                     l2030:
  3929  0D86  1FB1               	btfss	___xxtofl@val+3,7
  3930  0D87  2D89               	goto	u2651
  3931  0D88  2D8A               	goto	u2650
  3932  0D89                     u2651:
  3933  0D89  2D9A               	goto	l2034
  3934  0D8A                     u2650:
  3935  0D8A                     l2032:
  3936  0D8A  092E               	comf	___xxtofl@val,w
  3937  0D8B  00B8               	movwf	___xxtofl@arg
  3938  0D8C  092F               	comf	___xxtofl@val+1,w
  3939  0D8D  00B9               	movwf	___xxtofl@arg+1
  3940  0D8E  0930               	comf	___xxtofl@val+2,w
  3941  0D8F  00BA               	movwf	___xxtofl@arg+2
  3942  0D90  0931               	comf	___xxtofl@val+3,w
  3943  0D91  00BB               	movwf	___xxtofl@arg+3
  3944  0D92  0AB8               	incf	___xxtofl@arg,f
  3945  0D93  1903               	skipnz
  3946  0D94  0AB9               	incf	___xxtofl@arg+1,f
  3947  0D95  1903               	skipnz
  3948  0D96  0ABA               	incf	___xxtofl@arg+2,f
  3949  0D97  1903               	skipnz
  3950  0D98  0ABB               	incf	___xxtofl@arg+3,f
  3951  0D99  2DA2               	goto	l733
  3952  0D9A                     l2034:
  3953  0D9A  0831               	movf	___xxtofl@val+3,w
  3954  0D9B  00BB               	movwf	___xxtofl@arg+3
  3955  0D9C  0830               	movf	___xxtofl@val+2,w
  3956  0D9D  00BA               	movwf	___xxtofl@arg+2
  3957  0D9E  082F               	movf	___xxtofl@val+1,w
  3958  0D9F  00B9               	movwf	___xxtofl@arg+1
  3959  0DA0  082E               	movf	___xxtofl@val,w
  3960  0DA1  00B8               	movwf	___xxtofl@arg
  3961  0DA2                     l733:
  3962  0DA2  0831               	movf	___xxtofl@val+3,w
  3963  0DA3  0430               	iorwf	___xxtofl@val+2,w
  3964  0DA4  042F               	iorwf	___xxtofl@val+1,w
  3965  0DA5  042E               	iorwf	___xxtofl@val,w
  3966  0DA6  1D03               	skipz
  3967  0DA7  2DA9               	goto	u2661
  3968  0DA8  2DAA               	goto	u2660
  3969  0DA9                     u2661:
  3970  0DA9  2DB3               	goto	l2040
  3971  0DAA                     u2660:
  3972  0DAA                     l2036:
  3973  0DAA  3000               	movlw	0
  3974  0DAB  00B1               	movwf	?___xxtofl+3
  3975  0DAC  3000               	movlw	0
  3976  0DAD  00B0               	movwf	?___xxtofl+2
  3977  0DAE  3000               	movlw	0
  3978  0DAF  00AF               	movwf	?___xxtofl+1
  3979  0DB0  3000               	movlw	0
  3980  0DB1  00AE               	movwf	?___xxtofl
  3981  0DB2  2E39               	goto	l735
  3982  0DB3                     l2040:
  3983  0DB3  3096               	movlw	150
  3984  0DB4  00B2               	movwf	??___xxtofl
  3985  0DB5  0832               	movf	??___xxtofl,w
  3986  0DB6  00B7               	movwf	___xxtofl@exp
  3987  0DB7  2DC5               	goto	l2044
  3988  0DB8                     l2042:
  3989  0DB8  3001               	movlw	1
  3990  0DB9  00B2               	movwf	??___xxtofl
  3991  0DBA  0832               	movf	??___xxtofl,w
  3992  0DBB  07B7               	addwf	___xxtofl@exp,f
  3993  0DBC  3001               	movlw	1
  3994  0DBD                     u2675:
  3995  0DBD  1003               	clrc
  3996  0DBE  0CBB               	rrf	___xxtofl@arg+3,f
  3997  0DBF  0CBA               	rrf	___xxtofl@arg+2,f
  3998  0DC0  0CB9               	rrf	___xxtofl@arg+1,f
  3999  0DC1  0CB8               	rrf	___xxtofl@arg,f
  4000  0DC2  3EFF               	addlw	-1
  4001  0DC3  1D03               	skipz
  4002  0DC4  2DBD               	goto	u2675
  4003  0DC5                     l2044:
  4004  0DC5  30FE               	movlw	254
  4005  0DC6  053B               	andwf	___xxtofl@arg+3,w
  4006  0DC7  1D03               	btfss	3,2
  4007  0DC8  2DCA               	goto	u2681
  4008  0DC9  2DCB               	goto	u2680
  4009  0DCA                     u2681:
  4010  0DCA  2DB8               	goto	l2042
  4011  0DCB                     u2680:
  4012  0DCB  2DE7               	goto	l739
  4013  0DCC                     l2046:
  4014  0DCC  3001               	movlw	1
  4015  0DCD  00B2               	movwf	??___xxtofl
  4016  0DCE  0832               	movf	??___xxtofl,w
  4017  0DCF  07B7               	addwf	___xxtofl@exp,f
  4018  0DD0                     l2048:
  4019  0DD0  3001               	movlw	1
  4020  0DD1  07B8               	addwf	___xxtofl@arg,f
  4021  0DD2  3000               	movlw	0
  4022  0DD3  1803               	skipnc
  4023  0DD4  3001               	movlw	1
  4024  0DD5  07B9               	addwf	___xxtofl@arg+1,f
  4025  0DD6  3000               	movlw	0
  4026  0DD7  1803               	skipnc
  4027  0DD8  3001               	movlw	1
  4028  0DD9  07BA               	addwf	___xxtofl@arg+2,f
  4029  0DDA  3000               	movlw	0
  4030  0DDB  1803               	skipnc
  4031  0DDC  3001               	movlw	1
  4032  0DDD  07BB               	addwf	___xxtofl@arg+3,f
  4033  0DDE                     l2050:
  4034  0DDE  3001               	movlw	1
  4035  0DDF                     u2695:
  4036  0DDF  1003               	clrc
  4037  0DE0  0CBB               	rrf	___xxtofl@arg+3,f
  4038  0DE1  0CBA               	rrf	___xxtofl@arg+2,f
  4039  0DE2  0CB9               	rrf	___xxtofl@arg+1,f
  4040  0DE3  0CB8               	rrf	___xxtofl@arg,f
  4041  0DE4  3EFF               	addlw	-1
  4042  0DE5  1D03               	skipz
  4043  0DE6  2DDF               	goto	u2695
  4044  0DE7                     l739:
  4045  0DE7  30FF               	movlw	255
  4046  0DE8  053B               	andwf	___xxtofl@arg+3,w
  4047  0DE9  1D03               	btfss	3,2
  4048  0DEA  2DEC               	goto	u2701
  4049  0DEB  2DED               	goto	u2700
  4050  0DEC                     u2701:
  4051  0DEC  2DCC               	goto	l2046
  4052  0DED                     u2700:
  4053  0DED  2DF9               	goto	l2054
  4054  0DEE                     l2052:
  4055  0DEE  3001               	movlw	1
  4056  0DEF  02B7               	subwf	___xxtofl@exp,f
  4057  0DF0  3001               	movlw	1
  4058  0DF1  00B2               	movwf	??___xxtofl
  4059  0DF2                     u2715:
  4060  0DF2  1003               	clrc
  4061  0DF3  0DB8               	rlf	___xxtofl@arg,f
  4062  0DF4  0DB9               	rlf	___xxtofl@arg+1,f
  4063  0DF5  0DBA               	rlf	___xxtofl@arg+2,f
  4064  0DF6  0DBB               	rlf	___xxtofl@arg+3,f
  4065  0DF7  0BB2               	decfsz	??___xxtofl,f
  4066  0DF8  2DF2               	goto	u2715
  4067  0DF9                     l2054:
  4068  0DF9  1BBA               	btfsc	___xxtofl@arg+2,7
  4069  0DFA  2DFC               	goto	u2721
  4070  0DFB  2DFD               	goto	u2720
  4071  0DFC                     u2721:
  4072  0DFC  2E03               	goto	l746
  4073  0DFD                     u2720:
  4074  0DFD                     l2056:
  4075  0DFD  3002               	movlw	2
  4076  0DFE  0237               	subwf	___xxtofl@exp,w
  4077  0DFF  1803               	skipnc
  4078  0E00  2E02               	goto	u2731
  4079  0E01  2E03               	goto	u2730
  4080  0E02                     u2731:
  4081  0E02  2DEE               	goto	l2052
  4082  0E03                     u2730:
  4083  0E03                     l746:
  4084  0E03  1837               	btfsc	___xxtofl@exp,0
  4085  0E04  2E06               	goto	u2741
  4086  0E05  2E07               	goto	u2740
  4087  0E06                     u2741:
  4088  0E06  2E0F               	goto	l747
  4089  0E07                     u2740:
  4090  0E07                     l2058:
  4091  0E07  30FF               	movlw	255
  4092  0E08  05B8               	andwf	___xxtofl@arg,f
  4093  0E09  30FF               	movlw	255
  4094  0E0A  05B9               	andwf	___xxtofl@arg+1,f
  4095  0E0B  307F               	movlw	127
  4096  0E0C  05BA               	andwf	___xxtofl@arg+2,f
  4097  0E0D  30FF               	movlw	255
  4098  0E0E  05BB               	andwf	___xxtofl@arg+3,f
  4099  0E0F                     l747:
  4100  0E0F  1003               	clrc
  4101  0E10  0CB7               	rrf	___xxtofl@exp,f
  4102  0E11                     l2060:
  4103  0E11  0837               	movf	___xxtofl@exp,w
  4104  0E12  00B2               	movwf	??___xxtofl
  4105  0E13  01B3               	clrf	??___xxtofl+1
  4106  0E14  01B4               	clrf	??___xxtofl+2
  4107  0E15  01B5               	clrf	??___xxtofl+3
  4108  0E16  3018               	movlw	24
  4109  0E17                     u2755:
  4110  0E17  1003               	clrc
  4111  0E18  0DB2               	rlf	??___xxtofl,f
  4112  0E19  0DB3               	rlf	??___xxtofl+1,f
  4113  0E1A  0DB4               	rlf	??___xxtofl+2,f
  4114  0E1B  0DB5               	rlf	??___xxtofl+3,f
  4115  0E1C                     u2750:
  4116  0E1C  3EFF               	addlw	-1
  4117  0E1D  1D03               	skipz
  4118  0E1E  2E17               	goto	u2755
  4119  0E1F  0832               	movf	??___xxtofl,w
  4120  0E20  04B8               	iorwf	___xxtofl@arg,f
  4121  0E21  0833               	movf	??___xxtofl+1,w
  4122  0E22  04B9               	iorwf	___xxtofl@arg+1,f
  4123  0E23  0834               	movf	??___xxtofl+2,w
  4124  0E24  04BA               	iorwf	___xxtofl@arg+2,f
  4125  0E25  0835               	movf	??___xxtofl+3,w
  4126  0E26  04BB               	iorwf	___xxtofl@arg+3,f
  4127  0E27                     l2062:
  4128  0E27  0836               	movf	___xxtofl@sign,w
  4129  0E28  1903               	btfsc	3,2
  4130  0E29  2E2B               	goto	u2761
  4131  0E2A  2E2C               	goto	u2760
  4132  0E2B                     u2761:
  4133  0E2B  2E31               	goto	l2068
  4134  0E2C                     u2760:
  4135  0E2C                     l2064:
  4136  0E2C  1FB1               	btfss	___xxtofl@val+3,7
  4137  0E2D  2E2F               	goto	u2771
  4138  0E2E  2E30               	goto	u2770
  4139  0E2F                     u2771:
  4140  0E2F  2E31               	goto	l2068
  4141  0E30                     u2770:
  4142  0E30                     l2066:
  4143  0E30  17BB               	bsf	___xxtofl@arg+3,7
  4144  0E31                     l2068:
  4145  0E31  083B               	movf	___xxtofl@arg+3,w
  4146  0E32  00B1               	movwf	?___xxtofl+3
  4147  0E33  083A               	movf	___xxtofl@arg+2,w
  4148  0E34  00B0               	movwf	?___xxtofl+2
  4149  0E35  0839               	movf	___xxtofl@arg+1,w
  4150  0E36  00AF               	movwf	?___xxtofl+1
  4151  0E37  0838               	movf	___xxtofl@arg,w
  4152  0E38  00AE               	movwf	?___xxtofl
  4153  0E39                     l735:
  4154  0E39  0008               	return
  4155  0E3A                     __end_of___xxtofl:
  4156                           
  4157                           	psect	text21
  4158  0C65                     __ptext21:	
  4159 ;; *************** function ___fltol *****************
  4160 ;; Defined at:
  4161 ;;		line 43 in file "C:\Program Files\Microchip\xc8\v2.32\pic\sources\c90\common\fltol.c"
  4162 ;; Parameters:    Size  Location     Type
  4163 ;;  f1              4    6[BANK0 ] unsigned char 
  4164 ;; Auto vars:     Size  Location     Type
  4165 ;;  exp1            1   11[BANK0 ] unsigned char 
  4166 ;;  sign1           1   10[BANK0 ] unsigned char 
  4167 ;; Return value:  Size  Location     Type
  4168 ;;                  4    6[BANK0 ] long 
  4169 ;; Registers used:
  4170 ;;		wreg, status,2, status,0
  4171 ;; Tracked objects:
  4172 ;;		On entry : 0/0
  4173 ;;		On exit  : 0/0
  4174 ;;		Unchanged: 0/0
  4175 ;; Data sizes:     COMMON   BANK0   BANK1   BANK3   BANK2
  4176 ;;      Params:         0       4       0       0       0
  4177 ;;      Locals:         0       2       0       0       0
  4178 ;;      Temps:          5       0       0       0       0
  4179 ;;      Totals:         5       6       0       0       0
  4180 ;;Total ram usage:       11 bytes
  4181 ;; Hardware stack levels used: 1
  4182 ;; This function calls:
  4183 ;;		Nothing
  4184 ;; This function is called by:
  4185 ;;		_PWM1_Duty
  4186 ;;		_PWM2_Duty
  4187 ;;		_main
  4188 ;; This function uses a non-reentrant model
  4189 ;;
  4190                           
  4191                           
  4192                           ;psect for function ___fltol
  4193  0C65                     ___fltol:
  4194  0C65                     l1662:	
  4195                           ;incstack = 0
  4196                           ; Regs used in ___fltol: [wreg+status,2+status,0]
  4197                           
  4198  0C65  1003               	clrc
  4199  0C66  1283               	bcf	3,5	;RP0=0, select bank0
  4200  0C67  1303               	bcf	3,6	;RP1=0, select bank0
  4201  0C68  0D28               	rlf	___fltol@f1+2,w
  4202  0C69  0D29               	rlf	___fltol@f1+3,w
  4203  0C6A  00F9               	movwf	??___fltol
  4204  0C6B  0879               	movf	??___fltol,w
  4205  0C6C  00AB               	movwf	___fltol@exp1
  4206  0C6D  082B               	movf	___fltol@exp1,w
  4207  0C6E  1D03               	btfss	3,2
  4208  0C6F  2C71               	goto	u1751
  4209  0C70  2C72               	goto	u1750
  4210  0C71                     u1751:
  4211  0C71  2C7B               	goto	l1668
  4212  0C72                     u1750:
  4213  0C72                     l1664:
  4214  0C72  3000               	movlw	0
  4215  0C73  00A9               	movwf	?___fltol+3
  4216  0C74  3000               	movlw	0
  4217  0C75  00A8               	movwf	?___fltol+2
  4218  0C76  3000               	movlw	0
  4219  0C77  00A7               	movwf	?___fltol+1
  4220  0C78  3000               	movlw	0
  4221  0C79  00A6               	movwf	?___fltol
  4222  0C7A  2CE0               	goto	l486
  4223  0C7B                     l1668:
  4224  0C7B  0826               	movf	___fltol@f1,w
  4225  0C7C  00F9               	movwf	??___fltol
  4226  0C7D  0827               	movf	___fltol@f1+1,w
  4227  0C7E  00FA               	movwf	??___fltol+1
  4228  0C7F  0828               	movf	___fltol@f1+2,w
  4229  0C80  00FB               	movwf	??___fltol+2
  4230  0C81  0829               	movf	___fltol@f1+3,w
  4231  0C82  00FC               	movwf	??___fltol+3
  4232  0C83  301F               	movlw	31
  4233  0C84                     u1765:
  4234  0C84  1003               	clrc
  4235  0C85  0CFC               	rrf	??___fltol+3,f
  4236  0C86  0CFB               	rrf	??___fltol+2,f
  4237  0C87  0CFA               	rrf	??___fltol+1,f
  4238  0C88  0CF9               	rrf	??___fltol,f
  4239  0C89                     u1760:
  4240  0C89  3EFF               	addlw	-1
  4241  0C8A  1D03               	skipz
  4242  0C8B  2C84               	goto	u1765
  4243  0C8C  0879               	movf	??___fltol,w
  4244  0C8D  00FD               	movwf	??___fltol+4
  4245  0C8E  087D               	movf	??___fltol+4,w
  4246  0C8F  00AA               	movwf	___fltol@sign1
  4247  0C90                     l1670:
  4248  0C90  17A8               	bsf	___fltol@f1+2,7
  4249  0C91                     l1672:
  4250  0C91  30FF               	movlw	255
  4251  0C92  05A6               	andwf	___fltol@f1,f
  4252  0C93  30FF               	movlw	255
  4253  0C94  05A7               	andwf	___fltol@f1+1,f
  4254  0C95  30FF               	movlw	255
  4255  0C96  05A8               	andwf	___fltol@f1+2,f
  4256  0C97  3000               	movlw	0
  4257  0C98  05A9               	andwf	___fltol@f1+3,f
  4258  0C99                     l1674:
  4259  0C99  3096               	movlw	150
  4260  0C9A  02AB               	subwf	___fltol@exp1,f
  4261  0C9B                     l1676:
  4262  0C9B  1FAB               	btfss	___fltol@exp1,7
  4263  0C9C  2C9E               	goto	u1771
  4264  0C9D  2C9F               	goto	u1770
  4265  0C9E                     u1771:
  4266  0C9E  2CB9               	goto	l1686
  4267  0C9F                     u1770:
  4268  0C9F                     l1678:
  4269  0C9F  082B               	movf	___fltol@exp1,w
  4270  0CA0  3A80               	xorlw	128
  4271  0CA1  3E97               	addlw	151
  4272  0CA2  1803               	skipnc
  4273  0CA3  2CA5               	goto	u1781
  4274  0CA4  2CA6               	goto	u1780
  4275  0CA5                     u1781:
  4276  0CA5  2CA7               	goto	l1684
  4277  0CA6                     u1780:
  4278  0CA6  2C72               	goto	l1664
  4279  0CA7                     l1684:
  4280  0CA7  3001               	movlw	1
  4281  0CA8                     u1795:
  4282  0CA8  1003               	clrc
  4283  0CA9  0CA9               	rrf	___fltol@f1+3,f
  4284  0CAA  0CA8               	rrf	___fltol@f1+2,f
  4285  0CAB  0CA7               	rrf	___fltol@f1+1,f
  4286  0CAC  0CA6               	rrf	___fltol@f1,f
  4287  0CAD  3EFF               	addlw	-1
  4288  0CAE  1D03               	skipz
  4289  0CAF  2CA8               	goto	u1795
  4290  0CB0  3001               	movlw	1
  4291  0CB1  00F9               	movwf	??___fltol
  4292  0CB2  0879               	movf	??___fltol,w
  4293  0CB3  07AB               	addwf	___fltol@exp1,f
  4294  0CB4  1D03               	btfss	3,2
  4295  0CB5  2CB7               	goto	u1801
  4296  0CB6  2CB8               	goto	u1800
  4297  0CB7                     u1801:
  4298  0CB7  2CA7               	goto	l1684
  4299  0CB8                     u1800:
  4300  0CB8  2CD0               	goto	l1694
  4301  0CB9                     l1686:
  4302  0CB9  3020               	movlw	32
  4303  0CBA  022B               	subwf	___fltol@exp1,w
  4304  0CBB  1C03               	skipc
  4305  0CBC  2CBE               	goto	u1811
  4306  0CBD  2CBF               	goto	u1810
  4307  0CBE                     u1811:
  4308  0CBE  2CCB               	goto	l493
  4309  0CBF                     u1810:
  4310  0CBF  2C72               	goto	l1664
  4311  0CC0                     l1692:
  4312  0CC0  3001               	movlw	1
  4313  0CC1  00F9               	movwf	??___fltol
  4314  0CC2                     u1825:
  4315  0CC2  1003               	clrc
  4316  0CC3  0DA6               	rlf	___fltol@f1,f
  4317  0CC4  0DA7               	rlf	___fltol@f1+1,f
  4318  0CC5  0DA8               	rlf	___fltol@f1+2,f
  4319  0CC6  0DA9               	rlf	___fltol@f1+3,f
  4320  0CC7  0BF9               	decfsz	??___fltol,f
  4321  0CC8  2CC2               	goto	u1825
  4322  0CC9  3001               	movlw	1
  4323  0CCA  02AB               	subwf	___fltol@exp1,f
  4324  0CCB                     l493:
  4325  0CCB  082B               	movf	___fltol@exp1,w
  4326  0CCC  1D03               	btfss	3,2
  4327  0CCD  2CCF               	goto	u1831
  4328  0CCE  2CD0               	goto	u1830
  4329  0CCF                     u1831:
  4330  0CCF  2CC0               	goto	l1692
  4331  0CD0                     u1830:
  4332  0CD0                     l1694:
  4333  0CD0  082A               	movf	___fltol@sign1,w
  4334  0CD1  1903               	btfsc	3,2
  4335  0CD2  2CD4               	goto	u1841
  4336  0CD3  2CD5               	goto	u1840
  4337  0CD4                     u1841:
  4338  0CD4  2CE0               	goto	l496
  4339  0CD5                     u1840:
  4340  0CD5                     l1696:
  4341  0CD5  09A6               	comf	___fltol@f1,f
  4342  0CD6  09A7               	comf	___fltol@f1+1,f
  4343  0CD7  09A8               	comf	___fltol@f1+2,f
  4344  0CD8  09A9               	comf	___fltol@f1+3,f
  4345  0CD9  0AA6               	incf	___fltol@f1,f
  4346  0CDA  1903               	skipnz
  4347  0CDB  0AA7               	incf	___fltol@f1+1,f
  4348  0CDC  1903               	skipnz
  4349  0CDD  0AA8               	incf	___fltol@f1+2,f
  4350  0CDE  1903               	skipnz
  4351  0CDF  0AA9               	incf	___fltol@f1+3,f
  4352  0CE0                     l496:
  4353  0CE0                     l486:
  4354  0CE0  0008               	return
  4355  0CE1                     __end_of___fltol:
  4356                           
  4357                           	psect	text22
  4358  0477                     __ptext22:	
  4359 ;; *************** function ___flmul *****************
  4360 ;; Defined at:
  4361 ;;		line 8 in file "C:\Program Files\Microchip\xc8\v2.32\pic\sources\c90\common\sprcmul.c"
  4362 ;; Parameters:    Size  Location     Type
  4363 ;;  b               4   54[BANK0 ] long 
  4364 ;;  a               4   58[BANK0 ] long 
  4365 ;; Auto vars:     Size  Location     Type
  4366 ;;  prod            4   74[BANK0 ] struct .
  4367 ;;  grs             4   68[BANK0 ] unsigned long 
  4368 ;;  temp            2   78[BANK0 ] struct .
  4369 ;;  bexp            1   73[BANK0 ] unsigned char 
  4370 ;;  aexp            1   72[BANK0 ] unsigned char 
  4371 ;;  sign            1   67[BANK0 ] unsigned char 
  4372 ;; Return value:  Size  Location     Type
  4373 ;;                  4   54[BANK0 ] unsigned char 
  4374 ;; Registers used:
  4375 ;;		wreg, status,2, status,0, btemp+1, pclath, cstack
  4376 ;; Tracked objects:
  4377 ;;		On entry : 0/0
  4378 ;;		On exit  : 0/0
  4379 ;;		Unchanged: 0/0
  4380 ;; Data sizes:     COMMON   BANK0   BANK1   BANK3   BANK2
  4381 ;;      Params:         0       8       0       0       0
  4382 ;;      Locals:         0      13       0       0       0
  4383 ;;      Temps:          0       5       0       0       0
  4384 ;;      Totals:         0      26       0       0       0
  4385 ;;Total ram usage:       26 bytes
  4386 ;; Hardware stack levels used: 1
  4387 ;; Hardware stack levels required when called: 1
  4388 ;; This function calls:
  4389 ;;		__Umul8_16
  4390 ;; This function is called by:
  4391 ;;		_PWM1_Duty
  4392 ;;		_PWM2_Duty
  4393 ;;		_main
  4394 ;; This function uses a non-reentrant model
  4395 ;;
  4396                           
  4397                           
  4398                           ;psect for function ___flmul
  4399  0477                     ___flmul:
  4400  0477                     l1888:	
  4401                           ;incstack = 0
  4402                           ; Regs used in ___flmul: [wreg+status,2+status,0+btemp+1+pclath+cstack]
  4403                           
  4404  0477  1283               	bcf	3,5	;RP0=0, select bank0
  4405  0478  1303               	bcf	3,6	;RP1=0, select bank0
  4406  0479  0859               	movf	___flmul@b+3,w
  4407  047A  3980               	andlw	128
  4408  047B  00DE               	movwf	??___flmul
  4409  047C  085E               	movf	??___flmul,w
  4410  047D  00E3               	movwf	___flmul@sign
  4411  047E                     l1890:
  4412  047E  0859               	movf	___flmul@b+3,w
  4413  047F  00DE               	movwf	??___flmul
  4414  0480  075E               	addwf	??___flmul,w
  4415  0481  00DF               	movwf	??___flmul+1
  4416  0482  085F               	movf	??___flmul+1,w
  4417  0483  00E9               	movwf	___flmul@bexp
  4418  0484                     l1892:
  4419  0484  1FD8               	btfss	___flmul@b+2,7
  4420  0485  2C87               	goto	u2271
  4421  0486  2C88               	goto	u2270
  4422  0487                     u2271:
  4423  0487  2C89               	goto	l1896
  4424  0488                     u2270:
  4425  0488                     l1894:
  4426  0488  1469               	bsf	___flmul@bexp,0
  4427  0489                     l1896:
  4428  0489  0869               	movf	___flmul@bexp,w
  4429  048A  1903               	btfsc	3,2
  4430  048B  2C8D               	goto	u2281
  4431  048C  2C8E               	goto	u2280
  4432  048D                     u2281:
  4433  048D  2C9D               	goto	l1904
  4434  048E                     u2280:
  4435  048E                     l1898:
  4436  048E  0A69               	incf	___flmul@bexp,w
  4437  048F  1D03               	btfss	3,2
  4438  0490  2C92               	goto	u2291
  4439  0491  2C93               	goto	u2290
  4440  0492                     u2291:
  4441  0492  2C9B               	goto	l1902
  4442  0493                     u2290:
  4443  0493                     l1900:
  4444  0493  3000               	movlw	0
  4445  0494  00D9               	movwf	___flmul@b+3
  4446  0495  3000               	movlw	0
  4447  0496  00D8               	movwf	___flmul@b+2
  4448  0497  3000               	movlw	0
  4449  0498  00D7               	movwf	___flmul@b+1
  4450  0499  3000               	movlw	0
  4451  049A  00D6               	movwf	___flmul@b
  4452  049B                     l1902:
  4453  049B  17D8               	bsf	___flmul@b+2,7
  4454  049C  2CA5               	goto	l1906
  4455  049D                     l1904:
  4456  049D  3000               	movlw	0
  4457  049E  00D9               	movwf	___flmul@b+3
  4458  049F  3000               	movlw	0
  4459  04A0  00D8               	movwf	___flmul@b+2
  4460  04A1  3000               	movlw	0
  4461  04A2  00D7               	movwf	___flmul@b+1
  4462  04A3  3000               	movlw	0
  4463  04A4  00D6               	movwf	___flmul@b
  4464  04A5                     l1906:
  4465  04A5  085D               	movf	___flmul@a+3,w
  4466  04A6  3980               	andlw	128
  4467  04A7  00DE               	movwf	??___flmul
  4468  04A8  085E               	movf	??___flmul,w
  4469  04A9  06E3               	xorwf	___flmul@sign,f
  4470  04AA                     l1908:
  4471  04AA  085D               	movf	___flmul@a+3,w
  4472  04AB  00DE               	movwf	??___flmul
  4473  04AC  075E               	addwf	??___flmul,w
  4474  04AD  00DF               	movwf	??___flmul+1
  4475  04AE  085F               	movf	??___flmul+1,w
  4476  04AF  00E8               	movwf	___flmul@aexp
  4477  04B0                     l1910:
  4478  04B0  1FDC               	btfss	___flmul@a+2,7
  4479  04B1  2CB3               	goto	u2301
  4480  04B2  2CB4               	goto	u2300
  4481  04B3                     u2301:
  4482  04B3  2CB5               	goto	l1914
  4483  04B4                     u2300:
  4484  04B4                     l1912:
  4485  04B4  1468               	bsf	___flmul@aexp,0
  4486  04B5                     l1914:
  4487  04B5  0868               	movf	___flmul@aexp,w
  4488  04B6  1903               	btfsc	3,2
  4489  04B7  2CB9               	goto	u2311
  4490  04B8  2CBA               	goto	u2310
  4491  04B9                     u2311:
  4492  04B9  2CC9               	goto	l1922
  4493  04BA                     u2310:
  4494  04BA                     l1916:
  4495  04BA  0A68               	incf	___flmul@aexp,w
  4496  04BB  1D03               	btfss	3,2
  4497  04BC  2CBE               	goto	u2321
  4498  04BD  2CBF               	goto	u2320
  4499  04BE                     u2321:
  4500  04BE  2CC7               	goto	l1920
  4501  04BF                     u2320:
  4502  04BF                     l1918:
  4503  04BF  3000               	movlw	0
  4504  04C0  00DD               	movwf	___flmul@a+3
  4505  04C1  3000               	movlw	0
  4506  04C2  00DC               	movwf	___flmul@a+2
  4507  04C3  3000               	movlw	0
  4508  04C4  00DB               	movwf	___flmul@a+1
  4509  04C5  3000               	movlw	0
  4510  04C6  00DA               	movwf	___flmul@a
  4511  04C7                     l1920:
  4512  04C7  17DC               	bsf	___flmul@a+2,7
  4513  04C8  2CD1               	goto	l1924
  4514  04C9                     l1922:
  4515  04C9  3000               	movlw	0
  4516  04CA  00DD               	movwf	___flmul@a+3
  4517  04CB  3000               	movlw	0
  4518  04CC  00DC               	movwf	___flmul@a+2
  4519  04CD  3000               	movlw	0
  4520  04CE  00DB               	movwf	___flmul@a+1
  4521  04CF  3000               	movlw	0
  4522  04D0  00DA               	movwf	___flmul@a
  4523  04D1                     l1924:
  4524  04D1  0868               	movf	___flmul@aexp,w
  4525  04D2  1903               	btfsc	3,2
  4526  04D3  2CD5               	goto	u2331
  4527  04D4  2CD6               	goto	u2330
  4528  04D5                     u2331:
  4529  04D5  2CDB               	goto	l1928
  4530  04D6                     u2330:
  4531  04D6                     l1926:
  4532  04D6  0869               	movf	___flmul@bexp,w
  4533  04D7  1D03               	btfss	3,2
  4534  04D8  2CDA               	goto	u2341
  4535  04D9  2CDB               	goto	u2340
  4536  04DA                     u2341:
  4537  04DA  2CE4               	goto	l1932
  4538  04DB                     u2340:
  4539  04DB                     l1928:
  4540  04DB  3000               	movlw	0
  4541  04DC  00D9               	movwf	?___flmul+3
  4542  04DD  3000               	movlw	0
  4543  04DE  00D8               	movwf	?___flmul+2
  4544  04DF  3000               	movlw	0
  4545  04E0  00D7               	movwf	?___flmul+1
  4546  04E1  3000               	movlw	0
  4547  04E2  00D6               	movwf	?___flmul
  4548  04E3  2FD7               	goto	l689
  4549  04E4                     l1932:
  4550  04E4  0856               	movf	___flmul@b,w
  4551  04E5  00DE               	movwf	??___flmul
  4552  04E6  085E               	movf	??___flmul,w
  4553  04E7  00F0               	movwf	__Umul8_16@multiplicand
  4554  04E8  085C               	movf	___flmul@a+2,w
  4555  04E9  120A  158A  2222  120A  118A  	fcall	__Umul8_16
  4556  04EE  0871               	movf	?__Umul8_16+1,w
  4557  04EF  1283               	bcf	3,5	;RP0=0, select bank0
  4558  04F0  1303               	bcf	3,6	;RP1=0, select bank0
  4559  04F1  00EF               	movwf	___flmul@temp+1
  4560  04F2  0870               	movf	?__Umul8_16,w
  4561  04F3  00EE               	movwf	___flmul@temp
  4562  04F4                     l1934:
  4563  04F4  086E               	movf	___flmul@temp,w
  4564  04F5  00DE               	movwf	??___flmul
  4565  04F6  01DF               	clrf	??___flmul+1
  4566  04F7  01E0               	clrf	??___flmul+2
  4567  04F8  01E1               	clrf	??___flmul+3
  4568  04F9  0861               	movf	??___flmul+3,w
  4569  04FA  00E7               	movwf	___flmul@grs+3
  4570  04FB  0860               	movf	??___flmul+2,w
  4571  04FC  00E6               	movwf	___flmul@grs+2
  4572  04FD  085F               	movf	??___flmul+1,w
  4573  04FE  00E5               	movwf	___flmul@grs+1
  4574  04FF  085E               	movf	??___flmul,w
  4575  0500  00E4               	movwf	___flmul@grs
  4576  0501                     l1936:
  4577  0501  086F               	movf	___flmul@temp+1,w
  4578  0502  00DE               	movwf	??___flmul
  4579  0503  01DF               	clrf	??___flmul+1
  4580  0504  01E0               	clrf	??___flmul+2
  4581  0505  01E1               	clrf	??___flmul+3
  4582  0506  0861               	movf	??___flmul+3,w
  4583  0507  00ED               	movwf	___flmul@prod+3
  4584  0508  0860               	movf	??___flmul+2,w
  4585  0509  00EC               	movwf	___flmul@prod+2
  4586  050A  085F               	movf	??___flmul+1,w
  4587  050B  00EB               	movwf	___flmul@prod+1
  4588  050C  085E               	movf	??___flmul,w
  4589  050D  00EA               	movwf	___flmul@prod
  4590  050E  0857               	movf	___flmul@b+1,w
  4591  050F  00DE               	movwf	??___flmul
  4592  0510  085E               	movf	??___flmul,w
  4593  0511  00F0               	movwf	__Umul8_16@multiplicand
  4594  0512  085B               	movf	___flmul@a+1,w
  4595  0513  120A  158A  2222  120A  118A  	fcall	__Umul8_16
  4596  0518  0871               	movf	?__Umul8_16+1,w
  4597  0519  1283               	bcf	3,5	;RP0=0, select bank0
  4598  051A  1303               	bcf	3,6	;RP1=0, select bank0
  4599  051B  00EF               	movwf	___flmul@temp+1
  4600  051C  0870               	movf	?__Umul8_16,w
  4601  051D  00EE               	movwf	___flmul@temp
  4602  051E                     l1938:
  4603  051E  086E               	movf	___flmul@temp,w
  4604  051F  00DE               	movwf	??___flmul
  4605  0520  01DF               	clrf	??___flmul+1
  4606  0521  01E0               	clrf	??___flmul+2
  4607  0522  01E1               	clrf	??___flmul+3
  4608  0523  085E               	movf	??___flmul,w
  4609  0524  07E4               	addwf	___flmul@grs,f
  4610  0525  085F               	movf	??___flmul+1,w
  4611  0526  1103               	clrz
  4612  0527  1803               	skipnc
  4613  0528  3E01               	addlw	1
  4614  0529  1903               	skipnz
  4615  052A  2D2C               	goto	u2351
  4616  052B  07E5               	addwf	___flmul@grs+1,f
  4617  052C                     u2351:
  4618  052C  0860               	movf	??___flmul+2,w
  4619  052D  1103               	clrz
  4620  052E  1803               	skipnc
  4621  052F  3E01               	addlw	1
  4622  0530  1903               	skipnz
  4623  0531  2D33               	goto	u2352
  4624  0532  07E6               	addwf	___flmul@grs+2,f
  4625  0533                     u2352:
  4626  0533  0861               	movf	??___flmul+3,w
  4627  0534  1103               	clrz
  4628  0535  1803               	skipnc
  4629  0536  3E01               	addlw	1
  4630  0537  1903               	skipnz
  4631  0538  2D3A               	goto	u2353
  4632  0539  07E7               	addwf	___flmul@grs+3,f
  4633  053A                     u2353:
  4634  053A                     l1940:
  4635  053A  086F               	movf	___flmul@temp+1,w
  4636  053B  00DE               	movwf	??___flmul
  4637  053C  01DF               	clrf	??___flmul+1
  4638  053D  01E0               	clrf	??___flmul+2
  4639  053E  01E1               	clrf	??___flmul+3
  4640  053F  085E               	movf	??___flmul,w
  4641  0540  07EA               	addwf	___flmul@prod,f
  4642  0541  085F               	movf	??___flmul+1,w
  4643  0542  1103               	clrz
  4644  0543  1803               	skipnc
  4645  0544  3E01               	addlw	1
  4646  0545  1903               	skipnz
  4647  0546  2D48               	goto	u2361
  4648  0547  07EB               	addwf	___flmul@prod+1,f
  4649  0548                     u2361:
  4650  0548  0860               	movf	??___flmul+2,w
  4651  0549  1103               	clrz
  4652  054A  1803               	skipnc
  4653  054B  3E01               	addlw	1
  4654  054C  1903               	skipnz
  4655  054D  2D4F               	goto	u2362
  4656  054E  07EC               	addwf	___flmul@prod+2,f
  4657  054F                     u2362:
  4658  054F  0861               	movf	??___flmul+3,w
  4659  0550  1103               	clrz
  4660  0551  1803               	skipnc
  4661  0552  3E01               	addlw	1
  4662  0553  1903               	skipnz
  4663  0554  2D56               	goto	u2363
  4664  0555  07ED               	addwf	___flmul@prod+3,f
  4665  0556                     u2363:
  4666  0556  0858               	movf	___flmul@b+2,w
  4667  0557  00DE               	movwf	??___flmul
  4668  0558  085E               	movf	??___flmul,w
  4669  0559  00F0               	movwf	__Umul8_16@multiplicand
  4670  055A  085A               	movf	___flmul@a,w
  4671  055B  120A  158A  2222  120A  118A  	fcall	__Umul8_16
  4672  0560  0871               	movf	?__Umul8_16+1,w
  4673  0561  1283               	bcf	3,5	;RP0=0, select bank0
  4674  0562  1303               	bcf	3,6	;RP1=0, select bank0
  4675  0563  00EF               	movwf	___flmul@temp+1
  4676  0564  0870               	movf	?__Umul8_16,w
  4677  0565  00EE               	movwf	___flmul@temp
  4678  0566                     l1942:
  4679  0566  086E               	movf	___flmul@temp,w
  4680  0567  00DE               	movwf	??___flmul
  4681  0568  01DF               	clrf	??___flmul+1
  4682  0569  01E0               	clrf	??___flmul+2
  4683  056A  01E1               	clrf	??___flmul+3
  4684  056B  085E               	movf	??___flmul,w
  4685  056C  07E4               	addwf	___flmul@grs,f
  4686  056D  085F               	movf	??___flmul+1,w
  4687  056E  1103               	clrz
  4688  056F  1803               	skipnc
  4689  0570  3E01               	addlw	1
  4690  0571  1903               	skipnz
  4691  0572  2D74               	goto	u2371
  4692  0573  07E5               	addwf	___flmul@grs+1,f
  4693  0574                     u2371:
  4694  0574  0860               	movf	??___flmul+2,w
  4695  0575  1103               	clrz
  4696  0576  1803               	skipnc
  4697  0577  3E01               	addlw	1
  4698  0578  1903               	skipnz
  4699  0579  2D7B               	goto	u2372
  4700  057A  07E6               	addwf	___flmul@grs+2,f
  4701  057B                     u2372:
  4702  057B  0861               	movf	??___flmul+3,w
  4703  057C  1103               	clrz
  4704  057D  1803               	skipnc
  4705  057E  3E01               	addlw	1
  4706  057F  1903               	skipnz
  4707  0580  2D82               	goto	u2373
  4708  0581  07E7               	addwf	___flmul@grs+3,f
  4709  0582                     u2373:
  4710  0582                     l1944:
  4711  0582  086F               	movf	___flmul@temp+1,w
  4712  0583  00DE               	movwf	??___flmul
  4713  0584  01DF               	clrf	??___flmul+1
  4714  0585  01E0               	clrf	??___flmul+2
  4715  0586  01E1               	clrf	??___flmul+3
  4716  0587  085E               	movf	??___flmul,w
  4717  0588  07EA               	addwf	___flmul@prod,f
  4718  0589  085F               	movf	??___flmul+1,w
  4719  058A  1103               	clrz
  4720  058B  1803               	skipnc
  4721  058C  3E01               	addlw	1
  4722  058D  1903               	skipnz
  4723  058E  2D90               	goto	u2381
  4724  058F  07EB               	addwf	___flmul@prod+1,f
  4725  0590                     u2381:
  4726  0590  0860               	movf	??___flmul+2,w
  4727  0591  1103               	clrz
  4728  0592  1803               	skipnc
  4729  0593  3E01               	addlw	1
  4730  0594  1903               	skipnz
  4731  0595  2D97               	goto	u2382
  4732  0596  07EC               	addwf	___flmul@prod+2,f
  4733  0597                     u2382:
  4734  0597  0861               	movf	??___flmul+3,w
  4735  0598  1103               	clrz
  4736  0599  1803               	skipnc
  4737  059A  3E01               	addlw	1
  4738  059B  1903               	skipnz
  4739  059C  2D9E               	goto	u2383
  4740  059D  07ED               	addwf	___flmul@prod+3,f
  4741  059E                     u2383:
  4742  059E                     l1946:
  4743  059E  3008               	movlw	8
  4744  059F  00DE               	movwf	??___flmul
  4745  05A0                     u2395:
  4746  05A0  1003               	clrc
  4747  05A1  0DE4               	rlf	___flmul@grs,f
  4748  05A2  0DE5               	rlf	___flmul@grs+1,f
  4749  05A3  0DE6               	rlf	___flmul@grs+2,f
  4750  05A4  0DE7               	rlf	___flmul@grs+3,f
  4751  05A5  0BDE               	decfsz	??___flmul,f
  4752  05A6  2DA0               	goto	u2395
  4753  05A7                     l1948:
  4754  05A7  0857               	movf	___flmul@b+1,w
  4755  05A8  00DE               	movwf	??___flmul
  4756  05A9  085E               	movf	??___flmul,w
  4757  05AA  00F0               	movwf	__Umul8_16@multiplicand
  4758  05AB  085A               	movf	___flmul@a,w
  4759  05AC  120A  158A  2222  120A  118A  	fcall	__Umul8_16
  4760  05B1  0871               	movf	?__Umul8_16+1,w
  4761  05B2  1283               	bcf	3,5	;RP0=0, select bank0
  4762  05B3  1303               	bcf	3,6	;RP1=0, select bank0
  4763  05B4  00EF               	movwf	___flmul@temp+1
  4764  05B5  0870               	movf	?__Umul8_16,w
  4765  05B6  00EE               	movwf	___flmul@temp
  4766  05B7                     l1950:
  4767  05B7  086E               	movf	___flmul@temp,w
  4768  05B8  00DE               	movwf	??___flmul
  4769  05B9  086F               	movf	___flmul@temp+1,w
  4770  05BA  00DF               	movwf	??___flmul+1
  4771  05BB  01E0               	clrf	??___flmul+2
  4772  05BC  01E1               	clrf	??___flmul+3
  4773  05BD  085E               	movf	??___flmul,w
  4774  05BE  07E4               	addwf	___flmul@grs,f
  4775  05BF  085F               	movf	??___flmul+1,w
  4776  05C0  1103               	clrz
  4777  05C1  1803               	skipnc
  4778  05C2  3E01               	addlw	1
  4779  05C3  1903               	skipnz
  4780  05C4  2DC6               	goto	u2401
  4781  05C5  07E5               	addwf	___flmul@grs+1,f
  4782  05C6                     u2401:
  4783  05C6  0860               	movf	??___flmul+2,w
  4784  05C7  1103               	clrz
  4785  05C8  1803               	skipnc
  4786  05C9  3E01               	addlw	1
  4787  05CA  1903               	skipnz
  4788  05CB  2DCD               	goto	u2402
  4789  05CC  07E6               	addwf	___flmul@grs+2,f
  4790  05CD                     u2402:
  4791  05CD  0861               	movf	??___flmul+3,w
  4792  05CE  1103               	clrz
  4793  05CF  1803               	skipnc
  4794  05D0  3E01               	addlw	1
  4795  05D1  1903               	skipnz
  4796  05D2  2DD4               	goto	u2403
  4797  05D3  07E7               	addwf	___flmul@grs+3,f
  4798  05D4                     u2403:
  4799  05D4                     l1952:
  4800  05D4  0856               	movf	___flmul@b,w
  4801  05D5  00DE               	movwf	??___flmul
  4802  05D6  085E               	movf	??___flmul,w
  4803  05D7  00F0               	movwf	__Umul8_16@multiplicand
  4804  05D8  085B               	movf	___flmul@a+1,w
  4805  05D9  120A  158A  2222  120A  118A  	fcall	__Umul8_16
  4806  05DE  0871               	movf	?__Umul8_16+1,w
  4807  05DF  1283               	bcf	3,5	;RP0=0, select bank0
  4808  05E0  1303               	bcf	3,6	;RP1=0, select bank0
  4809  05E1  00EF               	movwf	___flmul@temp+1
  4810  05E2  0870               	movf	?__Umul8_16,w
  4811  05E3  00EE               	movwf	___flmul@temp
  4812  05E4                     l1954:
  4813  05E4  086E               	movf	___flmul@temp,w
  4814  05E5  00DE               	movwf	??___flmul
  4815  05E6  086F               	movf	___flmul@temp+1,w
  4816  05E7  00DF               	movwf	??___flmul+1
  4817  05E8  01E0               	clrf	??___flmul+2
  4818  05E9  01E1               	clrf	??___flmul+3
  4819  05EA  085E               	movf	??___flmul,w
  4820  05EB  07E4               	addwf	___flmul@grs,f
  4821  05EC  085F               	movf	??___flmul+1,w
  4822  05ED  1103               	clrz
  4823  05EE  1803               	skipnc
  4824  05EF  3E01               	addlw	1
  4825  05F0  1903               	skipnz
  4826  05F1  2DF3               	goto	u2411
  4827  05F2  07E5               	addwf	___flmul@grs+1,f
  4828  05F3                     u2411:
  4829  05F3  0860               	movf	??___flmul+2,w
  4830  05F4  1103               	clrz
  4831  05F5  1803               	skipnc
  4832  05F6  3E01               	addlw	1
  4833  05F7  1903               	skipnz
  4834  05F8  2DFA               	goto	u2412
  4835  05F9  07E6               	addwf	___flmul@grs+2,f
  4836  05FA                     u2412:
  4837  05FA  0861               	movf	??___flmul+3,w
  4838  05FB  1103               	clrz
  4839  05FC  1803               	skipnc
  4840  05FD  3E01               	addlw	1
  4841  05FE  1903               	skipnz
  4842  05FF  2E01               	goto	u2413
  4843  0600  07E7               	addwf	___flmul@grs+3,f
  4844  0601                     u2413:
  4845  0601                     l1956:
  4846  0601  3008               	movlw	8
  4847  0602  00DE               	movwf	??___flmul
  4848  0603                     u2425:
  4849  0603  1003               	clrc
  4850  0604  0DE4               	rlf	___flmul@grs,f
  4851  0605  0DE5               	rlf	___flmul@grs+1,f
  4852  0606  0DE6               	rlf	___flmul@grs+2,f
  4853  0607  0DE7               	rlf	___flmul@grs+3,f
  4854  0608  0BDE               	decfsz	??___flmul,f
  4855  0609  2E03               	goto	u2425
  4856  060A  0856               	movf	___flmul@b,w
  4857  060B  00DE               	movwf	??___flmul
  4858  060C  085E               	movf	??___flmul,w
  4859  060D  00F0               	movwf	__Umul8_16@multiplicand
  4860  060E  085A               	movf	___flmul@a,w
  4861  060F  120A  158A  2222  120A  118A  	fcall	__Umul8_16
  4862  0614  0871               	movf	?__Umul8_16+1,w
  4863  0615  1283               	bcf	3,5	;RP0=0, select bank0
  4864  0616  1303               	bcf	3,6	;RP1=0, select bank0
  4865  0617  00EF               	movwf	___flmul@temp+1
  4866  0618  0870               	movf	?__Umul8_16,w
  4867  0619  00EE               	movwf	___flmul@temp
  4868  061A                     l1958:
  4869  061A  086E               	movf	___flmul@temp,w
  4870  061B  00DE               	movwf	??___flmul
  4871  061C  086F               	movf	___flmul@temp+1,w
  4872  061D  00DF               	movwf	??___flmul+1
  4873  061E  01E0               	clrf	??___flmul+2
  4874  061F  01E1               	clrf	??___flmul+3
  4875  0620  085E               	movf	??___flmul,w
  4876  0621  07E4               	addwf	___flmul@grs,f
  4877  0622  085F               	movf	??___flmul+1,w
  4878  0623  1103               	clrz
  4879  0624  1803               	skipnc
  4880  0625  3E01               	addlw	1
  4881  0626  1903               	skipnz
  4882  0627  2E29               	goto	u2431
  4883  0628  07E5               	addwf	___flmul@grs+1,f
  4884  0629                     u2431:
  4885  0629  0860               	movf	??___flmul+2,w
  4886  062A  1103               	clrz
  4887  062B  1803               	skipnc
  4888  062C  3E01               	addlw	1
  4889  062D  1903               	skipnz
  4890  062E  2E30               	goto	u2432
  4891  062F  07E6               	addwf	___flmul@grs+2,f
  4892  0630                     u2432:
  4893  0630  0861               	movf	??___flmul+3,w
  4894  0631  1103               	clrz
  4895  0632  1803               	skipnc
  4896  0633  3E01               	addlw	1
  4897  0634  1903               	skipnz
  4898  0635  2E37               	goto	u2433
  4899  0636  07E7               	addwf	___flmul@grs+3,f
  4900  0637                     u2433:
  4901  0637                     l1960:
  4902  0637  0857               	movf	___flmul@b+1,w
  4903  0638  00DE               	movwf	??___flmul
  4904  0639  085E               	movf	??___flmul,w
  4905  063A  00F0               	movwf	__Umul8_16@multiplicand
  4906  063B  085C               	movf	___flmul@a+2,w
  4907  063C  120A  158A  2222  120A  118A  	fcall	__Umul8_16
  4908  0641  0871               	movf	?__Umul8_16+1,w
  4909  0642  1283               	bcf	3,5	;RP0=0, select bank0
  4910  0643  1303               	bcf	3,6	;RP1=0, select bank0
  4911  0644  00EF               	movwf	___flmul@temp+1
  4912  0645  0870               	movf	?__Umul8_16,w
  4913  0646  00EE               	movwf	___flmul@temp
  4914  0647  086E               	movf	___flmul@temp,w
  4915  0648  00DE               	movwf	??___flmul
  4916  0649  086F               	movf	___flmul@temp+1,w
  4917  064A  00DF               	movwf	??___flmul+1
  4918  064B  01E0               	clrf	??___flmul+2
  4919  064C  01E1               	clrf	??___flmul+3
  4920  064D  085E               	movf	??___flmul,w
  4921  064E  07EA               	addwf	___flmul@prod,f
  4922  064F  085F               	movf	??___flmul+1,w
  4923  0650  1103               	clrz
  4924  0651  1803               	skipnc
  4925  0652  3E01               	addlw	1
  4926  0653  1903               	skipnz
  4927  0654  2E56               	goto	u2441
  4928  0655  07EB               	addwf	___flmul@prod+1,f
  4929  0656                     u2441:
  4930  0656  0860               	movf	??___flmul+2,w
  4931  0657  1103               	clrz
  4932  0658  1803               	skipnc
  4933  0659  3E01               	addlw	1
  4934  065A  1903               	skipnz
  4935  065B  2E5D               	goto	u2442
  4936  065C  07EC               	addwf	___flmul@prod+2,f
  4937  065D                     u2442:
  4938  065D  0861               	movf	??___flmul+3,w
  4939  065E  1103               	clrz
  4940  065F  1803               	skipnc
  4941  0660  3E01               	addlw	1
  4942  0661  1903               	skipnz
  4943  0662  2E64               	goto	u2443
  4944  0663  07ED               	addwf	___flmul@prod+3,f
  4945  0664                     u2443:
  4946  0664                     l1962:
  4947  0664  0858               	movf	___flmul@b+2,w
  4948  0665  00DE               	movwf	??___flmul
  4949  0666  085E               	movf	??___flmul,w
  4950  0667  00F0               	movwf	__Umul8_16@multiplicand
  4951  0668  085B               	movf	___flmul@a+1,w
  4952  0669  120A  158A  2222  120A  118A  	fcall	__Umul8_16
  4953  066E  0871               	movf	?__Umul8_16+1,w
  4954  066F  1283               	bcf	3,5	;RP0=0, select bank0
  4955  0670  1303               	bcf	3,6	;RP1=0, select bank0
  4956  0671  00EF               	movwf	___flmul@temp+1
  4957  0672  0870               	movf	?__Umul8_16,w
  4958  0673  00EE               	movwf	___flmul@temp
  4959  0674                     l1964:
  4960  0674  086E               	movf	___flmul@temp,w
  4961  0675  00DE               	movwf	??___flmul
  4962  0676  086F               	movf	___flmul@temp+1,w
  4963  0677  00DF               	movwf	??___flmul+1
  4964  0678  01E0               	clrf	??___flmul+2
  4965  0679  01E1               	clrf	??___flmul+3
  4966  067A  085E               	movf	??___flmul,w
  4967  067B  07EA               	addwf	___flmul@prod,f
  4968  067C  085F               	movf	??___flmul+1,w
  4969  067D  1103               	clrz
  4970  067E  1803               	skipnc
  4971  067F  3E01               	addlw	1
  4972  0680  1903               	skipnz
  4973  0681  2E83               	goto	u2451
  4974  0682  07EB               	addwf	___flmul@prod+1,f
  4975  0683                     u2451:
  4976  0683  0860               	movf	??___flmul+2,w
  4977  0684  1103               	clrz
  4978  0685  1803               	skipnc
  4979  0686  3E01               	addlw	1
  4980  0687  1903               	skipnz
  4981  0688  2E8A               	goto	u2452
  4982  0689  07EC               	addwf	___flmul@prod+2,f
  4983  068A                     u2452:
  4984  068A  0861               	movf	??___flmul+3,w
  4985  068B  1103               	clrz
  4986  068C  1803               	skipnc
  4987  068D  3E01               	addlw	1
  4988  068E  1903               	skipnz
  4989  068F  2E91               	goto	u2453
  4990  0690  07ED               	addwf	___flmul@prod+3,f
  4991  0691                     u2453:
  4992  0691  0858               	movf	___flmul@b+2,w
  4993  0692  00DE               	movwf	??___flmul
  4994  0693  085E               	movf	??___flmul,w
  4995  0694  00F0               	movwf	__Umul8_16@multiplicand
  4996  0695  085C               	movf	___flmul@a+2,w
  4997  0696  120A  158A  2222  120A  118A  	fcall	__Umul8_16
  4998  069B  0871               	movf	?__Umul8_16+1,w
  4999  069C  1283               	bcf	3,5	;RP0=0, select bank0
  5000  069D  1303               	bcf	3,6	;RP1=0, select bank0
  5001  069E  00EF               	movwf	___flmul@temp+1
  5002  069F  0870               	movf	?__Umul8_16,w
  5003  06A0  00EE               	movwf	___flmul@temp
  5004  06A1                     l1966:
  5005  06A1  086E               	movf	___flmul@temp,w
  5006  06A2  00DE               	movwf	??___flmul
  5007  06A3  086F               	movf	___flmul@temp+1,w
  5008  06A4  00DF               	movwf	??___flmul+1
  5009  06A5  01E0               	clrf	??___flmul+2
  5010  06A6  01E1               	clrf	??___flmul+3
  5011  06A7  3008               	movlw	8
  5012  06A8                     u2465:
  5013  06A8  1003               	clrc
  5014  06A9  0DDE               	rlf	??___flmul,f
  5015  06AA  0DDF               	rlf	??___flmul+1,f
  5016  06AB  0DE0               	rlf	??___flmul+2,f
  5017  06AC  0DE1               	rlf	??___flmul+3,f
  5018  06AD                     u2460:
  5019  06AD  3EFF               	addlw	-1
  5020  06AE  1D03               	skipz
  5021  06AF  2EA8               	goto	u2465
  5022  06B0  085E               	movf	??___flmul,w
  5023  06B1  07EA               	addwf	___flmul@prod,f
  5024  06B2  085F               	movf	??___flmul+1,w
  5025  06B3  1103               	clrz
  5026  06B4  1803               	skipnc
  5027  06B5  3E01               	addlw	1
  5028  06B6  1903               	skipnz
  5029  06B7  2EB9               	goto	u2471
  5030  06B8  07EB               	addwf	___flmul@prod+1,f
  5031  06B9                     u2471:
  5032  06B9  0860               	movf	??___flmul+2,w
  5033  06BA  1103               	clrz
  5034  06BB  1803               	skipnc
  5035  06BC  3E01               	addlw	1
  5036  06BD  1903               	skipnz
  5037  06BE  2EC0               	goto	u2472
  5038  06BF  07EC               	addwf	___flmul@prod+2,f
  5039  06C0                     u2472:
  5040  06C0  0861               	movf	??___flmul+3,w
  5041  06C1  1103               	clrz
  5042  06C2  1803               	skipnc
  5043  06C3  3E01               	addlw	1
  5044  06C4  1903               	skipnz
  5045  06C5  2EC7               	goto	u2473
  5046  06C6  07ED               	addwf	___flmul@prod+3,f
  5047  06C7                     u2473:
  5048  06C7                     l1968:
  5049  06C7  0864               	movf	___flmul@grs,w
  5050  06C8  00DE               	movwf	??___flmul
  5051  06C9  0865               	movf	___flmul@grs+1,w
  5052  06CA  00DF               	movwf	??___flmul+1
  5053  06CB  0866               	movf	___flmul@grs+2,w
  5054  06CC  00E0               	movwf	??___flmul+2
  5055  06CD  0867               	movf	___flmul@grs+3,w
  5056  06CE  00E1               	movwf	??___flmul+3
  5057  06CF  3018               	movlw	24
  5058  06D0                     u2485:
  5059  06D0  1003               	clrc
  5060  06D1  0CE1               	rrf	??___flmul+3,f
  5061  06D2  0CE0               	rrf	??___flmul+2,f
  5062  06D3  0CDF               	rrf	??___flmul+1,f
  5063  06D4  0CDE               	rrf	??___flmul,f
  5064  06D5                     u2480:
  5065  06D5  3EFF               	addlw	-1
  5066  06D6  1D03               	skipz
  5067  06D7  2ED0               	goto	u2485
  5068  06D8  085E               	movf	??___flmul,w
  5069  06D9  07EA               	addwf	___flmul@prod,f
  5070  06DA  085F               	movf	??___flmul+1,w
  5071  06DB  1103               	clrz
  5072  06DC  1803               	skipnc
  5073  06DD  3E01               	addlw	1
  5074  06DE  1903               	skipnz
  5075  06DF  2EE1               	goto	u2491
  5076  06E0  07EB               	addwf	___flmul@prod+1,f
  5077  06E1                     u2491:
  5078  06E1  0860               	movf	??___flmul+2,w
  5079  06E2  1103               	clrz
  5080  06E3  1803               	skipnc
  5081  06E4  3E01               	addlw	1
  5082  06E5  1903               	skipnz
  5083  06E6  2EE8               	goto	u2492
  5084  06E7  07EC               	addwf	___flmul@prod+2,f
  5085  06E8                     u2492:
  5086  06E8  0861               	movf	??___flmul+3,w
  5087  06E9  1103               	clrz
  5088  06EA  1803               	skipnc
  5089  06EB  3E01               	addlw	1
  5090  06EC  1903               	skipnz
  5091  06ED  2EEF               	goto	u2493
  5092  06EE  07ED               	addwf	___flmul@prod+3,f
  5093  06EF                     u2493:
  5094  06EF                     l1970:
  5095  06EF  3008               	movlw	8
  5096  06F0  00DE               	movwf	??___flmul
  5097  06F1                     u2505:
  5098  06F1  1003               	clrc
  5099  06F2  0DE4               	rlf	___flmul@grs,f
  5100  06F3  0DE5               	rlf	___flmul@grs+1,f
  5101  06F4  0DE6               	rlf	___flmul@grs+2,f
  5102  06F5  0DE7               	rlf	___flmul@grs+3,f
  5103  06F6  0BDE               	decfsz	??___flmul,f
  5104  06F7  2EF1               	goto	u2505
  5105  06F8                     l1972:
  5106  06F8  0869               	movf	___flmul@bexp,w
  5107  06F9  0768               	addwf	___flmul@aexp,w
  5108  06FA  00DE               	movwf	??___flmul
  5109  06FB  01DF               	clrf	??___flmul+1
  5110  06FC  0DDF               	rlf	??___flmul+1,f
  5111  06FD  085E               	movf	??___flmul,w
  5112  06FE  3E82               	addlw	130
  5113  06FF  00EE               	movwf	___flmul@temp
  5114  0700  085F               	movf	??___flmul+1,w
  5115  0701  1803               	skipnc
  5116  0702  3E01               	addlw	1
  5117  0703  3EFF               	addlw	255
  5118  0704  00EF               	movwf	___flmul@temp+1
  5119  0705  2F23               	goto	l1984
  5120  0706                     l1974:
  5121  0706  3001               	movlw	1
  5122  0707  00DE               	movwf	??___flmul
  5123  0708                     u2515:
  5124  0708  1003               	clrc
  5125  0709  0DEA               	rlf	___flmul@prod,f
  5126  070A  0DEB               	rlf	___flmul@prod+1,f
  5127  070B  0DEC               	rlf	___flmul@prod+2,f
  5128  070C  0DED               	rlf	___flmul@prod+3,f
  5129  070D  0BDE               	decfsz	??___flmul,f
  5130  070E  2F08               	goto	u2515
  5131  070F                     l1976:
  5132  070F  1FE7               	btfss	___flmul@grs+3,7
  5133  0710  2F12               	goto	u2521
  5134  0711  2F13               	goto	u2520
  5135  0712                     u2521:
  5136  0712  2F14               	goto	l1980
  5137  0713                     u2520:
  5138  0713                     l1978:
  5139  0713  146A               	bsf	___flmul@prod,0
  5140  0714                     l1980:
  5141  0714  3001               	movlw	1
  5142  0715  00DE               	movwf	??___flmul
  5143  0716                     u2535:
  5144  0716  1003               	clrc
  5145  0717  0DE4               	rlf	___flmul@grs,f
  5146  0718  0DE5               	rlf	___flmul@grs+1,f
  5147  0719  0DE6               	rlf	___flmul@grs+2,f
  5148  071A  0DE7               	rlf	___flmul@grs+3,f
  5149  071B  0BDE               	decfsz	??___flmul,f
  5150  071C  2F16               	goto	u2535
  5151  071D                     l1982:
  5152  071D  30FF               	movlw	255
  5153  071E  07EE               	addwf	___flmul@temp,f
  5154  071F  1803               	skipnc
  5155  0720  0AEF               	incf	___flmul@temp+1,f
  5156  0721  30FF               	movlw	255
  5157  0722  07EF               	addwf	___flmul@temp+1,f
  5158  0723                     l1984:
  5159  0723  1FEC               	btfss	___flmul@prod+2,7
  5160  0724  2F26               	goto	u2541
  5161  0725  2F27               	goto	u2540
  5162  0726                     u2541:
  5163  0726  2F06               	goto	l1974
  5164  0727                     u2540:
  5165  0727                     l1986:
  5166  0727  01E8               	clrf	___flmul@aexp
  5167  0728                     l1988:
  5168  0728  1FE7               	btfss	___flmul@grs+3,7
  5169  0729  2F2B               	goto	u2551
  5170  072A  2F2C               	goto	u2550
  5171  072B                     u2551:
  5172  072B  2F48               	goto	l1996
  5173  072C                     u2550:
  5174  072C                     l1990:
  5175  072C  30FF               	movlw	255
  5176  072D  0564               	andwf	___flmul@grs,w
  5177  072E  00DE               	movwf	??___flmul
  5178  072F  30FF               	movlw	255
  5179  0730  0565               	andwf	___flmul@grs+1,w
  5180  0731  00DF               	movwf	??___flmul+1
  5181  0732  30FF               	movlw	255
  5182  0733  0566               	andwf	___flmul@grs+2,w
  5183  0734  00E0               	movwf	??___flmul+2
  5184  0735  307F               	movlw	127
  5185  0736  0567               	andwf	___flmul@grs+3,w
  5186  0737  00E1               	movwf	??___flmul+3
  5187  0738  0861               	movf	??___flmul+3,w
  5188  0739  0460               	iorwf	??___flmul+2,w
  5189  073A  045F               	iorwf	??___flmul+1,w
  5190  073B  045E               	iorwf	??___flmul,w
  5191  073C  1903               	skipnz
  5192  073D  2F3F               	goto	u2561
  5193  073E  2F40               	goto	u2560
  5194  073F                     u2561:
  5195  073F  2F43               	goto	l695
  5196  0740                     u2560:
  5197  0740                     l1992:
  5198  0740  01E8               	clrf	___flmul@aexp
  5199  0741  0AE8               	incf	___flmul@aexp,f
  5200  0742  2F48               	goto	l1996
  5201  0743                     l695:
  5202  0743  1C6A               	btfss	___flmul@prod,0
  5203  0744  2F46               	goto	u2571
  5204  0745  2F47               	goto	u2570
  5205  0746                     u2571:
  5206  0746  2F48               	goto	l1996
  5207  0747                     u2570:
  5208  0747  2F40               	goto	l1992
  5209  0748                     l1996:
  5210  0748  0868               	movf	___flmul@aexp,w
  5211  0749  1903               	btfsc	3,2
  5212  074A  2F4C               	goto	u2581
  5213  074B  2F4D               	goto	u2580
  5214  074C                     u2581:
  5215  074C  2F7E               	goto	l2006
  5216  074D                     u2580:
  5217  074D                     l1998:
  5218  074D  3001               	movlw	1
  5219  074E  07EA               	addwf	___flmul@prod,f
  5220  074F  3000               	movlw	0
  5221  0750  1803               	skipnc
  5222  0751  3001               	movlw	1
  5223  0752  07EB               	addwf	___flmul@prod+1,f
  5224  0753  3000               	movlw	0
  5225  0754  1803               	skipnc
  5226  0755  3001               	movlw	1
  5227  0756  07EC               	addwf	___flmul@prod+2,f
  5228  0757  3000               	movlw	0
  5229  0758  1803               	skipnc
  5230  0759  3001               	movlw	1
  5231  075A  07ED               	addwf	___flmul@prod+3,f
  5232  075B                     l2000:
  5233  075B  1C6D               	btfss	___flmul@prod+3,0
  5234  075C  2F5E               	goto	u2591
  5235  075D  2F5F               	goto	u2590
  5236  075E                     u2591:
  5237  075E  2F7E               	goto	l2006
  5238  075F                     u2590:
  5239  075F                     l2002:
  5240  075F  086A               	movf	___flmul@prod,w
  5241  0760  00DE               	movwf	??___flmul
  5242  0761  086B               	movf	___flmul@prod+1,w
  5243  0762  00DF               	movwf	??___flmul+1
  5244  0763  086C               	movf	___flmul@prod+2,w
  5245  0764  00E0               	movwf	??___flmul+2
  5246  0765  086D               	movf	___flmul@prod+3,w
  5247  0766  00E1               	movwf	??___flmul+3
  5248  0767  3001               	movlw	1
  5249  0768  00E2               	movwf	??___flmul+4
  5250  0769                     u2605:
  5251  0769  0D61               	rlf	??___flmul+3,w
  5252  076A  0CE1               	rrf	??___flmul+3,f
  5253  076B  0CE0               	rrf	??___flmul+2,f
  5254  076C  0CDF               	rrf	??___flmul+1,f
  5255  076D  0CDE               	rrf	??___flmul,f
  5256  076E                     u2600:
  5257  076E  0BE2               	decfsz	??___flmul+4,f
  5258  076F  2F69               	goto	u2605
  5259  0770  0861               	movf	??___flmul+3,w
  5260  0771  00ED               	movwf	___flmul@prod+3
  5261  0772  0860               	movf	??___flmul+2,w
  5262  0773  00EC               	movwf	___flmul@prod+2
  5263  0774  085F               	movf	??___flmul+1,w
  5264  0775  00EB               	movwf	___flmul@prod+1
  5265  0776  085E               	movf	??___flmul,w
  5266  0777  00EA               	movwf	___flmul@prod
  5267  0778                     l2004:
  5268  0778  3001               	movlw	1
  5269  0779  07EE               	addwf	___flmul@temp,f
  5270  077A  1803               	skipnc
  5271  077B  0AEF               	incf	___flmul@temp+1,f
  5272  077C  3000               	movlw	0
  5273  077D  07EF               	addwf	___flmul@temp+1,f
  5274  077E                     l2006:
  5275  077E  086F               	movf	___flmul@temp+1,w
  5276  077F  3A80               	xorlw	128
  5277  0780  00FF               	movwf	btemp+1
  5278  0781  3080               	movlw	128
  5279  0782  027F               	subwf	btemp+1,w
  5280  0783  1D03               	skipz
  5281  0784  2F87               	goto	u2615
  5282  0785  30FF               	movlw	255
  5283  0786  026E               	subwf	___flmul@temp,w
  5284  0787                     u2615:
  5285  0787  1C03               	skipc
  5286  0788  2F8A               	goto	u2611
  5287  0789  2F8B               	goto	u2610
  5288  078A                     u2611:
  5289  078A  2F96               	goto	l2010
  5290  078B                     u2610:
  5291  078B                     l2008:
  5292  078B  307F               	movlw	127
  5293  078C  1283               	bcf	3,5	;RP0=0, select bank0
  5294  078D  1303               	bcf	3,6	;RP1=0, select bank0
  5295  078E  00ED               	movwf	___flmul@prod+3
  5296  078F  3080               	movlw	128
  5297  0790  00EC               	movwf	___flmul@prod+2
  5298  0791  3000               	movlw	0
  5299  0792  00EB               	movwf	___flmul@prod+1
  5300  0793  3000               	movlw	0
  5301  0794  00EA               	movwf	___flmul@prod
  5302  0795  2FCB               	goto	l701
  5303  0796                     l2010:
  5304  0796  1283               	bcf	3,5	;RP0=0, select bank0
  5305  0797  1303               	bcf	3,6	;RP1=0, select bank0
  5306  0798  086F               	movf	___flmul@temp+1,w
  5307  0799  3A80               	xorlw	128
  5308  079A  00FF               	movwf	btemp+1
  5309  079B  3080               	movlw	128
  5310  079C  027F               	subwf	btemp+1,w
  5311  079D  1D03               	skipz
  5312  079E  2FA1               	goto	u2625
  5313  079F  3001               	movlw	1
  5314  07A0  026E               	subwf	___flmul@temp,w
  5315  07A1                     u2625:
  5316  07A1  1803               	skipnc
  5317  07A2  2FA4               	goto	u2621
  5318  07A3  2FA5               	goto	u2620
  5319  07A4                     u2621:
  5320  07A4  2FB1               	goto	l2016
  5321  07A5                     u2620:
  5322  07A5                     l2012:
  5323  07A5  3000               	movlw	0
  5324  07A6  1283               	bcf	3,5	;RP0=0, select bank0
  5325  07A7  1303               	bcf	3,6	;RP1=0, select bank0
  5326  07A8  00ED               	movwf	___flmul@prod+3
  5327  07A9  3000               	movlw	0
  5328  07AA  00EC               	movwf	___flmul@prod+2
  5329  07AB  3000               	movlw	0
  5330  07AC  00EB               	movwf	___flmul@prod+1
  5331  07AD  3000               	movlw	0
  5332  07AE  00EA               	movwf	___flmul@prod
  5333  07AF                     l2014:
  5334  07AF  01E3               	clrf	___flmul@sign
  5335  07B0  2FCB               	goto	l701
  5336  07B1                     l2016:
  5337  07B1  1283               	bcf	3,5	;RP0=0, select bank0
  5338  07B2  1303               	bcf	3,6	;RP1=0, select bank0
  5339  07B3  086E               	movf	___flmul@temp,w
  5340  07B4  00DE               	movwf	??___flmul
  5341  07B5  085E               	movf	??___flmul,w
  5342  07B6  00E9               	movwf	___flmul@bexp
  5343  07B7  30FF               	movlw	255
  5344  07B8  05EA               	andwf	___flmul@prod,f
  5345  07B9  30FF               	movlw	255
  5346  07BA  05EB               	andwf	___flmul@prod+1,f
  5347  07BB  307F               	movlw	127
  5348  07BC  05EC               	andwf	___flmul@prod+2,f
  5349  07BD  3000               	movlw	0
  5350  07BE  05ED               	andwf	___flmul@prod+3,f
  5351  07BF                     l2018:
  5352  07BF  1C69               	btfss	___flmul@bexp,0
  5353  07C0  2FC2               	goto	u2631
  5354  07C1  2FC3               	goto	u2630
  5355  07C2                     u2631:
  5356  07C2  2FC4               	goto	l2022
  5357  07C3                     u2630:
  5358  07C3                     l2020:
  5359  07C3  17EC               	bsf	___flmul@prod+2,7
  5360  07C4                     l2022:
  5361  07C4  0869               	movf	___flmul@bexp,w
  5362  07C5  00DE               	movwf	??___flmul
  5363  07C6  1003               	clrc
  5364  07C7  0C5E               	rrf	??___flmul,w
  5365  07C8  00DF               	movwf	??___flmul+1
  5366  07C9  085F               	movf	??___flmul+1,w
  5367  07CA  00ED               	movwf	___flmul@prod+3
  5368  07CB                     l701:
  5369  07CB  0863               	movf	___flmul@sign,w
  5370  07CC  00DE               	movwf	??___flmul
  5371  07CD  085E               	movf	??___flmul,w
  5372  07CE  04ED               	iorwf	___flmul@prod+3,f
  5373  07CF                     l2024:
  5374  07CF  086D               	movf	___flmul@prod+3,w
  5375  07D0  00D9               	movwf	?___flmul+3
  5376  07D1  086C               	movf	___flmul@prod+2,w
  5377  07D2  00D8               	movwf	?___flmul+2
  5378  07D3  086B               	movf	___flmul@prod+1,w
  5379  07D4  00D7               	movwf	?___flmul+1
  5380  07D5  086A               	movf	___flmul@prod,w
  5381  07D6  00D6               	movwf	?___flmul
  5382  07D7                     l689:
  5383  07D7  0008               	return
  5384  07D8                     __end_of___flmul:
  5385                           
  5386                           	psect	text23
  5387  0A22                     __ptext23:	
  5388 ;; *************** function __Umul8_16 *****************
  5389 ;; Defined at:
  5390 ;;		line 4 in file "C:\Program Files\Microchip\xc8\v2.32\pic\sources\c90\common\Umul8_16.c"
  5391 ;; Parameters:    Size  Location     Type
  5392 ;;  multiplier      1    wreg     unsigned char 
  5393 ;;  multiplicand    1    0[COMMON] unsigned char 
  5394 ;; Auto vars:     Size  Location     Type
  5395 ;;  multiplier      1    8[COMMON] unsigned char 
  5396 ;;  word_mpld       2    6[COMMON] unsigned int 
  5397 ;;  product         2    4[COMMON] unsigned int 
  5398 ;; Return value:  Size  Location     Type
  5399 ;;                  2    0[COMMON] unsigned int 
  5400 ;; Registers used:
  5401 ;;		wreg, status,2, status,0
  5402 ;; Tracked objects:
  5403 ;;		On entry : 0/0
  5404 ;;		On exit  : 0/0
  5405 ;;		Unchanged: 0/0
  5406 ;; Data sizes:     COMMON   BANK0   BANK1   BANK3   BANK2
  5407 ;;      Params:         2       0       0       0       0
  5408 ;;      Locals:         5       0       0       0       0
  5409 ;;      Temps:          2       0       0       0       0
  5410 ;;      Totals:         9       0       0       0       0
  5411 ;;Total ram usage:        9 bytes
  5412 ;; Hardware stack levels used: 1
  5413 ;; This function calls:
  5414 ;;		Nothing
  5415 ;; This function is called by:
  5416 ;;		___flmul
  5417 ;; This function uses a non-reentrant model
  5418 ;;
  5419                           
  5420                           
  5421                           ;psect for function __Umul8_16
  5422  0A22                     __Umul8_16:
  5423                           
  5424                           ;incstack = 0
  5425                           ; Regs used in __Umul8_16: [wreg+status,2+status,0]
  5426                           ;__Umul8_16@multiplier stored from wreg
  5427  0A22  00F8               	movwf	__Umul8_16@multiplier
  5428  0A23                     l1634:
  5429  0A23  01F4               	clrf	__Umul8_16@product
  5430  0A24  01F5               	clrf	__Umul8_16@product+1
  5431  0A25                     l1636:
  5432  0A25  0870               	movf	__Umul8_16@multiplicand,w
  5433  0A26  00F2               	movwf	??__Umul8_16
  5434  0A27  01F3               	clrf	??__Umul8_16+1
  5435  0A28  0872               	movf	??__Umul8_16,w
  5436  0A29  00F6               	movwf	__Umul8_16@word_mpld
  5437  0A2A  0873               	movf	??__Umul8_16+1,w
  5438  0A2B  00F7               	movwf	__Umul8_16@word_mpld+1
  5439  0A2C                     l1638:
  5440  0A2C  1C78               	btfss	__Umul8_16@multiplier,0
  5441  0A2D  2A2F               	goto	u1691
  5442  0A2E  2A30               	goto	u1690
  5443  0A2F                     u1691:
  5444  0A2F  2A36               	goto	l708
  5445  0A30                     u1690:
  5446  0A30                     l1640:
  5447  0A30  0876               	movf	__Umul8_16@word_mpld,w
  5448  0A31  07F4               	addwf	__Umul8_16@product,f
  5449  0A32  1803               	skipnc
  5450  0A33  0AF5               	incf	__Umul8_16@product+1,f
  5451  0A34  0877               	movf	__Umul8_16@word_mpld+1,w
  5452  0A35  07F5               	addwf	__Umul8_16@product+1,f
  5453  0A36                     l708:
  5454  0A36  3001               	movlw	1
  5455  0A37                     u1705:
  5456  0A37  1003               	clrc
  5457  0A38  0DF6               	rlf	__Umul8_16@word_mpld,f
  5458  0A39  0DF7               	rlf	__Umul8_16@word_mpld+1,f
  5459  0A3A  3EFF               	addlw	-1
  5460  0A3B  1D03               	skipz
  5461  0A3C  2A37               	goto	u1705
  5462  0A3D  1003               	clrc
  5463  0A3E  0CF8               	rrf	__Umul8_16@multiplier,f
  5464  0A3F                     l1642:
  5465  0A3F  0878               	movf	__Umul8_16@multiplier,w
  5466  0A40  1D03               	btfss	3,2
  5467  0A41  2A43               	goto	u1711
  5468  0A42  2A44               	goto	u1710
  5469  0A43                     u1711:
  5470  0A43  2A2C               	goto	l1638
  5471  0A44                     u1710:
  5472  0A44                     l1644:
  5473  0A44  0875               	movf	__Umul8_16@product+1,w
  5474  0A45  00F1               	movwf	?__Umul8_16+1
  5475  0A46  0874               	movf	__Umul8_16@product,w
  5476  0A47  00F0               	movwf	?__Umul8_16
  5477  0A48                     l710:
  5478  0A48  0008               	return
  5479  0A49                     __end_of__Umul8_16:
  5480                           
  5481                           	psect	text24
  5482  029A                     __ptext24:	
  5483 ;; *************** function ___fldiv *****************
  5484 ;; Defined at:
  5485 ;;		line 8 in file "C:\Program Files\Microchip\xc8\v2.32\pic\sources\c90\common\sprcdiv.c"
  5486 ;; Parameters:    Size  Location     Type
  5487 ;;  a               4   28[BANK0 ] unsigned int 
  5488 ;;  b               4   32[BANK0 ] unsigned int 
  5489 ;; Auto vars:     Size  Location     Type
  5490 ;;  grs             4   48[BANK0 ] unsigned long 
  5491 ;;  rem             4   41[BANK0 ] unsigned long 
  5492 ;;  new_exp         2   46[BANK0 ] int 
  5493 ;;  aexp            1   53[BANK0 ] unsigned char 
  5494 ;;  bexp            1   52[BANK0 ] unsigned char 
  5495 ;;  sign            1   45[BANK0 ] unsigned char 
  5496 ;; Return value:  Size  Location     Type
  5497 ;;                  4   28[BANK0 ] unsigned char 
  5498 ;; Registers used:
  5499 ;;		wreg, status,2, status,0, btemp+1
  5500 ;; Tracked objects:
  5501 ;;		On entry : 0/0
  5502 ;;		On exit  : 0/0
  5503 ;;		Unchanged: 0/0
  5504 ;; Data sizes:     COMMON   BANK0   BANK1   BANK3   BANK2
  5505 ;;      Params:         0       8       0       0       0
  5506 ;;      Locals:         0      13       0       0       0
  5507 ;;      Temps:          0       5       0       0       0
  5508 ;;      Totals:         0      26       0       0       0
  5509 ;;Total ram usage:       26 bytes
  5510 ;; Hardware stack levels used: 1
  5511 ;; This function calls:
  5512 ;;		Nothing
  5513 ;; This function is called by:
  5514 ;;		_PWM1_Duty
  5515 ;;		_PWM2_Duty
  5516 ;; This function uses a non-reentrant model
  5517 ;;
  5518                           
  5519                           
  5520                           ;psect for function ___fldiv
  5521  029A                     ___fldiv:
  5522  029A                     l1746:	
  5523                           ;incstack = 0
  5524                           ; Regs used in ___fldiv: [wreg+status,2+status,0+btemp+1]
  5525                           
  5526  029A  1283               	bcf	3,5	;RP0=0, select bank0
  5527  029B  1303               	bcf	3,6	;RP1=0, select bank0
  5528  029C  0843               	movf	___fldiv@b+3,w
  5529  029D  3980               	andlw	128
  5530  029E  00C4               	movwf	??___fldiv
  5531  029F  0844               	movf	??___fldiv,w
  5532  02A0  00CD               	movwf	___fldiv@sign
  5533  02A1                     l1748:
  5534  02A1  0843               	movf	___fldiv@b+3,w
  5535  02A2  00C4               	movwf	??___fldiv
  5536  02A3  0744               	addwf	??___fldiv,w
  5537  02A4  00C5               	movwf	??___fldiv+1
  5538  02A5  0845               	movf	??___fldiv+1,w
  5539  02A6  00D4               	movwf	___fldiv@bexp
  5540  02A7                     l1750:
  5541  02A7  1FC2               	btfss	___fldiv@b+2,7
  5542  02A8  2AAA               	goto	u1981
  5543  02A9  2AAB               	goto	u1980
  5544  02AA                     u1981:
  5545  02AA  2AAC               	goto	l1754
  5546  02AB                     u1980:
  5547  02AB                     l1752:
  5548  02AB  1454               	bsf	___fldiv@bexp,0
  5549  02AC                     l1754:
  5550  02AC  0854               	movf	___fldiv@bexp,w
  5551  02AD  1903               	btfsc	3,2
  5552  02AE  2AB0               	goto	u1991
  5553  02AF  2AB1               	goto	u1990
  5554  02B0                     u1991:
  5555  02B0  2AC1               	goto	l1764
  5556  02B1                     u1990:
  5557  02B1                     l1756:
  5558  02B1  0A54               	incf	___fldiv@bexp,w
  5559  02B2  1D03               	btfss	3,2
  5560  02B3  2AB5               	goto	u2001
  5561  02B4  2AB6               	goto	u2000
  5562  02B5                     u2001:
  5563  02B5  2ABE               	goto	l1760
  5564  02B6                     u2000:
  5565  02B6                     l1758:
  5566  02B6  3000               	movlw	0
  5567  02B7  00C3               	movwf	___fldiv@b+3
  5568  02B8  3000               	movlw	0
  5569  02B9  00C2               	movwf	___fldiv@b+2
  5570  02BA  3000               	movlw	0
  5571  02BB  00C1               	movwf	___fldiv@b+1
  5572  02BC  3000               	movlw	0
  5573  02BD  00C0               	movwf	___fldiv@b
  5574  02BE                     l1760:
  5575  02BE  17C2               	bsf	___fldiv@b+2,7
  5576  02BF                     l1762:
  5577  02BF  01C3               	clrf	___fldiv@b+3
  5578  02C0  2AC9               	goto	l1766
  5579  02C1                     l1764:
  5580  02C1  3000               	movlw	0
  5581  02C2  00C3               	movwf	___fldiv@b+3
  5582  02C3  3000               	movlw	0
  5583  02C4  00C2               	movwf	___fldiv@b+2
  5584  02C5  3000               	movlw	0
  5585  02C6  00C1               	movwf	___fldiv@b+1
  5586  02C7  3000               	movlw	0
  5587  02C8  00C0               	movwf	___fldiv@b
  5588  02C9                     l1766:
  5589  02C9  083F               	movf	___fldiv@a+3,w
  5590  02CA  3980               	andlw	128
  5591  02CB  00C4               	movwf	??___fldiv
  5592  02CC  0844               	movf	??___fldiv,w
  5593  02CD  06CD               	xorwf	___fldiv@sign,f
  5594  02CE                     l1768:
  5595  02CE  083F               	movf	___fldiv@a+3,w
  5596  02CF  00C4               	movwf	??___fldiv
  5597  02D0  0744               	addwf	??___fldiv,w
  5598  02D1  00C5               	movwf	??___fldiv+1
  5599  02D2  0845               	movf	??___fldiv+1,w
  5600  02D3  00D5               	movwf	___fldiv@aexp
  5601  02D4                     l1770:
  5602  02D4  1FBE               	btfss	___fldiv@a+2,7
  5603  02D5  2AD7               	goto	u2011
  5604  02D6  2AD8               	goto	u2010
  5605  02D7                     u2011:
  5606  02D7  2AD9               	goto	l1774
  5607  02D8                     u2010:
  5608  02D8                     l1772:
  5609  02D8  1455               	bsf	___fldiv@aexp,0
  5610  02D9                     l1774:
  5611  02D9  0855               	movf	___fldiv@aexp,w
  5612  02DA  1903               	btfsc	3,2
  5613  02DB  2ADD               	goto	u2021
  5614  02DC  2ADE               	goto	u2020
  5615  02DD                     u2021:
  5616  02DD  2AEE               	goto	l1784
  5617  02DE                     u2020:
  5618  02DE                     l1776:
  5619  02DE  0A55               	incf	___fldiv@aexp,w
  5620  02DF  1D03               	btfss	3,2
  5621  02E0  2AE2               	goto	u2031
  5622  02E1  2AE3               	goto	u2030
  5623  02E2                     u2031:
  5624  02E2  2AEB               	goto	l1780
  5625  02E3                     u2030:
  5626  02E3                     l1778:
  5627  02E3  3000               	movlw	0
  5628  02E4  00BF               	movwf	___fldiv@a+3
  5629  02E5  3000               	movlw	0
  5630  02E6  00BE               	movwf	___fldiv@a+2
  5631  02E7  3000               	movlw	0
  5632  02E8  00BD               	movwf	___fldiv@a+1
  5633  02E9  3000               	movlw	0
  5634  02EA  00BC               	movwf	___fldiv@a
  5635  02EB                     l1780:
  5636  02EB  17BE               	bsf	___fldiv@a+2,7
  5637  02EC                     l1782:
  5638  02EC  01BF               	clrf	___fldiv@a+3
  5639  02ED  2AF6               	goto	l649
  5640  02EE                     l1784:
  5641  02EE  3000               	movlw	0
  5642  02EF  00BF               	movwf	___fldiv@a+3
  5643  02F0  3000               	movlw	0
  5644  02F1  00BE               	movwf	___fldiv@a+2
  5645  02F2  3000               	movlw	0
  5646  02F3  00BD               	movwf	___fldiv@a+1
  5647  02F4  3000               	movlw	0
  5648  02F5  00BC               	movwf	___fldiv@a
  5649  02F6                     l649:
  5650  02F6  083F               	movf	___fldiv@a+3,w
  5651  02F7  043E               	iorwf	___fldiv@a+2,w
  5652  02F8  043D               	iorwf	___fldiv@a+1,w
  5653  02F9  043C               	iorwf	___fldiv@a,w
  5654  02FA  1D03               	skipz
  5655  02FB  2AFD               	goto	u2041
  5656  02FC  2AFE               	goto	u2040
  5657  02FD                     u2041:
  5658  02FD  2B17               	goto	l1794
  5659  02FE                     u2040:
  5660  02FE                     l1786:
  5661  02FE  3000               	movlw	0
  5662  02FF  00C3               	movwf	___fldiv@b+3
  5663  0300  3000               	movlw	0
  5664  0301  00C2               	movwf	___fldiv@b+2
  5665  0302  3000               	movlw	0
  5666  0303  00C1               	movwf	___fldiv@b+1
  5667  0304  3000               	movlw	0
  5668  0305  00C0               	movwf	___fldiv@b
  5669  0306  3080               	movlw	128
  5670  0307  04C2               	iorwf	___fldiv@b+2,f
  5671  0308  307F               	movlw	127
  5672  0309  04C3               	iorwf	___fldiv@b+3,f
  5673  030A                     l1788:
  5674  030A  084D               	movf	___fldiv@sign,w
  5675  030B  00C4               	movwf	??___fldiv
  5676  030C  0844               	movf	??___fldiv,w
  5677  030D  04C3               	iorwf	___fldiv@b+3,f
  5678  030E                     l1790:
  5679  030E  0843               	movf	___fldiv@b+3,w
  5680  030F  00BF               	movwf	?___fldiv+3
  5681  0310  0842               	movf	___fldiv@b+2,w
  5682  0311  00BE               	movwf	?___fldiv+2
  5683  0312  0841               	movf	___fldiv@b+1,w
  5684  0313  00BD               	movwf	?___fldiv+1
  5685  0314  0840               	movf	___fldiv@b,w
  5686  0315  00BC               	movwf	?___fldiv
  5687  0316  2C76               	goto	l651
  5688  0317                     l1794:
  5689  0317  0854               	movf	___fldiv@bexp,w
  5690  0318  1D03               	btfss	3,2
  5691  0319  2B1B               	goto	u2051
  5692  031A  2B1C               	goto	u2050
  5693  031B                     u2051:
  5694  031B  2B25               	goto	l1800
  5695  031C                     u2050:
  5696  031C                     l1796:
  5697  031C  3000               	movlw	0
  5698  031D  00BF               	movwf	?___fldiv+3
  5699  031E  3000               	movlw	0
  5700  031F  00BE               	movwf	?___fldiv+2
  5701  0320  3000               	movlw	0
  5702  0321  00BD               	movwf	?___fldiv+1
  5703  0322  3000               	movlw	0
  5704  0323  00BC               	movwf	?___fldiv
  5705  0324  2C76               	goto	l651
  5706  0325                     l1800:
  5707  0325  0854               	movf	___fldiv@bexp,w
  5708  0326  00C4               	movwf	??___fldiv
  5709  0327  01C5               	clrf	??___fldiv+1
  5710  0328  0845               	movf	??___fldiv+1,w
  5711  0329  00C7               	movwf	??___fldiv+3
  5712  032A  0855               	movf	___fldiv@aexp,w
  5713  032B  0244               	subwf	??___fldiv,w
  5714  032C  00C6               	movwf	??___fldiv+2
  5715  032D  1C03               	skipc
  5716  032E  03C7               	decf	??___fldiv+3,f
  5717  032F  0846               	movf	??___fldiv+2,w
  5718  0330  3E7F               	addlw	127
  5719  0331  00CE               	movwf	___fldiv@new_exp
  5720  0332  0847               	movf	??___fldiv+3,w
  5721  0333  1803               	skipnc
  5722  0334  3E01               	addlw	1
  5723  0335  3E00               	addlw	0
  5724  0336  00CF               	movwf	___fldiv@new_exp+1
  5725  0337                     l1802:
  5726  0337  0843               	movf	___fldiv@b+3,w
  5727  0338  00CC               	movwf	___fldiv@rem+3
  5728  0339  0842               	movf	___fldiv@b+2,w
  5729  033A  00CB               	movwf	___fldiv@rem+2
  5730  033B  0841               	movf	___fldiv@b+1,w
  5731  033C  00CA               	movwf	___fldiv@rem+1
  5732  033D  0840               	movf	___fldiv@b,w
  5733  033E  00C9               	movwf	___fldiv@rem
  5734  033F                     l1804:
  5735  033F  3000               	movlw	0
  5736  0340  00C3               	movwf	___fldiv@b+3
  5737  0341  3000               	movlw	0
  5738  0342  00C2               	movwf	___fldiv@b+2
  5739  0343  3000               	movlw	0
  5740  0344  00C1               	movwf	___fldiv@b+1
  5741  0345  3000               	movlw	0
  5742  0346  00C0               	movwf	___fldiv@b
  5743  0347                     l1806:
  5744  0347  3000               	movlw	0
  5745  0348  00D3               	movwf	___fldiv@grs+3
  5746  0349  3000               	movlw	0
  5747  034A  00D2               	movwf	___fldiv@grs+2
  5748  034B  3000               	movlw	0
  5749  034C  00D1               	movwf	___fldiv@grs+1
  5750  034D  3000               	movlw	0
  5751  034E  00D0               	movwf	___fldiv@grs
  5752  034F                     l1808:
  5753  034F  01D5               	clrf	___fldiv@aexp
  5754  0350  2B9B               	goto	l1828
  5755  0351                     l1810:
  5756  0351  0855               	movf	___fldiv@aexp,w
  5757  0352  1903               	btfsc	3,2
  5758  0353  2B55               	goto	u2061
  5759  0354  2B56               	goto	u2060
  5760  0355                     u2061:
  5761  0355  2B76               	goto	l1820
  5762  0356                     u2060:
  5763  0356                     l1812:
  5764  0356  3001               	movlw	1
  5765  0357  00C4               	movwf	??___fldiv
  5766  0358                     u2075:
  5767  0358  1003               	clrc
  5768  0359  0DC9               	rlf	___fldiv@rem,f
  5769  035A  0DCA               	rlf	___fldiv@rem+1,f
  5770  035B  0DCB               	rlf	___fldiv@rem+2,f
  5771  035C  0DCC               	rlf	___fldiv@rem+3,f
  5772  035D  0BC4               	decfsz	??___fldiv,f
  5773  035E  2B58               	goto	u2075
  5774  035F  3001               	movlw	1
  5775  0360  00C4               	movwf	??___fldiv
  5776  0361                     u2085:
  5777  0361  1003               	clrc
  5778  0362  0DC0               	rlf	___fldiv@b,f
  5779  0363  0DC1               	rlf	___fldiv@b+1,f
  5780  0364  0DC2               	rlf	___fldiv@b+2,f
  5781  0365  0DC3               	rlf	___fldiv@b+3,f
  5782  0366  0BC4               	decfsz	??___fldiv,f
  5783  0367  2B61               	goto	u2085
  5784  0368                     l1814:
  5785  0368  1FD3               	btfss	___fldiv@grs+3,7
  5786  0369  2B6B               	goto	u2091
  5787  036A  2B6C               	goto	u2090
  5788  036B                     u2091:
  5789  036B  2B6D               	goto	l1818
  5790  036C                     u2090:
  5791  036C                     l1816:
  5792  036C  1440               	bsf	___fldiv@b,0
  5793  036D                     l1818:
  5794  036D  3001               	movlw	1
  5795  036E  00C4               	movwf	??___fldiv
  5796  036F                     u2105:
  5797  036F  1003               	clrc
  5798  0370  0DD0               	rlf	___fldiv@grs,f
  5799  0371  0DD1               	rlf	___fldiv@grs+1,f
  5800  0372  0DD2               	rlf	___fldiv@grs+2,f
  5801  0373  0DD3               	rlf	___fldiv@grs+3,f
  5802  0374  0BC4               	decfsz	??___fldiv,f
  5803  0375  2B6F               	goto	u2105
  5804  0376                     l1820:
  5805  0376  083F               	movf	___fldiv@a+3,w
  5806  0377  024C               	subwf	___fldiv@rem+3,w
  5807  0378  1D03               	skipz
  5808  0379  2B84               	goto	u2115
  5809  037A  083E               	movf	___fldiv@a+2,w
  5810  037B  024B               	subwf	___fldiv@rem+2,w
  5811  037C  1D03               	skipz
  5812  037D  2B84               	goto	u2115
  5813  037E  083D               	movf	___fldiv@a+1,w
  5814  037F  024A               	subwf	___fldiv@rem+1,w
  5815  0380  1D03               	skipz
  5816  0381  2B84               	goto	u2115
  5817  0382  083C               	movf	___fldiv@a,w
  5818  0383  0249               	subwf	___fldiv@rem,w
  5819  0384                     u2115:
  5820  0384  1C03               	skipc
  5821  0385  2B87               	goto	u2111
  5822  0386  2B88               	goto	u2110
  5823  0387                     u2111:
  5824  0387  2B97               	goto	l1826
  5825  0388                     u2110:
  5826  0388                     l1822:
  5827  0388  1753               	bsf	___fldiv@grs+3,6
  5828  0389                     l1824:
  5829  0389  083C               	movf	___fldiv@a,w
  5830  038A  02C9               	subwf	___fldiv@rem,f
  5831  038B  083D               	movf	___fldiv@a+1,w
  5832  038C  1C03               	skipc
  5833  038D  0F3D               	incfsz	___fldiv@a+1,w
  5834  038E  02CA               	subwf	___fldiv@rem+1,f
  5835  038F  083E               	movf	___fldiv@a+2,w
  5836  0390  1C03               	skipc
  5837  0391  0F3E               	incfsz	___fldiv@a+2,w
  5838  0392  02CB               	subwf	___fldiv@rem+2,f
  5839  0393  083F               	movf	___fldiv@a+3,w
  5840  0394  1C03               	skipc
  5841  0395  0F3F               	incfsz	___fldiv@a+3,w
  5842  0396  02CC               	subwf	___fldiv@rem+3,f
  5843  0397                     l1826:
  5844  0397  3001               	movlw	1
  5845  0398  00C4               	movwf	??___fldiv
  5846  0399  0844               	movf	??___fldiv,w
  5847  039A  07D5               	addwf	___fldiv@aexp,f
  5848  039B                     l1828:
  5849  039B  301A               	movlw	26
  5850  039C  0255               	subwf	___fldiv@aexp,w
  5851  039D  1C03               	skipc
  5852  039E  2BA0               	goto	u2121
  5853  039F  2BA1               	goto	u2120
  5854  03A0                     u2121:
  5855  03A0  2B51               	goto	l1810
  5856  03A1                     u2120:
  5857  03A1                     l1830:
  5858  03A1  084C               	movf	___fldiv@rem+3,w
  5859  03A2  044B               	iorwf	___fldiv@rem+2,w
  5860  03A3  044A               	iorwf	___fldiv@rem+1,w
  5861  03A4  0449               	iorwf	___fldiv@rem,w
  5862  03A5  1903               	skipnz
  5863  03A6  2BA8               	goto	u2131
  5864  03A7  2BA9               	goto	u2130
  5865  03A8                     u2131:
  5866  03A8  2BC8               	goto	l1844
  5867  03A9                     u2130:
  5868  03A9                     l1832:
  5869  03A9  1450               	bsf	___fldiv@grs,0
  5870  03AA  2BC8               	goto	l1844
  5871  03AB                     l1834:
  5872  03AB  3001               	movlw	1
  5873  03AC  00C4               	movwf	??___fldiv
  5874  03AD                     u2145:
  5875  03AD  1003               	clrc
  5876  03AE  0DC0               	rlf	___fldiv@b,f
  5877  03AF  0DC1               	rlf	___fldiv@b+1,f
  5878  03B0  0DC2               	rlf	___fldiv@b+2,f
  5879  03B1  0DC3               	rlf	___fldiv@b+3,f
  5880  03B2  0BC4               	decfsz	??___fldiv,f
  5881  03B3  2BAD               	goto	u2145
  5882  03B4                     l1836:
  5883  03B4  1FD3               	btfss	___fldiv@grs+3,7
  5884  03B5  2BB7               	goto	u2151
  5885  03B6  2BB8               	goto	u2150
  5886  03B7                     u2151:
  5887  03B7  2BB9               	goto	l1840
  5888  03B8                     u2150:
  5889  03B8                     l1838:
  5890  03B8  1440               	bsf	___fldiv@b,0
  5891  03B9                     l1840:
  5892  03B9  3001               	movlw	1
  5893  03BA  00C4               	movwf	??___fldiv
  5894  03BB                     u2165:
  5895  03BB  1003               	clrc
  5896  03BC  0DD0               	rlf	___fldiv@grs,f
  5897  03BD  0DD1               	rlf	___fldiv@grs+1,f
  5898  03BE  0DD2               	rlf	___fldiv@grs+2,f
  5899  03BF  0DD3               	rlf	___fldiv@grs+3,f
  5900  03C0  0BC4               	decfsz	??___fldiv,f
  5901  03C1  2BBB               	goto	u2165
  5902  03C2                     l1842:
  5903  03C2  30FF               	movlw	255
  5904  03C3  07CE               	addwf	___fldiv@new_exp,f
  5905  03C4  1803               	skipnc
  5906  03C5  0ACF               	incf	___fldiv@new_exp+1,f
  5907  03C6  30FF               	movlw	255
  5908  03C7  07CF               	addwf	___fldiv@new_exp+1,f
  5909  03C8                     l1844:
  5910  03C8  1FC2               	btfss	___fldiv@b+2,7
  5911  03C9  2BCB               	goto	u2171
  5912  03CA  2BCC               	goto	u2170
  5913  03CB                     u2171:
  5914  03CB  2BAB               	goto	l1834
  5915  03CC                     u2170:
  5916  03CC                     l1846:
  5917  03CC  01D5               	clrf	___fldiv@aexp
  5918  03CD                     l1848:
  5919  03CD  1FD3               	btfss	___fldiv@grs+3,7
  5920  03CE  2BD0               	goto	u2181
  5921  03CF  2BD1               	goto	u2180
  5922  03D0                     u2181:
  5923  03D0  2BED               	goto	l1856
  5924  03D1                     u2180:
  5925  03D1                     l1850:
  5926  03D1  30FF               	movlw	255
  5927  03D2  0550               	andwf	___fldiv@grs,w
  5928  03D3  00C4               	movwf	??___fldiv
  5929  03D4  30FF               	movlw	255
  5930  03D5  0551               	andwf	___fldiv@grs+1,w
  5931  03D6  00C5               	movwf	??___fldiv+1
  5932  03D7  30FF               	movlw	255
  5933  03D8  0552               	andwf	___fldiv@grs+2,w
  5934  03D9  00C6               	movwf	??___fldiv+2
  5935  03DA  307F               	movlw	127
  5936  03DB  0553               	andwf	___fldiv@grs+3,w
  5937  03DC  00C7               	movwf	??___fldiv+3
  5938  03DD  0847               	movf	??___fldiv+3,w
  5939  03DE  0446               	iorwf	??___fldiv+2,w
  5940  03DF  0445               	iorwf	??___fldiv+1,w
  5941  03E0  0444               	iorwf	??___fldiv,w
  5942  03E1  1903               	skipnz
  5943  03E2  2BE4               	goto	u2191
  5944  03E3  2BE5               	goto	u2190
  5945  03E4                     u2191:
  5946  03E4  2BE8               	goto	l665
  5947  03E5                     u2190:
  5948  03E5                     l1852:
  5949  03E5  01D5               	clrf	___fldiv@aexp
  5950  03E6  0AD5               	incf	___fldiv@aexp,f
  5951  03E7  2BED               	goto	l1856
  5952  03E8                     l665:
  5953  03E8  1C40               	btfss	___fldiv@b,0
  5954  03E9  2BEB               	goto	u2201
  5955  03EA  2BEC               	goto	u2200
  5956  03EB                     u2201:
  5957  03EB  2BED               	goto	l1856
  5958  03EC                     u2200:
  5959  03EC  2BE5               	goto	l1852
  5960  03ED                     l1856:
  5961  03ED  0855               	movf	___fldiv@aexp,w
  5962  03EE  1903               	btfsc	3,2
  5963  03EF  2BF1               	goto	u2211
  5964  03F0  2BF2               	goto	u2210
  5965  03F1                     u2211:
  5966  03F1  2C23               	goto	l1866
  5967  03F2                     u2210:
  5968  03F2                     l1858:
  5969  03F2  3001               	movlw	1
  5970  03F3  07C0               	addwf	___fldiv@b,f
  5971  03F4  3000               	movlw	0
  5972  03F5  1803               	skipnc
  5973  03F6  3001               	movlw	1
  5974  03F7  07C1               	addwf	___fldiv@b+1,f
  5975  03F8  3000               	movlw	0
  5976  03F9  1803               	skipnc
  5977  03FA  3001               	movlw	1
  5978  03FB  07C2               	addwf	___fldiv@b+2,f
  5979  03FC  3000               	movlw	0
  5980  03FD  1803               	skipnc
  5981  03FE  3001               	movlw	1
  5982  03FF  07C3               	addwf	___fldiv@b+3,f
  5983  0400                     l1860:
  5984  0400  1C43               	btfss	___fldiv@b+3,0
  5985  0401  2C03               	goto	u2221
  5986  0402  2C04               	goto	u2220
  5987  0403                     u2221:
  5988  0403  2C23               	goto	l1866
  5989  0404                     u2220:
  5990  0404                     l1862:
  5991  0404  0840               	movf	___fldiv@b,w
  5992  0405  00C4               	movwf	??___fldiv
  5993  0406  0841               	movf	___fldiv@b+1,w
  5994  0407  00C5               	movwf	??___fldiv+1
  5995  0408  0842               	movf	___fldiv@b+2,w
  5996  0409  00C6               	movwf	??___fldiv+2
  5997  040A  0843               	movf	___fldiv@b+3,w
  5998  040B  00C7               	movwf	??___fldiv+3
  5999  040C  3001               	movlw	1
  6000  040D  00C8               	movwf	??___fldiv+4
  6001  040E                     u2235:
  6002  040E  0D47               	rlf	??___fldiv+3,w
  6003  040F  0CC7               	rrf	??___fldiv+3,f
  6004  0410  0CC6               	rrf	??___fldiv+2,f
  6005  0411  0CC5               	rrf	??___fldiv+1,f
  6006  0412  0CC4               	rrf	??___fldiv,f
  6007  0413                     u2230:
  6008  0413  0BC8               	decfsz	??___fldiv+4,f
  6009  0414  2C0E               	goto	u2235
  6010  0415  0847               	movf	??___fldiv+3,w
  6011  0416  00C3               	movwf	___fldiv@b+3
  6012  0417  0846               	movf	??___fldiv+2,w
  6013  0418  00C2               	movwf	___fldiv@b+2
  6014  0419  0845               	movf	??___fldiv+1,w
  6015  041A  00C1               	movwf	___fldiv@b+1
  6016  041B  0844               	movf	??___fldiv,w
  6017  041C  00C0               	movwf	___fldiv@b
  6018  041D                     l1864:
  6019  041D  3001               	movlw	1
  6020  041E  07CE               	addwf	___fldiv@new_exp,f
  6021  041F  1803               	skipnc
  6022  0420  0ACF               	incf	___fldiv@new_exp+1,f
  6023  0421  3000               	movlw	0
  6024  0422  07CF               	addwf	___fldiv@new_exp+1,f
  6025  0423                     l1866:
  6026  0423  084F               	movf	___fldiv@new_exp+1,w
  6027  0424  3A80               	xorlw	128
  6028  0425  00FF               	movwf	btemp+1
  6029  0426  3080               	movlw	128
  6030  0427  027F               	subwf	btemp+1,w
  6031  0428  1D03               	skipz
  6032  0429  2C2C               	goto	u2245
  6033  042A  30FF               	movlw	255
  6034  042B  024E               	subwf	___fldiv@new_exp,w
  6035  042C                     u2245:
  6036  042C  1C03               	skipc
  6037  042D  2C2F               	goto	u2241
  6038  042E  2C30               	goto	u2240
  6039  042F                     u2241:
  6040  042F  2C3E               	goto	l1870
  6041  0430                     u2240:
  6042  0430                     l1868:
  6043  0430  30FF               	movlw	255
  6044  0431  1283               	bcf	3,5	;RP0=0, select bank0
  6045  0432  1303               	bcf	3,6	;RP1=0, select bank0
  6046  0433  00CE               	movwf	___fldiv@new_exp
  6047  0434  3000               	movlw	0
  6048  0435  00CF               	movwf	___fldiv@new_exp+1
  6049  0436  3000               	movlw	0
  6050  0437  00C3               	movwf	___fldiv@b+3
  6051  0438  3000               	movlw	0
  6052  0439  00C2               	movwf	___fldiv@b+2
  6053  043A  3000               	movlw	0
  6054  043B  00C1               	movwf	___fldiv@b+1
  6055  043C  3000               	movlw	0
  6056  043D  00C0               	movwf	___fldiv@b
  6057  043E                     l1870:
  6058  043E  1283               	bcf	3,5	;RP0=0, select bank0
  6059  043F  1303               	bcf	3,6	;RP1=0, select bank0
  6060  0440  084F               	movf	___fldiv@new_exp+1,w
  6061  0441  3A80               	xorlw	128
  6062  0442  00FF               	movwf	btemp+1
  6063  0443  3080               	movlw	128
  6064  0444  027F               	subwf	btemp+1,w
  6065  0445  1D03               	skipz
  6066  0446  2C49               	goto	u2255
  6067  0447  3001               	movlw	1
  6068  0448  024E               	subwf	___fldiv@new_exp,w
  6069  0449                     u2255:
  6070  0449  1803               	skipnc
  6071  044A  2C4C               	goto	u2251
  6072  044B  2C4D               	goto	u2250
  6073  044C                     u2251:
  6074  044C  2C5A               	goto	l671
  6075  044D                     u2250:
  6076  044D                     l1872:
  6077  044D  1283               	bcf	3,5	;RP0=0, select bank0
  6078  044E  1303               	bcf	3,6	;RP1=0, select bank0
  6079  044F  01CE               	clrf	___fldiv@new_exp
  6080  0450  01CF               	clrf	___fldiv@new_exp+1
  6081  0451                     l1874:
  6082  0451  3000               	movlw	0
  6083  0452  00C3               	movwf	___fldiv@b+3
  6084  0453  3000               	movlw	0
  6085  0454  00C2               	movwf	___fldiv@b+2
  6086  0455  3000               	movlw	0
  6087  0456  00C1               	movwf	___fldiv@b+1
  6088  0457  3000               	movlw	0
  6089  0458  00C0               	movwf	___fldiv@b
  6090  0459                     l1876:
  6091  0459  01CD               	clrf	___fldiv@sign
  6092  045A                     l671:
  6093  045A  1283               	bcf	3,5	;RP0=0, select bank0
  6094  045B  1303               	bcf	3,6	;RP1=0, select bank0
  6095  045C  084E               	movf	___fldiv@new_exp,w
  6096  045D  00C4               	movwf	??___fldiv
  6097  045E  0844               	movf	??___fldiv,w
  6098  045F  00D4               	movwf	___fldiv@bexp
  6099  0460                     l1878:
  6100  0460  1C54               	btfss	___fldiv@bexp,0
  6101  0461  2C63               	goto	u2261
  6102  0462  2C64               	goto	u2260
  6103  0463                     u2261:
  6104  0463  2C66               	goto	l1882
  6105  0464                     u2260:
  6106  0464                     l1880:
  6107  0464  17C2               	bsf	___fldiv@b+2,7
  6108  0465  2C6A               	goto	l673
  6109  0466                     l1882:
  6110  0466  307F               	movlw	127
  6111  0467  00C4               	movwf	??___fldiv
  6112  0468  0844               	movf	??___fldiv,w
  6113  0469  05C2               	andwf	___fldiv@b+2,f
  6114  046A                     l673:
  6115  046A  0854               	movf	___fldiv@bexp,w
  6116  046B  00C4               	movwf	??___fldiv
  6117  046C  1003               	clrc
  6118  046D  0C44               	rrf	??___fldiv,w
  6119  046E  00C5               	movwf	??___fldiv+1
  6120  046F  0845               	movf	??___fldiv+1,w
  6121  0470  00C3               	movwf	___fldiv@b+3
  6122  0471  084D               	movf	___fldiv@sign,w
  6123  0472  00C4               	movwf	??___fldiv
  6124  0473  0844               	movf	??___fldiv,w
  6125  0474  04C3               	iorwf	___fldiv@b+3,f
  6126  0475  2B0E               	goto	l1790
  6127  0476                     l651:
  6128  0476  0008               	return
  6129  0477                     __end_of___fldiv:
  6130                           
  6131                           	psect	text25
  6132  0AB3                     __ptext25:	
  6133 ;; *************** function _PWM_Init *****************
  6134 ;; Defined at:
  6135 ;;		line 12 in file "PWM.c"
  6136 ;; Parameters:    Size  Location     Type
  6137 ;;  freq            4    6[BANK0 ] long 
  6138 ;; Auto vars:     Size  Location     Type
  6139 ;;		None
  6140 ;; Return value:  Size  Location     Type
  6141 ;;                  1    wreg      void 
  6142 ;; Registers used:
  6143 ;;		wreg, status,2, status,0, pclath, cstack
  6144 ;; Tracked objects:
  6145 ;;		On entry : 0/0
  6146 ;;		On exit  : 0/0
  6147 ;;		Unchanged: 0/0
  6148 ;; Data sizes:     COMMON   BANK0   BANK1   BANK3   BANK2
  6149 ;;      Params:         0       4       0       0       0
  6150 ;;      Locals:         0       0       0       0       0
  6151 ;;      Temps:          4       0       0       0       0
  6152 ;;      Totals:         4       4       0       0       0
  6153 ;;Total ram usage:        8 bytes
  6154 ;; Hardware stack levels used: 1
  6155 ;; Hardware stack levels required when called: 1
  6156 ;; This function calls:
  6157 ;;		___aldiv
  6158 ;; This function is called by:
  6159 ;;		_PWM1_Duty
  6160 ;;		_PWM2_Duty
  6161 ;; This function uses a non-reentrant model
  6162 ;;
  6163                           
  6164                           
  6165                           ;psect for function _PWM_Init
  6166  0AB3                     _PWM_Init:
  6167  0AB3                     l1648:	
  6168                           ;incstack = 0
  6169                           ; Regs used in _PWM_Init: [wreg+status,2+status,0+pclath+cstack]
  6170                           
  6171                           
  6172                           ;PWM.c: 12: void PWM_Init(long freq);PWM.c: 13: {;PWM.c: 14:   PR2 = (4000000/(freq*4*4)
      +                          ) - 1;
  6173  0AB3  1283               	bcf	3,5	;RP0=0, select bank0
  6174  0AB4  1303               	bcf	3,6	;RP1=0, select bank0
  6175  0AB5  0826               	movf	PWM_Init@freq,w
  6176  0AB6  00F9               	movwf	??_PWM_Init
  6177  0AB7  0827               	movf	PWM_Init@freq+1,w
  6178  0AB8  00FA               	movwf	??_PWM_Init+1
  6179  0AB9  0828               	movf	PWM_Init@freq+2,w
  6180  0ABA  00FB               	movwf	??_PWM_Init+2
  6181  0ABB  0829               	movf	PWM_Init@freq+3,w
  6182  0ABC  00FC               	movwf	??_PWM_Init+3
  6183  0ABD  3002               	movlw	2
  6184  0ABE                     u1725:
  6185  0ABE  1003               	clrc
  6186  0ABF  0DF9               	rlf	??_PWM_Init,f
  6187  0AC0  0DFA               	rlf	??_PWM_Init+1,f
  6188  0AC1  0DFB               	rlf	??_PWM_Init+2,f
  6189  0AC2  0DFC               	rlf	??_PWM_Init+3,f
  6190  0AC3                     u1720:
  6191  0AC3  3EFF               	addlw	-1
  6192  0AC4  1D03               	skipz
  6193  0AC5  2ABE               	goto	u1725
  6194  0AC6  3002               	movlw	2
  6195  0AC7                     u1735:
  6196  0AC7  1003               	clrc
  6197  0AC8  0DF9               	rlf	??_PWM_Init,f
  6198  0AC9  0DFA               	rlf	??_PWM_Init+1,f
  6199  0ACA  0DFB               	rlf	??_PWM_Init+2,f
  6200  0ACB  0DFC               	rlf	??_PWM_Init+3,f
  6201  0ACC                     u1730:
  6202  0ACC  3EFF               	addlw	-1
  6203  0ACD  1D03               	skipz
  6204  0ACE  2AC7               	goto	u1735
  6205  0ACF  087C               	movf	??_PWM_Init+3,w
  6206  0AD0  00F3               	movwf	___aldiv@divisor+3
  6207  0AD1  087B               	movf	??_PWM_Init+2,w
  6208  0AD2  00F2               	movwf	___aldiv@divisor+2
  6209  0AD3  087A               	movf	??_PWM_Init+1,w
  6210  0AD4  00F1               	movwf	___aldiv@divisor+1
  6211  0AD5  0879               	movf	??_PWM_Init,w
  6212  0AD6  00F0               	movwf	___aldiv@divisor
  6213  0AD7  3000               	movlw	0
  6214  0AD8  00F7               	movwf	___aldiv@dividend+3
  6215  0AD9  303D               	movlw	61
  6216  0ADA  00F6               	movwf	___aldiv@dividend+2
  6217  0ADB  3009               	movlw	9
  6218  0ADC  00F5               	movwf	___aldiv@dividend+1
  6219  0ADD  3000               	movlw	0
  6220  0ADE  00F4               	movwf	___aldiv@dividend
  6221  0ADF  120A  158A  24E1  120A  158A  	fcall	___aldiv
  6222  0AE4  0870               	movf	?___aldiv,w
  6223  0AE5  3EFF               	addlw	255
  6224  0AE6  1683               	bsf	3,5	;RP0=1, select bank1
  6225  0AE7  1303               	bcf	3,6	;RP1=0, select bank1
  6226  0AE8  0092               	movwf	18	;volatile
  6227  0AE9                     l35:
  6228  0AE9  0008               	return
  6229  0AEA                     __end_of_PWM_Init:
  6230                           
  6231                           	psect	text26
  6232  0CE1                     __ptext26:	
  6233 ;; *************** function ___aldiv *****************
  6234 ;; Defined at:
  6235 ;;		line 5 in file "C:\Program Files\Microchip\xc8\v2.32\pic\sources\c90\common\aldiv.c"
  6236 ;; Parameters:    Size  Location     Type
  6237 ;;  divisor         4    0[COMMON] long 
  6238 ;;  dividend        4    4[COMMON] long 
  6239 ;; Auto vars:     Size  Location     Type
  6240 ;;  quotient        4    2[BANK0 ] long 
  6241 ;;  sign            1    1[BANK0 ] unsigned char 
  6242 ;;  counter         1    0[BANK0 ] unsigned char 
  6243 ;; Return value:  Size  Location     Type
  6244 ;;                  4    0[COMMON] long 
  6245 ;; Registers used:
  6246 ;;		wreg, status,2, status,0
  6247 ;; Tracked objects:
  6248 ;;		On entry : 0/0
  6249 ;;		On exit  : 0/0
  6250 ;;		Unchanged: 0/0
  6251 ;; Data sizes:     COMMON   BANK0   BANK1   BANK3   BANK2
  6252 ;;      Params:         8       0       0       0       0
  6253 ;;      Locals:         0       6       0       0       0
  6254 ;;      Temps:          1       0       0       0       0
  6255 ;;      Totals:         9       6       0       0       0
  6256 ;;Total ram usage:       15 bytes
  6257 ;; Hardware stack levels used: 1
  6258 ;; This function calls:
  6259 ;;		Nothing
  6260 ;; This function is called by:
  6261 ;;		_PWM_Init
  6262 ;;		_PWM1_Duty
  6263 ;;		_PWM2_Duty
  6264 ;; This function uses a non-reentrant model
  6265 ;;
  6266                           
  6267                           
  6268                           ;psect for function ___aldiv
  6269  0CE1                     ___aldiv:
  6270  0CE1                     l1594:	
  6271                           ;incstack = 0
  6272                           ; Regs used in ___aldiv: [wreg+status,2+status,0]
  6273                           
  6274  0CE1  1283               	bcf	3,5	;RP0=0, select bank0
  6275  0CE2  1303               	bcf	3,6	;RP1=0, select bank0
  6276  0CE3  01A1               	clrf	___aldiv@sign
  6277  0CE4                     l1596:
  6278  0CE4  1FF3               	btfss	___aldiv@divisor+3,7
  6279  0CE5  2CE7               	goto	u1591
  6280  0CE6  2CE8               	goto	u1590
  6281  0CE7                     u1591:
  6282  0CE7  2CF5               	goto	l365
  6283  0CE8                     u1590:
  6284  0CE8                     l1598:
  6285  0CE8  09F0               	comf	___aldiv@divisor,f
  6286  0CE9  09F1               	comf	___aldiv@divisor+1,f
  6287  0CEA  09F2               	comf	___aldiv@divisor+2,f
  6288  0CEB  09F3               	comf	___aldiv@divisor+3,f
  6289  0CEC  0AF0               	incf	___aldiv@divisor,f
  6290  0CED  1903               	skipnz
  6291  0CEE  0AF1               	incf	___aldiv@divisor+1,f
  6292  0CEF  1903               	skipnz
  6293  0CF0  0AF2               	incf	___aldiv@divisor+2,f
  6294  0CF1  1903               	skipnz
  6295  0CF2  0AF3               	incf	___aldiv@divisor+3,f
  6296  0CF3  01A1               	clrf	___aldiv@sign
  6297  0CF4  0AA1               	incf	___aldiv@sign,f
  6298  0CF5                     l365:
  6299  0CF5  1FF7               	btfss	___aldiv@dividend+3,7
  6300  0CF6  2CF8               	goto	u1601
  6301  0CF7  2CF9               	goto	u1600
  6302  0CF8                     u1601:
  6303  0CF8  2D08               	goto	l1604
  6304  0CF9                     u1600:
  6305  0CF9                     l1600:
  6306  0CF9  09F4               	comf	___aldiv@dividend,f
  6307  0CFA  09F5               	comf	___aldiv@dividend+1,f
  6308  0CFB  09F6               	comf	___aldiv@dividend+2,f
  6309  0CFC  09F7               	comf	___aldiv@dividend+3,f
  6310  0CFD  0AF4               	incf	___aldiv@dividend,f
  6311  0CFE  1903               	skipnz
  6312  0CFF  0AF5               	incf	___aldiv@dividend+1,f
  6313  0D00  1903               	skipnz
  6314  0D01  0AF6               	incf	___aldiv@dividend+2,f
  6315  0D02  1903               	skipnz
  6316  0D03  0AF7               	incf	___aldiv@dividend+3,f
  6317  0D04                     l1602:
  6318  0D04  3001               	movlw	1
  6319  0D05  00F8               	movwf	??___aldiv
  6320  0D06  0878               	movf	??___aldiv,w
  6321  0D07  06A1               	xorwf	___aldiv@sign,f
  6322  0D08                     l1604:
  6323  0D08  3000               	movlw	0
  6324  0D09  00A5               	movwf	___aldiv@quotient+3
  6325  0D0A  3000               	movlw	0
  6326  0D0B  00A4               	movwf	___aldiv@quotient+2
  6327  0D0C  3000               	movlw	0
  6328  0D0D  00A3               	movwf	___aldiv@quotient+1
  6329  0D0E  3000               	movlw	0
  6330  0D0F  00A2               	movwf	___aldiv@quotient
  6331  0D10                     l1606:
  6332  0D10  0873               	movf	___aldiv@divisor+3,w
  6333  0D11  0472               	iorwf	___aldiv@divisor+2,w
  6334  0D12  0471               	iorwf	___aldiv@divisor+1,w
  6335  0D13  0470               	iorwf	___aldiv@divisor,w
  6336  0D14  1903               	skipnz
  6337  0D15  2D17               	goto	u1611
  6338  0D16  2D18               	goto	u1610
  6339  0D17                     u1611:
  6340  0D17  2D65               	goto	l1626
  6341  0D18                     u1610:
  6342  0D18                     l1608:
  6343  0D18  01A0               	clrf	___aldiv@counter
  6344  0D19  0AA0               	incf	___aldiv@counter,f
  6345  0D1A  2D28               	goto	l1612
  6346  0D1B                     l1610:
  6347  0D1B  3001               	movlw	1
  6348  0D1C  00F8               	movwf	??___aldiv
  6349  0D1D                     u1625:
  6350  0D1D  1003               	clrc
  6351  0D1E  0DF0               	rlf	___aldiv@divisor,f
  6352  0D1F  0DF1               	rlf	___aldiv@divisor+1,f
  6353  0D20  0DF2               	rlf	___aldiv@divisor+2,f
  6354  0D21  0DF3               	rlf	___aldiv@divisor+3,f
  6355  0D22  0BF8               	decfsz	??___aldiv,f
  6356  0D23  2D1D               	goto	u1625
  6357  0D24  3001               	movlw	1
  6358  0D25  00F8               	movwf	??___aldiv
  6359  0D26  0878               	movf	??___aldiv,w
  6360  0D27  07A0               	addwf	___aldiv@counter,f
  6361  0D28                     l1612:
  6362  0D28  1FF3               	btfss	___aldiv@divisor+3,7
  6363  0D29  2D2B               	goto	u1631
  6364  0D2A  2D2C               	goto	u1630
  6365  0D2B                     u1631:
  6366  0D2B  2D1B               	goto	l1610
  6367  0D2C                     u1630:
  6368  0D2C                     l1614:
  6369  0D2C  3001               	movlw	1
  6370  0D2D  00F8               	movwf	??___aldiv
  6371  0D2E                     u1645:
  6372  0D2E  1003               	clrc
  6373  0D2F  0DA2               	rlf	___aldiv@quotient,f
  6374  0D30  0DA3               	rlf	___aldiv@quotient+1,f
  6375  0D31  0DA4               	rlf	___aldiv@quotient+2,f
  6376  0D32  0DA5               	rlf	___aldiv@quotient+3,f
  6377  0D33  0BF8               	decfsz	??___aldiv,f
  6378  0D34  2D2E               	goto	u1645
  6379  0D35                     l1616:
  6380  0D35  0873               	movf	___aldiv@divisor+3,w
  6381  0D36  0277               	subwf	___aldiv@dividend+3,w
  6382  0D37  1D03               	skipz
  6383  0D38  2D43               	goto	u1655
  6384  0D39  0872               	movf	___aldiv@divisor+2,w
  6385  0D3A  0276               	subwf	___aldiv@dividend+2,w
  6386  0D3B  1D03               	skipz
  6387  0D3C  2D43               	goto	u1655
  6388  0D3D  0871               	movf	___aldiv@divisor+1,w
  6389  0D3E  0275               	subwf	___aldiv@dividend+1,w
  6390  0D3F  1D03               	skipz
  6391  0D40  2D43               	goto	u1655
  6392  0D41  0870               	movf	___aldiv@divisor,w
  6393  0D42  0274               	subwf	___aldiv@dividend,w
  6394  0D43                     u1655:
  6395  0D43  1C03               	skipc
  6396  0D44  2D46               	goto	u1651
  6397  0D45  2D47               	goto	u1650
  6398  0D46                     u1651:
  6399  0D46  2D56               	goto	l1622
  6400  0D47                     u1650:
  6401  0D47                     l1618:
  6402  0D47  0870               	movf	___aldiv@divisor,w
  6403  0D48  02F4               	subwf	___aldiv@dividend,f
  6404  0D49  0871               	movf	___aldiv@divisor+1,w
  6405  0D4A  1C03               	skipc
  6406  0D4B  0F71               	incfsz	___aldiv@divisor+1,w
  6407  0D4C  02F5               	subwf	___aldiv@dividend+1,f
  6408  0D4D  0872               	movf	___aldiv@divisor+2,w
  6409  0D4E  1C03               	skipc
  6410  0D4F  0F72               	incfsz	___aldiv@divisor+2,w
  6411  0D50  02F6               	subwf	___aldiv@dividend+2,f
  6412  0D51  0873               	movf	___aldiv@divisor+3,w
  6413  0D52  1C03               	skipc
  6414  0D53  0F73               	incfsz	___aldiv@divisor+3,w
  6415  0D54  02F7               	subwf	___aldiv@dividend+3,f
  6416  0D55                     l1620:
  6417  0D55  1422               	bsf	___aldiv@quotient,0
  6418  0D56                     l1622:
  6419  0D56  3001               	movlw	1
  6420  0D57                     u1665:
  6421  0D57  1003               	clrc
  6422  0D58  0CF3               	rrf	___aldiv@divisor+3,f
  6423  0D59  0CF2               	rrf	___aldiv@divisor+2,f
  6424  0D5A  0CF1               	rrf	___aldiv@divisor+1,f
  6425  0D5B  0CF0               	rrf	___aldiv@divisor,f
  6426  0D5C  3EFF               	addlw	-1
  6427  0D5D  1D03               	skipz
  6428  0D5E  2D57               	goto	u1665
  6429  0D5F                     l1624:
  6430  0D5F  3001               	movlw	1
  6431  0D60  02A0               	subwf	___aldiv@counter,f
  6432  0D61  1D03               	btfss	3,2
  6433  0D62  2D64               	goto	u1671
  6434  0D63  2D65               	goto	u1670
  6435  0D64                     u1671:
  6436  0D64  2D2C               	goto	l1614
  6437  0D65                     u1670:
  6438  0D65                     l1626:
  6439  0D65  0821               	movf	___aldiv@sign,w
  6440  0D66  1903               	btfsc	3,2
  6441  0D67  2D69               	goto	u1681
  6442  0D68  2D6A               	goto	u1680
  6443  0D69                     u1681:
  6444  0D69  2D75               	goto	l1630
  6445  0D6A                     u1680:
  6446  0D6A                     l1628:
  6447  0D6A  09A2               	comf	___aldiv@quotient,f
  6448  0D6B  09A3               	comf	___aldiv@quotient+1,f
  6449  0D6C  09A4               	comf	___aldiv@quotient+2,f
  6450  0D6D  09A5               	comf	___aldiv@quotient+3,f
  6451  0D6E  0AA2               	incf	___aldiv@quotient,f
  6452  0D6F  1903               	skipnz
  6453  0D70  0AA3               	incf	___aldiv@quotient+1,f
  6454  0D71  1903               	skipnz
  6455  0D72  0AA4               	incf	___aldiv@quotient+2,f
  6456  0D73  1903               	skipnz
  6457  0D74  0AA5               	incf	___aldiv@quotient+3,f
  6458  0D75                     l1630:
  6459  0D75  0825               	movf	___aldiv@quotient+3,w
  6460  0D76  00F3               	movwf	?___aldiv+3
  6461  0D77  0824               	movf	___aldiv@quotient+2,w
  6462  0D78  00F2               	movwf	?___aldiv+2
  6463  0D79  0823               	movf	___aldiv@quotient+1,w
  6464  0D7A  00F1               	movwf	?___aldiv+1
  6465  0D7B  0822               	movf	___aldiv@quotient,w
  6466  0D7C  00F0               	movwf	?___aldiv
  6467  0D7D                     l375:
  6468  0D7D  0008               	return
  6469  0D7E                     __end_of___aldiv:
  6470                           
  6471                           	psect	text27
  6472  0A49                     __ptext27:	
  6473 ;; *************** function _ADC_Read *****************
  6474 ;; Defined at:
  6475 ;;		line 17 in file "adc.c"
  6476 ;; Parameters:    Size  Location     Type
  6477 ;;  channel         1    wreg     unsigned char 
  6478 ;; Auto vars:     Size  Location     Type
  6479 ;;  channel         1    4[COMMON] unsigned char 
  6480 ;; Return value:  Size  Location     Type
  6481 ;;                  2    0[COMMON] unsigned int 
  6482 ;; Registers used:
  6483 ;;		wreg, status,2, status,0
  6484 ;; Tracked objects:
  6485 ;;		On entry : 0/0
  6486 ;;		On exit  : 0/0
  6487 ;;		Unchanged: 0/0
  6488 ;; Data sizes:     COMMON   BANK0   BANK1   BANK3   BANK2
  6489 ;;      Params:         2       0       0       0       0
  6490 ;;      Locals:         1       0       0       0       0
  6491 ;;      Temps:          2       0       0       0       0
  6492 ;;      Totals:         5       0       0       0       0
  6493 ;;Total ram usage:        5 bytes
  6494 ;; Hardware stack levels used: 1
  6495 ;; This function calls:
  6496 ;;		Nothing
  6497 ;; This function is called by:
  6498 ;;		_main
  6499 ;; This function uses a non-reentrant model
  6500 ;;
  6501                           
  6502                           
  6503                           ;psect for function _ADC_Read
  6504  0A49                     _ADC_Read:
  6505                           
  6506                           ;incstack = 0
  6507                           ; Regs used in _ADC_Read: [wreg+status,2+status,0]
  6508                           ;ADC_Read@channel stored from wreg
  6509  0A49  00F4               	movwf	ADC_Read@channel
  6510  0A4A                     l2102:
  6511                           
  6512                           ;adc.c: 17: unsigned int ADC_Read(unsigned char channel);adc.c: 18: {;adc.c: 19:    if(c
      +                          hannel > 7)
  6513  0A4A  3008               	movlw	8
  6514  0A4B  0274               	subwf	ADC_Read@channel,w
  6515  0A4C  1C03               	skipc
  6516  0A4D  2A4F               	goto	u2861
  6517  0A4E  2A50               	goto	u2860
  6518  0A4F                     u2861:
  6519  0A4F  2A53               	goto	l2108
  6520  0A50                     u2860:
  6521  0A50                     l2104:
  6522                           
  6523                           ;adc.c: 20:      return 0;
  6524  0A50  01F0               	clrf	?_ADC_Read
  6525  0A51  01F1               	clrf	?_ADC_Read+1
  6526  0A52  2A7C               	goto	l74
  6527  0A53                     l2108:
  6528                           
  6529                           ;adc.c: 22:    ADCON0 &= 0xC5;
  6530  0A53  30C5               	movlw	197
  6531  0A54  00F2               	movwf	??_ADC_Read
  6532  0A55  0872               	movf	??_ADC_Read,w
  6533  0A56  1283               	bcf	3,5	;RP0=0, select bank0
  6534  0A57  1303               	bcf	3,6	;RP1=0, select bank0
  6535  0A58  059F               	andwf	31,f	;volatile
  6536                           
  6537                           ;adc.c: 23:    ADCON0 |= channel<<3;
  6538  0A59  0874               	movf	ADC_Read@channel,w	;volatile
  6539  0A5A  00F2               	movwf	??_ADC_Read
  6540  0A5B  3002               	movlw	2
  6541  0A5C                     u2875:
  6542  0A5C  1003               	clrc
  6543  0A5D  0DF2               	rlf	??_ADC_Read,f
  6544  0A5E  3EFF               	addlw	-1
  6545  0A5F  1D03               	skipz
  6546  0A60  2A5C               	goto	u2875
  6547  0A61  1003               	clrc
  6548  0A62  0D72               	rlf	??_ADC_Read,w
  6549  0A63  00F3               	movwf	??_ADC_Read+1
  6550  0A64  0873               	movf	??_ADC_Read+1,w
  6551  0A65  049F               	iorwf	31,f	;volatile
  6552  0A66                     l2110:
  6553                           
  6554                           ;adc.c: 24:    _delay((unsigned long)((2)*(4000000/4000.0)));
  6555  0A66  3003               	movlw	3
  6556  0A67  00F3               	movwf	??_ADC_Read+1
  6557  0A68  3097               	movlw	151
  6558  0A69  00F2               	movwf	??_ADC_Read
  6559  0A6A                     u3197:
  6560  0A6A  0BF2               	decfsz	??_ADC_Read,f
  6561  0A6B  2A6A               	goto	u3197
  6562  0A6C  0BF3               	decfsz	??_ADC_Read+1,f
  6563  0A6D  2A6A               	goto	u3197
  6564  0A6E  2A6F               	nop2
  6565  0A6F                     l2112:
  6566                           
  6567                           ;adc.c: 25:    GO_nDONE = 1;
  6568  0A6F  1283               	bcf	3,5	;RP0=0, select bank0
  6569  0A70  1303               	bcf	3,6	;RP1=0, select bank0
  6570  0A71  151F               	bsf	31,2	;volatile
  6571  0A72                     l75:	
  6572                           ;adc.c: 26:    while(GO_nDONE);
  6573                           
  6574  0A72  191F               	btfsc	31,2	;volatile
  6575  0A73  2A75               	goto	u2881
  6576  0A74  2A76               	goto	u2880
  6577  0A75                     u2881:
  6578  0A75  2A72               	goto	l75
  6579  0A76                     u2880:
  6580  0A76                     l2114:
  6581                           
  6582                           ;adc.c: 27:    return ((unsigned int)(ADRESH<<8)+ADRESL);
  6583  0A76  081E               	movf	30,w	;volatile
  6584  0A77  00F1               	movwf	?_ADC_Read+1
  6585  0A78  1683               	bsf	3,5	;RP0=1, select bank1
  6586  0A79  1303               	bcf	3,6	;RP1=0, select bank1
  6587  0A7A  081E               	movf	30,w	;volatile
  6588  0A7B  00F0               	movwf	?_ADC_Read
  6589  0A7C                     l74:
  6590  0A7C  0008               	return
  6591  0A7D                     __end_of_ADC_Read:
  6592                           
  6593                           	psect	text28
  6594  094E                     __ptext28:	
  6595 ;; *************** function _ADC_Init *****************
  6596 ;; Defined at:
  6597 ;;		line 11 in file "adc.c"
  6598 ;; Parameters:    Size  Location     Type
  6599 ;;		None
  6600 ;; Auto vars:     Size  Location     Type
  6601 ;;		None
  6602 ;; Return value:  Size  Location     Type
  6603 ;;                  1    wreg      void 
  6604 ;; Registers used:
  6605 ;;		wreg
  6606 ;; Tracked objects:
  6607 ;;		On entry : 0/0
  6608 ;;		On exit  : 0/0
  6609 ;;		Unchanged: 0/0
  6610 ;; Data sizes:     COMMON   BANK0   BANK1   BANK3   BANK2
  6611 ;;      Params:         0       0       0       0       0
  6612 ;;      Locals:         0       0       0       0       0
  6613 ;;      Temps:          0       0       0       0       0
  6614 ;;      Totals:         0       0       0       0       0
  6615 ;;Total ram usage:        0 bytes
  6616 ;; Hardware stack levels used: 1
  6617 ;; This function calls:
  6618 ;;		Nothing
  6619 ;; This function is called by:
  6620 ;;		_main
  6621 ;; This function uses a non-reentrant model
  6622 ;;
  6623                           
  6624                           
  6625                           ;psect for function _ADC_Init
  6626  094E                     _ADC_Init:
  6627  094E                     l2100:	
  6628                           ;incstack = 0
  6629                           ; Regs used in _ADC_Init: [wreg]
  6630                           
  6631                           
  6632                           ;adc.c: 13:    ADCON1 = 0x80;
  6633  094E  3080               	movlw	128
  6634  094F  1683               	bsf	3,5	;RP0=1, select bank1
  6635  0950  1303               	bcf	3,6	;RP1=0, select bank1
  6636  0951  009F               	movwf	31	;volatile
  6637                           
  6638                           ;adc.c: 14:    ADCON0 = 0xC1;
  6639  0952  30C1               	movlw	193
  6640  0953  1283               	bcf	3,5	;RP0=0, select bank0
  6641  0954  1303               	bcf	3,6	;RP1=0, select bank0
  6642  0955  009F               	movwf	31	;volatile
  6643  0956                     l70:
  6644  0956  0008               	return
  6645  0957                     __end_of_ADC_Init:
  6646  007E                     btemp	set	126	;btemp
  6647  007E                     wtemp0	set	126
  6648                           
  6649                           	psect	config
  6650                           
  6651                           ;Config register CONFIG @ 0x2007
  6652                           ;	Oscillator Selection bits
  6653                           ;	FOSC = HS, HS oscillator
  6654                           ;	Watchdog Timer Enable bit
  6655                           ;	WDTE = OFF, WDT disabled
  6656                           ;	Power-up Timer Enable bit
  6657                           ;	PWRTE = OFF, PWRT disabled
  6658                           ;	Brown-out Reset Enable bit
  6659                           ;	BOREN = OFF, BOR disabled
  6660                           ;	Low-Voltage (Single-Supply) In-Circuit Serial Programming Enable bit
  6661                           ;	LVP = OFF, RB3 is digital I/O, HV on MCLR must be used for programming
  6662                           ;	Data EEPROM Memory Code Protection bit
  6663                           ;	CPD = OFF, Data EEPROM code protection off
  6664                           ;	Flash Program Memory Write Enable bits
  6665                           ;	WRT = OFF, Write protection off; all program memory may be written to by EECON control
  6666                           ;	In-Circuit Debugger Mode bit
  6667                           ;	DEBUG = 0x1, unprogrammed default
  6668                           ;	Flash Program Memory Code Protection bit
  6669                           ;	CP = OFF, Code protection off
  6670  2007                     	org	8199
  6671  2007  3F3A               	dw	16186

Data Sizes:
    Strings     32
    Constant    10
    Data        4
    BSS         10
    Persistent  2
    Stack       0

Auto Spaces:
    Space          Size  Autos    Used
    COMMON           14     14      14
    BANK0            80     80      80
    BANK1            80     20      36
    BANK3            96      0       0
    BANK2            96      0       0

Pointer List with Targets:

    lcd_str@str	PTR const unsigned char  size(1) Largest target is 8192
		 -> ROM(CODE[8192]), STR_2(CODE[6]), STR_1(CODE[6]), 


Critical Paths under _main in COMMON

    _main->___fltol
    _iniciarLcd->_lcd_str
    _lcd_init->_lcd_cmd
    _controleMaximoMinimo->___fltol
    _controlarLcd->_escrever
    _escrever->_lcd_str
    _lcd_str->_lcd_dat
    _lcd_dat->_lcd_wr
    _lcd_cmd->_lcd_wr
    _atualizaDisplay->___lwdiv
    ___lwdiv->___lwmod
    ___wmul->_ADC_Read
    _PWM2_Duty->___fltol
    _PWM1_Duty->___fltol
    ___xxtofl->___fltol
    ___fltol->__Umul8_16
    ___fltol->___aldiv
    ___flmul->___fltol
    ___fldiv->___fltol
    _PWM_Init->___aldiv

Critical Paths under _main in BANK0

    _main->___flmul
    _controleMaximoMinimo->___fltol
    _PWM2_Duty->___flmul
    _PWM1_Duty->___flmul
    ___xxtofl->_controleMaximoMinimo
    ___fltol->___aldiv
    ___flmul->___fldiv
    ___fldiv->___xxtofl
    _PWM_Init->___aldiv

Critical Paths under _main in BANK1

    _main->_PWM1_Duty
    _main->_PWM2_Duty

Critical Paths under _main in BANK3

    None.

Critical Paths under _main in BANK2

    None.

Call Graph Tables:

 ---------------------------------------------------------------------------------
 (Depth) Function   	        Calls       Base Space   Used Autos Params    Refs
 ---------------------------------------------------------------------------------
 (0) _main                                                14    14      0   23074
                                              6 BANK1     14    14      0
                           _ADC_Init
                           _ADC_Read
                          _PWM1_Duty
                         _PWM1_Start
                          _PWM2_Duty
                         _PWM2_Start
                            ___awdiv
                            ___flmul
                            ___fltol
                             ___wmul
                           ___xxtofl
                    _atualizaDisplay
                       _controlarLcd
                  _controlarSetPoint
               _controleMaximoMinimo
                         _iniciarLcd
 ---------------------------------------------------------------------------------
 (1) _iniciarLcd                                           0     0      0     321
                            _lcd_cmd
                           _lcd_init
                            _lcd_str
 ---------------------------------------------------------------------------------
 (2) _lcd_init                                             0     0      0      44
                            _lcd_cmd
 ---------------------------------------------------------------------------------
 (1) _controleMaximoMinimo                                 2     0      2     296
                                             12 BANK0      2     0      2
                            ___fltol (ARG)
 ---------------------------------------------------------------------------------
 (1) _controlarSetPoint                                    1     1      0       0
                                              0 COMMON     1     1      0
 ---------------------------------------------------------------------------------
 (1) _controlarLcd                                         1     1      0     473
                                              8 COMMON     1     1      0
                           _escrever
 ---------------------------------------------------------------------------------
 (2) _escrever                                             3     1      2     473
                                              5 COMMON     3     1      2
                            _lcd_cmd
                            _lcd_str
 ---------------------------------------------------------------------------------
 (2) _lcd_str                                              3     3      0     233
                                              2 COMMON     3     3      0
                            _lcd_dat
 ---------------------------------------------------------------------------------
 (3) _lcd_dat                                              1     1      0      44
                                              1 COMMON     1     1      0
                             _lcd_wr
 ---------------------------------------------------------------------------------
 (3) _lcd_cmd                                              1     1      0      44
                                              1 COMMON     1     1      0
                             _lcd_wr
 ---------------------------------------------------------------------------------
 (4) _lcd_wr                                               1     1      0      22
                                              0 COMMON     1     1      0
 ---------------------------------------------------------------------------------
 (1) _atualizaDisplay                                     16    14      2    2014
                                              0 BANK0     16    14      2
                            ___lwdiv
                            ___lwmod
 ---------------------------------------------------------------------------------
 (2) ___lwmod                                              6     2      4    1071
                                              0 COMMON     6     2      4
 ---------------------------------------------------------------------------------
 (2) ___lwdiv                                              8     4      4     618
                                              6 COMMON     8     4      4
                            ___lwmod (ARG)
 ---------------------------------------------------------------------------------
 (1) ___wmul                                               6     2      4     244
                                              5 COMMON     6     2      4
                           _ADC_Read (ARG)
 ---------------------------------------------------------------------------------
 (1) ___awdiv                                              9     5      4     452
                                              0 COMMON     9     5      4
 ---------------------------------------------------------------------------------
 (1) _PWM2_Start                                           0     0      0       0
 ---------------------------------------------------------------------------------
 (1) _PWM2_Duty                                            6     2      4    7496
                                              0 BANK1      6     2      4
                           _PWM_Init
                            ___aldiv
                            ___fldiv
                            ___flmul
                            ___fltol
                           ___xxtofl
 ---------------------------------------------------------------------------------
 (1) _PWM1_Start                                           0     0      0       0
 ---------------------------------------------------------------------------------
 (1) _PWM1_Duty                                            6     2      4    7496
                                              0 BANK1      6     2      4
                           _PWM_Init
                            ___aldiv
                            ___fldiv
                            ___flmul
                            ___fltol
                           ___xxtofl
 ---------------------------------------------------------------------------------
 (1) ___xxtofl                                            14    10      4     846
                                             14 BANK0     14    10      4
                            ___aldiv (ARG)
                            ___awdiv (ARG)
                            ___fltol (ARG)
               _controleMaximoMinimo (ARG)
 ---------------------------------------------------------------------------------
 (1) ___fltol                                             11     7      4     533
                                              9 COMMON     5     5      0
                                              6 BANK0      6     2      4
                          __Umul8_16 (ARG)
                            ___aldiv (ARG)
 ---------------------------------------------------------------------------------
 (1) ___flmul                                             26    18      8    2721
                                             54 BANK0     26    18      8
                          __Umul8_16
                            ___aldiv (ARG)
                            ___fldiv (ARG)
                            ___fltol (ARG)
                           ___xxtofl (ARG)
 ---------------------------------------------------------------------------------
 (2) __Umul8_16                                            9     7      2     799
                                              0 COMMON     9     7      2
 ---------------------------------------------------------------------------------
 (2) ___fldiv                                             26    18      8    1425
                                             28 BANK0     26    18      8
                            ___fltol (ARG)
                           ___xxtofl (ARG)
 ---------------------------------------------------------------------------------
 (2) _PWM_Init                                             8     4      4     930
                                              9 COMMON     4     4      0
                                              6 BANK0      4     0      4
                            ___aldiv
 ---------------------------------------------------------------------------------
 (2) ___aldiv                                             15     7      8     756
                                              0 COMMON     9     1      8
                                              0 BANK0      6     6      0
 ---------------------------------------------------------------------------------
 (1) _ADC_Read                                             5     3      2      44
                                              0 COMMON     5     3      2
 ---------------------------------------------------------------------------------
 (1) _ADC_Init                                             0     0      0       0
 ---------------------------------------------------------------------------------
 Estimated maximum stack depth 4
 ---------------------------------------------------------------------------------

 Call Graph Graphs:

 _main (ROOT)
   _ADC_Init
   _ADC_Read
   _PWM1_Duty
     _PWM_Init
       ___aldiv
     ___aldiv
     ___fldiv
       ___fltol (ARG)
         __Umul8_16 (ARG)
         ___aldiv (ARG)
       ___xxtofl (ARG)
         ___aldiv (ARG)
         ___awdiv (ARG)
         ___fltol (ARG)
         _controleMaximoMinimo (ARG)
           ___fltol (ARG)
     ___flmul
       __Umul8_16
       ___aldiv (ARG)
       ___fldiv (ARG)
       ___fltol (ARG)
       ___xxtofl (ARG)
     ___fltol
     ___xxtofl
   _PWM1_Start
   _PWM2_Duty
     _PWM_Init
     ___aldiv
     ___fldiv
     ___flmul
     ___fltol
     ___xxtofl
   _PWM2_Start
   ___awdiv
   ___flmul
   ___fltol
   ___wmul
     _ADC_Read (ARG)
   ___xxtofl
   _atualizaDisplay
     ___lwdiv
       ___lwmod (ARG)
     ___lwmod
   _controlarLcd
     _escrever
       _lcd_cmd
         _lcd_wr
       _lcd_str
         _lcd_dat
           _lcd_wr
   _controlarSetPoint
   _controleMaximoMinimo
   _iniciarLcd
     _lcd_cmd
     _lcd_init
       _lcd_cmd
     _lcd_str

 Address spaces:
Name               Size   Autos  Total    Cost      Usage
BANK3               60      0       0       9        0.0%
BITBANK3            60      0       0       8        0.0%
SFR3                 0      0       0       4        0.0%
BITSFR3              0      0       0       4        0.0%
BANK2               60      0       0      11        0.0%
BITBANK2            60      0       0      10        0.0%
SFR2                 0      0       0       5        0.0%
BITSFR2              0      0       0       5        0.0%
BANK1               50     14      24       7       45.0%
BITBANK1            50      0       0       6        0.0%
SFR1                 0      0       0       2        0.0%
BITSFR1              0      0       0       2        0.0%
BANK0               50     50      50       5      100.0%
BITBANK0            50      0       0       4        0.0%
SFR0                 0      0       0       1        0.0%
BITSFR0              0      0       0       1        0.0%
COMMON               E      E       E       1      100.0%
BITCOMMON            E      0       0       0        0.0%
CODE                 0      0       0       0        0.0%
DATA                 0      0      82      12        0.0%
ABS                  0      0      82       3        0.0%
NULL                 0      0       0       0        0.0%
STACK                0      0       0       2        0.0%
EEDATA             100      0       0       0        0.0%


Microchip Technology PIC Macro Assembler V2.32 build 20210201212658 
Symbol Table                                                                                   Sun Jun 13 14:39:01 2021

                 ___fldiv@aexp 0055                   ___fldiv@bexp 0054                              pc 0002  
                 ___fldiv@sign 004D                             l35 0AE9                             l43 00D8  
                           l70 0956                             l46 095F                             l39 0F01  
                           l49 0010                             l74 0A7C                             l75 0A72  
                 ___awdiv@sign 0076                             _kp 00BE                             fsr 0004  
          ___wmul@multiplicand 0077            __Umul8_16@word_mpld 0076                            l202 096F  
                          l300 0A09                            l205 097F                            l302 0A21  
                          l142 0FFF                            l214 09D8                            l160 0BFD  
                          l208 0AB2                            l171 09FC                            l157 0BC1  
                          l165 09B6                            l158 0BDD                            l159 0BF9  
                          l176 099A                            l184 0B64                            l179 0B45  
                          l365 0CF5                            l701 07CB                            l453 0C64  
                          l710 0A48                            l375 0D7D                            l199 094D  
                          l651 0476                            l708 0A36                            l572 0BA8  
                          l493 0CCB                            l733 0DA2                            l486 0CE0  
                          l582 0B23                            l671 045A                            l735 0E39  
                          l496 0CE0                            l673 046A                            l665 03E8  
                          l649 02F6                            l746 0E03                            l747 0E0F  
                          l739 0DE7                            l695 0743                            l689 07D7  
                          _RB0 0030                            _RB1 0031                            _RB2 0032  
                          _RB3 0033                            _RB4 0034                            _RB5 0035  
                          _RB6 0036                            _RB7 0037                            _PR2 0092  
 __end_of_controleMaximoMinimo 09B7                            fsr0 0004              ??_atualizaDisplay 0022  
                 ___flmul@aexp 0068                   ___flmul@bexp 0069                   ___flmul@sign 0063  
                 ___flmul@temp 006E                   ___flmul@prod 006A                   ___fltol@exp1 002B  
                         l2000 075B                           l2010 0796                           l2002 075F  
                         l2100 094E                           l2020 07C3                           l2012 07A5  
                         l2004 0778                           l2110 0A66                           l2102 0A4A  
                         l2022 07C4                           l2014 07AF                           l2006 077E  
                         l2030 0D86                           l2112 0A6F                           l2104 0A50  
                         l2024 07CF                           l2016 07B1                           l2008 078B  
                         l2040 0DB3                           l2032 0D8A                           l2120 0FA3  
                         l2200 0B31                           l2114 0A76                           l2018 07BF  
                         l2050 0DDE                           l2042 0DB8                           l2034 0D9A  
                         l2130 0FC3                           l2122 0FAC                           l2210 0B4F  
                         l2202 0B36                           l2108 0A53                           l2060 0E11  
                         l2052 0DEE                           l2044 0DC5                           l2036 0DAA  
                         l2028 0D81                           l2220 0A10                           l2140 0FDB  
                         l2132 0FC4                           l2124 0FAD                           l2212 0B5A  
                         l2204 0B3C                           l2300 0179                           l2062 0E27  
                         l2054 0DF9                           l2046 0DCC                           l2230 0BFF  
                         l2222 0A17                           l2214 09FD                           l2150 0FFC  
                         l2142 0FE5                           l2134 0FCE                           l2126 0FB7  
                         l2118 0F02                           l2206 0B41                           l2310 0264  
                         l2302 01B8                           l1600 0CF9                           l2064 0E2C  
                         l2056 0DFD                           l2048 0DD0                           l2080 0EE7  
                         l2072 0E3A                           l2240 0C13                           l2232 0C03  
                         l2224 0A1D                           l2216 09FF                           l2144 0FE8  
                         l2136 0FD1                           l2128 0FBA                           l2208 0B49  
                         l2160 0BC5                           l2152 0BA9                           l2312 0271  
                         l2304 01D3                           l1610 0D1B                           l1602 0D04  
                         l2066 0E30                           l2058 0E07                           l2082 0EF3  
                         l2074 0E4D                           l2090 00BB                           l2250 0C29  
                         l2242 0C17                           l2234 0C08                           l2218 0A03  
                         l2146 0FF1                           l2138 0FDA                           l2170 0BE9  
                         l2162 0BCD                           l2154 0BB1                           l2314 0280  
                         l2306 01EE                           l1620 0D55                           l1612 0D28  
                         l1604 0D08                           l2068 0E31                           l2076 0E58  
                         l2092 00BE                           l2084 0011                           l2260 0C49  
                         l2252 0C2D                           l2244 0C19                           l2236 0C0A  
                         l2228 0BFE                           l1700 0B67                           l2148 0FF2  
                         l2172 0BEE                           l2164 0BD2                           l2156 0BB6  
                         l2180 09A3                           l2316 0285                           l2308 023D  
                         l1630 0D75                           l1622 0D56                           l1614 0D2C  
                         l1606 0D10                           l2078 0EE4                           l2094 00CA  
                         l2086 0024                           l2262 0C50                           l2254 0C31  
                         l2246 0C1F                           l2238 0C0E                           l1710 0B7F  
                         l1702 0B6D                           l2174 0BF3                           l2166 0BD7  
                         l2158 0BBB                           l2182 09B0                           l2190 09E4  
                         l1624 0D5F                           l1616 0D35                           l1608 0D18  
                         l1800 0325                           l1640 0A30                           l2096 0957  
                         l2088 002F                           l2256 0C42                           l2248 0C22  
                         l2264 0C56                           l1712 0B90                           l1704 0B70  
                         l1720 0BA4                           l2168 0BE1                           l2184 09B6  
                         l2176 099B                           l2192 09EA                           l2280 00E1  
                         l1618 0D47                           l1626 0D65                           l1810 0351  
                         l1802 0337                           l1642 0A3F                           l1634 0A23  
                         l2098 0006                           l2266 0C5B                           l2258 0C48  
                         l1714 0B96                           l1706 0B77                           l1730 0AFA  
                         l1570 097A                           l2178 09A1                           l1650 0A7D  
                         l2194 09F6                           l2290 00F5                           l2282 00E2  
                         l2274 00D9                           l1628 0D6A                           l1812 0356  
                         l1820 0376                           l1804 033F                           l1644 0A44  
                         l1636 0A25                           l1900 0493                           l2268 0C60  
                         l1716 0B97                           l1708 0B7B                           l1740 0B19  
                         l1732 0AFE                           l1724 0AEA                           l1564 0949  
                         l1580 096A                           l1572 097D                           l1660 0994  
                         l2196 0B24                           l1652 0A82                           l2188 09D9  
                         l2292 00FA                           l2284 00E6                           l2276 00DF  
                         l1830 03A1                           l1822 0388                           l1814 0368  
                         l1806 0347                           l1750 02A7                           l1638 0A2C  
                         l1910 04B0                           l1902 049B                           l1670 0C90  
                         l1662 0C65                           l1718 0B9E                           l1734 0B02  
                         l1726 0AF0                           l1742 0B1F                           l1582 096D  
                         l1574 097E                           l1566 0971                           l1590 09C7  
                         l1654 0981                           l2198 0B2C                           l2294 00FF  
                         l2286 00EB                           l2278 00E0                           l1648 0AB3  
                         l1840 03B9                           l1832 03A9                           l1824 0389  
                         l1816 036C                           l1808 034F                           l1760 02BE  
                         l1752 02AB                           l1920 04C7                           l1912 04B4  
                         l1904 049D                           l1672 0C91                           l1664 0C72  
                         l1736 0B0C                           l1728 0AF3                           l1584 096E  
                         l1576 0961                           l1568 0974                           l1592 09CB  
                         l1656 0987                           l2296 0129                           l2288 00F0  
                         l1594 0CE1                           l1850 03D1                           l1842 03C2  
                         l1834 03AB                           l1826 0397                           l1818 036D  
                         l1770 02D4                           l1762 02BF                           l1754 02AC  
                         l1746 029A                           l1922 04C9                           l1914 04B5  
                         l1906 04A5                           l1674 0C99                           l1738 0B12  
                         l1578 0964                           l1586 09B8                           l1658 098E  
                         l2298 0135                           l1596 0CE4                           l1860 0400  
                         l1852 03E5                           l1836 03B4                           l1844 03C8  
                         l1828 039B                           l1780 02EB                           l1772 02D8  
                         l1756 02B1                           l1764 02C1                           l1748 02A1  
                         l1940 053A                           l1932 04E4                           l1924 04D1  
                         l1916 04BA                           l1908 04AA                           l1692 0CC0  
                         l1684 0CA7                           l1676 0C9B                           l1668 0C7B  
                         l1588 09BA                           l1598 0CE8                           l1870 043E  
                         l1862 0404                           l1846 03CC                           l1838 03B8  
                         l1790 030E                           l1782 02EC                           l1774 02D9  
                         l1766 02C9                           l1758 02B6                           l1950 05B7  
                         l1942 0566                           l1934 04F4                           l1926 04D6  
                         l1918 04BF                           l1694 0CD0                           l1678 0C9F  
                         l1686 0CB9                           l1880 0464                           l1872 044D  
                         l1864 041D                           l1856 03ED                           l1848 03CD  
                         l1776 02DE                           l1784 02EE                           l1768 02CE  
                         l1960 0637                           l1952 05D4                           l1944 0582  
                         l1936 0501                           l1928 04DB                           l1696 0CD5  
                         l1882 0466                           l1874 0451                           l1858 03F2  
                         l1866 0423                           l1786 02FE                           l1794 0317  
                         l1778 02E3                           l1970 06EF                           l1962 0664  
                         l1954 05E4                           l1946 059E                           l1938 051E  
                         l1890 047E                           l1698 0B65                           l1876 0459  
                         l1868 0430                           l1796 031C                           l1788 030A  
                         l1980 0714                           l1972 06F8                           l1964 0674  
                         l1956 0601                           l1948 05A7                           l1892 0484  
                         l1878 0460                           l1990 072C                           l1982 071D  
                         l1974 0706                           l1966 06A1                           l1958 061A  
                         l1894 0488                           l1992 0740                           l1976 070F  
                         l1984 0723                           l1968 06C7                           l1896 0489  
                         l1888 0477                           l1986 0727                           l1978 0713  
                         l1898 048E                           l1996 0748                           l1988 0728  
                         l1998 074D                           STR_1 082A                           STR_2 0824  
                         STR_3 0810                           STR_4 081B    controlarSetPoint@S1Anterior 00BB  
                         u2000 02B6                           u2001 02B5                           u2010 02D8  
                         u2011 02D7                           u2020 02DE                           u2021 02DD  
                         u2110 0388                           u2030 02E3                           u2111 0387  
                         u2031 02E2                           u2200 03EC                           u2120 03A1  
                         u2040 02FE                           u3000 0B4F                           u2201 03EB  
                         u2121 03A0                           u2105 036F                           u2041 02FD  
                         u3001 0B4E                           u2210 03F2                           u2130 03A9  
                         u2050 031C                           u3010 0A03                           u2211 03F1  
                         u2131 03A8                           u2115 0384                           u2051 031B  
                         u3011 0A02                           u2220 0404                           u2060 0356  
                         u2300 04B4                           u2221 0403                           u2061 0355  
                         u2301 04B3                           u2230 0413                           u2150 03B8  
                         u2310 04BA                           u3110 0C42                           u2151 03B7  
                         u2311 04B9                           u3111 0C41                           u1600 0CF9  
                         u2240 0430                           u2320 04BF                           u3040 0A1D  
                         u1601 0CF8                           u2241 042F                           u2145 03AD  
                         u2401 05C6                           u2321 04BE                           u3105 0C32  
                         u3041 0A1C                           u3025 0A0A                           u1610 0D18  
                         u2250 044D                           u2170 03CC                           u2090 036C  
                         u2402 05CD                           u2330 04D6                           u3130 0C56  
                         u3050 0C03                           u1611 0D17                           u2251 044C  
                         u2235 040E                           u2171 03CB                           u2091 036B  
                         u2075 0358                           u2411 05F3                           u2403 05D4  
                         u2331 04D5                           u3131 0C55                           u3115 0C3E  
                         u3051 0C02                           u3035 0A11                           u2260 0464  
                         u2180 03D1                           u2412 05FA                           u2340 04DB  
                         u3140 0C5B                           u3060 0C0E                           u2261 0463  
                         u2245 042C                           u2181 03D0                           u2165 03BB  
                         u2085 0361                           u2413 0601                           u2341 04DA  
                         u3141 0C5A                           u3125 0C4A                           u3061 0C0D  
                         u1630 0D2C                           u2190 03E5                           u1710 0A44  
                         u2270 0488                           u3070 0C1F                           u1631 0D2B  
                         u2255 0449                           u2191 03E4                           u1711 0A43  
                         u2431 0629                           u2351 052C                           u2271 0487  
                         u3071 0C1E                           u1720 0AC3                           u2600 076E  
                         u2520 0713                           u2432 0630                           u2352 0533  
                         u2280 048E                           u1800 0CB8                           u1625 0D1D  
                         u1705 0A37                           u2521 0712                           u2505 06F1  
                         u2441 0656                           u2433 0637                           u2425 0603  
                         u2361 0548                           u2353 053A                           u2281 048D  
                         u1801 0CB7                           u1650 0D47                           u1730 0ACC  
                         u2610 078B                           u2442 065D                           u2362 054F  
                         u2290 0493                           u1810 0CBF                           u3090 0C31  
                         u1651 0D46                           u2611 078A                           u2515 0708  
                         u2451 0683                           u2443 0664                           u2371 0574  
                         u2363 0556                           u2291 0492                           u1811 0CBE  
                         u3091 0C30                           u2620 07A5                           u2540 0727  
                         u2460 06AD                           u2452 068A                           u2372 057B  
                         u2700 0DED                           u1580 09D8                           u1740 0987  
                         u1645 0D2E                           u1725 0ABE                           u2621 07A4  
                         u2605 0769                           u2541 0726                           u2453 0691  
                         u2381 0590                           u2373 0582                           u2701 0DEC  
                         u3085 0C23                           u3157 0FB3                           u1581 09D7  
                         u1741 0986                           u1670 0D65                           u1590 0CE8  
                         u2630 07C3                           u2550 072C                           u2382 0597  
                         u1830 0CD0                           u1750 0C72                           u1910 0BA4  
                         u1671 0D64                           u1655 0D43                           u1591 0CE7  
                         u1735 0AC7                           u2631 07C2                           u2615 0787  
                         u2551 072B                           u2535 0716                           u2471 06B9  
                         u2383 059E                           u1831 0CCF                           u1751 0C71  
                         u1911 0BA3                           u3167 0FCA                           u1680 0D6A  
                         u2560 0740                           u2480 06D5                           u2472 06C0  
                         u1840 0CD5                           u1760 0C89                           u2720 0DFD  
                         u2640 0D86                           u1920 0AF0                           u1681 0D69  
                         u1665 0D57                           u2625 07A1                           u2561 073F  
                         u2473 06C7                           u2465 06A8                           u1841 0CD4  
                         u1825 0CC2                           u2721 0DFC                           u2641 0D85  
                         u1905 0B98                           u1921 0AEF                           u3177 0FE1  
                         u1690 0A30                           u2570 0747                           u1770 0C9F  
                         u2730 0E03                           u2650 0D8A                           u1850 0B6D  
                         u1691 0A2F                           u2571 0746                           u2491 06E1  
                         u2395 05A0                           u1771 0C9E                           u2731 0E02  
                         u2715 0DF2                           u2651 0D89                           u1851 0B6C  
                         u3187 0FF8                           u2580 074D                           u2492 06E8  
                         u1780 0CA6                           u2740 0E07                           u2660 0DAA  
                         u2804 0EF3                           u2820 002F                           u1940 0B02  
                         u2900 0BBB                           u3197 0A6A                           u2581 074C  
                         u2493 06EF                           u2485 06D0                           u1781 0CA5  
                         u1765 0C84                           u2741 0E06                           u2661 0DA9  
                         u2821 002E                           u1941 0B01                           u2901 0BBA  
                         u2590 075F                           u2750 0E1C                           u2830 00C7  
                         u1870 0B7F                           u1950 0B0C                           u2910 0BD2  
                         u2591 075E                           u2815 0EF8                           u2831 00C3  
                         u1871 0B7E                           u1951 0B0B                           u1935 0AF4  
                         u2911 0BD1                           u2760 0E2C                           u2680 0DCB  
                         u2920 0BD7                           u2761 0E2B                           u2681 0DCA  
                         u1865 0B71                           u2921 0BD6                           u2770 0E30  
                         u1890 0B90                           u1970 0B1F                           u2930 0BEE  
                         u1795 0CA8                           u2771 0E2F                           u2755 0E17  
                         u2675 0DBD                           u1891 0B8F                           u1971 0B1E  
                         u1955 0B08                           u2931 0BED                           u2860 0A50  
                         u1980 02AB                           u2780 0E58                           u2844 00CA  
                         u2940 0BF3                           u2861 0A4F                           u1981 02AA  
                         u2781 0E57                           u1885 0B80                           u1965 0B13  
                         u2941 0BF2                           u1990 02B1                           u2790 0EF0  
                         u2950 09A1                           u1991 02B0                           u2695 0DDF  
                         u2791 0EEC                           u2855 00CF                           u1895 0B8C  
                         u2951 09A0                           u2880 0A76                           u2960 09B0  
                         u2881 0A75                           u2961 09AF                           u2970 0B31  
                         u2890 0BB6                           u2875 0A5C                           u2971 0B30  
                         u2891 0BB5                           u2980 0B36                           u2981 0B35  
                         u2965 09AC                           u2990 0B3C                           u2991 0B3B  
  controlarSetPoint@S2Anterior 00B9                           _main 00D9    controlarSetPoint@S3Anterior 00B7  
                         _menu 00C2                           btemp 007E               __end_of_ADC_Init 0957  
             __end_of_ADC_Read 0A7D                           start 0000                ___fldiv@new_exp 004E  
     controlarSetPoint@S1Atual 00BA       controlarSetPoint@S2Atual 00B8       controlarSetPoint@S3Atual 00B6  
                ?_controlarLcd 0070                  ___fltol@sign1 002A                __end_of___aldiv 0D7E  
                        ?_main 0070                          _CCP1X 00BD                __end_of___fldiv 0477  
                        _CCP1Y 00BC                          _CCP2X 00ED                          _CCP2Y 00EC  
              __end_of___awdiv 0C65                __end_of___flmul 07D8                __end_of___fltol 0CE1  
              ___awdiv@divisor 0070                __end_of___lwdiv 0BA9                __end_of___lwmod 0B24  
              ___awdiv@counter 0075                          _PORTD 0008                          _TRISA 0085  
                        _TRISB 0086                          _TRISC 0087                          _TRISD 0088  
                        _TRISE 0089                __end_of_lcd_dat 0980                __end_of_lcd_cmd 0970  
              __end_of_lcd_str 09D9             __size_of_PWM1_Duty 00C8                    ?_PWM1_Start 0070  
           __size_of_PWM2_Duty 00C8                    ?_PWM2_Start 0070                          pclath 000A  
             __end_of_PWM_Init 0AEA                          status 0003                          wtemp0 007E  
              __initialization 07D8                   __end_of_main 029A                 ??_controlarLcd 0078  
                       ??_main 00A6                         _ADCON0 001F                         _ADCON1 009F  
                       _CCP1M2 00BA                         _CCP1M3 00BB                         _CCP2M2 00EA  
                       _CCP2M3 00EB                         _ADRESH 001E                         _ADRESL 009E  
                       _CCPR1L 0015                         _CCPR2L 001B               ___awdiv@dividend 0072  
                       _TMR2ON 0092                         _TRISC1 0439                         _TRISC2 043A  
             __end_of___xxtofl 0E3A           _controleMaximoMinimo 099B               __end_of_lcd_init 0AB3  
            __end_of_PWM1_Duty 0F02              __end_of_PWM2_Duty 00D9                      ??___aldiv 0078  
                       ___wmul 09FD                      ??___fldiv 0044                      ??___awdiv 0074  
          __size_of_PWM1_Start 0009                      ??___flmul 005E                      ??___fltol 0079  
          __size_of_PWM2_Start 000B               __end_of_escrever 099B                         _digito 0806  
                    ??___lwdiv 007A                      ??___lwmod 0074                         _lcd_wr 0948  
              ADC_Read@channel 0074               ___awdiv@quotient 0077                      ??_lcd_dat 0071  
                    ??_lcd_cmd 0071                         main@up 00AE                      ??_lcd_str 0072  
           __size_of__Umul8_16 0027                   PWM_Init@freq 0026                      ?_ADC_Init 0070  
                    ?_ADC_Read 0070                   ___xxtofl@arg 0038                   ___xxtofl@exp 0037  
                 ___xxtofl@val 002E        __end_of__initialization 07FC                     ___fltol@f1 0026  
        ?_controleMaximoMinimo 002C                 __pcstackCOMMON 0070                _atualizaDisplay 0F02  
                 __pidataBANK1 0944                      ?_PWM_Init 0026                     ??_ADC_Init 0070  
                   ??_ADC_Read 0072                     __pbssBANK1 00B4           __end_of_controlarLcd 0B65  
          _atualizaDisplay$820 002E            _atualizaDisplay$821 002C              __end_of__Umul8_16 0A49  
                   __pmaintext 00D9                        ?___wmul 0075                        ?_lcd_wr 0070  
                   ??_PWM_Init 0079                        _T2CKPS0 0090                        _T2CKPS1 0091  
                    ?___xxtofl 002E                        _S4Atual 00BC                   ??_PWM1_Start 0070  
                 ??_PWM2_Start 0070                      ?_lcd_init 0070                     __stringtab 0800  
                    ?_escrever 0075        __end_of_atualizaDisplay 1000         ??_controleMaximoMinimo 007E  
                   _iniciarLcd 09D9                        ___aldiv 0CE1                        ___fldiv 029A  
                      ___awdiv 0BFE                        ___flmul 0477                        ___fltol 0C65  
              __size_of___wmul 0025                        ___lwdiv 0B65                        ___lwmod 0AEA  
           __end_of_PWM1_Start 0960             __end_of_PWM2_Start 0011                __size_of_lcd_wr 0006  
                      __ptext1 09D9                        __ptext2 0A7D                        __ptext3 099B  
                      __ptext4 0BA9                        __ptext5 0B24                        __ptext6 0980  
                      __ptext7 09B7                        __ptext8 0970                        __ptext9 0960  
                      _lcd_dat 0970                        _lcd_cmd 0960                        _lcd_str 09B7  
                   ??___xxtofl 0032               ___aldiv@dividend 0074                     ??_lcd_init 0072  
         end_of_initialization 07FC                     ??_escrever 0077               ___aldiv@quotient 0022  
                    _PWM1_Duty 0E3A                      _PWM2_Duty 0011                      _PORTEbits 0009  
                ___xxtofl@sign 0036      controleMaximoMinimo@valor 002C                     lcd_dat@val 0071  
                   lcd_cmd@val 0071                    ___fldiv@grs 0050          __size_of_controlarLcd 0041  
                  ___fldiv@rem 0049              __size_of_ADC_Init 0009              __size_of_ADC_Read 0034  
                  ___flmul@grs 0064                     main@cooler 00B2               ?_atualizaDisplay 0020  
                escrever@linha 0075                     lcd_str@str 0074                  escrever@texto 0077  
                  ?_iniciarLcd 0070                 __end_of___wmul 0A22                 __end_of_digito 0810  
                   ?_PWM1_Duty 00A0                     ?_PWM2_Duty 00A0                 __end_of_lcd_wr 094E  
                 _controlarLcd 0B24              __size_of_PWM_Init 0037            start_initialization 07D8  
                     ??___wmul 0079                      __Umul8_16 0A22                       ??_lcd_wr 0070  
                  __pdataBANK1 00BE                      ___fldiv@a 003C                      ___fldiv@b 0040  
                    ___flmul@a 005A                      ___flmul@b 0056                      ___latbits 0002  
                __pcstackBANK0 0020                  __pcstackBANK1 00A0            __size_of_iniciarLcd 0024  
            __size_of___xxtofl 00BC              __size_of_lcd_init 0036              __size_of_escrever 001B  
                    __pnvBANK1 00C2               ___lwdiv@dividend 0078                       ?___aldiv 0070  
                     ?___fldiv 003C                       ?___awdiv 0070                       ?___flmul 0056  
                     ?___fltol 0026                     ?__Umul8_16 0070                       ?___lwdiv 0076  
                     ?___lwmod 0070                    ??_PWM1_Duty 00A4                    ??_PWM2_Duty 00A4  
                    __pstrings 0800                       ?_lcd_dat 0070                       ?_lcd_cmd 0070  
                     ?_lcd_str 0070         atualizaDisplay@centena 0026                       _ADC_Init 094E  
                     _ADC_Read 0A49               ___lwdiv@quotient 007B         atualizaDisplay@tempSet 0020  
       atualizaDisplay@unidade 002A                ___aldiv@divisor 0070                ___aldiv@counter 0020  
               ___wmul@product 0079              _controlarSetPoint 0BA9             ?_controlarSetPoint 0070  
__size_of_controleMaximoMinimo 001C                  PWM1_Duty@freq 00A2                  PWM1_Duty@duty 00A0  
                     _GO_nDONE 00FA            ??_controlarSetPoint 0070                  PWM2_Duty@freq 00A2  
                PWM2_Duty@duty 00A0                    __stringbase 0805                       _PWM_Init 0AB3  
            ___wmul@multiplier 0075                      lcd_wr@val 0070      __end_of_controlarSetPoint 0BFE  
                 ??_iniciarLcd 0075                    ??__Umul8_16 0072               __size_of___aldiv 009D  
             __size_of___fldiv 01DD               __size_of___awdiv 0067               __size_of___flmul 0361  
             __size_of___fltol 007C               __size_of___lwdiv 0044               __size_of___lwmod 003A  
           __end_of__stringtab 0806               __size_of_lcd_dat 0010               __size_of_lcd_cmd 0010  
             __size_of_lcd_str 0022                       ___xxtofl 0D7E                       _main$822 00AC  
              ___lwdiv@divisor 0076                ___lwdiv@counter 007D                       __ptext10 0948  
                     __ptext11 0F02                       __ptext20 0D7E                       __ptext12 0AEA  
                     __ptext21 0C65                       __ptext13 0B65                       __ptext22 0477  
                     __ptext14 09FD                       __ptext23 0A22                       __ptext15 0BFE  
                     __ptext24 029A                       __ptext16 0006                       __ptext25 0AB3  
                     __ptext17 0011                       __ptext26 0CE1                       __ptext18 0957  
                     __ptext27 0A49                       __ptext19 0E3A                       __ptext28 094E  
           __end_of_iniciarLcd 09FD                       _lcd_init 0A7D          atualizaDisplay@dezena 0028  
                     _escrever 0980          atualizaDisplay@milhar 0024                  __size_of_main 01C1  
                     _setPoint 00C0       __size_of_atualizaDisplay 00FE                       main@erro 00A8  
                     lcd_str@i 0073                     _S4Anterior 00BD     __size_of_controlarSetPoint 0055  
             ___lwmod@dividend 0072                      stringcode 0800         __Umul8_16@multiplicand 0070  
                  _temperatura 00B4                ___lwmod@divisor 0070                ___lwmod@counter 0075  
                     stringdir 0800                       stringtab 0800                   ___aldiv@sign 0021  
                   _PWM1_Start 0957                     _PWM2_Start 0006           __Umul8_16@multiplier 0078  
            __Umul8_16@product 0074  
